Certificate:
    Data:
        Version: 3 (0x2)
        Serial Number: 268435650 (0x100000c2)
    Signature Algorithm: sha1WithRSAEncryption
        Issuer: C=DE, ST=Hessen, O=privacyidea, CN=CA001
        Validity
            Not Before: Dec  2 22:44:35 2015 GMT
            Not After : Dec  1 22:44:35 2016 GMT
        Subject: C=DE, ST=Hessen, O=privacyidea, CN=requester.localdomain
        Subject Public Key Info:
            Public Key Algorithm: rsaEncryption
                Public-Key: (2048 bit)
                Modulus:
                    00:cd:be:14:4f:fa:ce:01:3f:42:22:1b:1d:9c:af:
                    dd:92:d2:7f:db:6c:b7:3e:39:43:43:6b:13:03:f1:
                    05:f4:07:74:bc:76:69:28:0b:af:19:8e:d7:fc:e3:
                    cd:c6:58:f2:ca:7f:08:6d:53:fc:07:02:44:24:c6:
                    b4:34:4c:8c:04:fe:33:0e:40:e2:20:ba:02:73:5a:
                    f7:f5:4f:63:6e:cc:c6:b6:df:54:1d:37:39:7d:51:
                    36:26:5f:bd:dc:3f:a8:8b:6b:a2:ae:b6:9d:d6:21:
                    e7:df:41:b8:7a:28:2a:68:48:ca:a8:2d:ed:e1:e9:
                    46:5e:5a:72:6d:b4:84:38:87:91:fd:94:11:0b:28:
                    84:c6:c2:2f:2a:fb:01:f9:36:7a:09:75:d1:33:88:
                    3c:73:41:5b:c8:bf:94:89:70:a1:f0:c0:b9:2e:50:
                    53:1e:b1:17:64:69:f4:2d:81:e0:a9:0d:0e:32:e9:
                    ba:55:8a:85:f1:1b:6f:49:79:b4:7f:88:c3:0d:3e:
                    54:88:9b:3d:1f:38:8c:04:f3:ee:6a:63:2b:f5:c6:
                    db:b4:83:aa:c4:78:41:3a:7d:4b:e1:c8:3e:71:ca:
                    1b:61:59:ea:c6:c4:ca:32:5e:c9:e9:bf:12:29:e6:
                    c6:c3:63:fe:a0:55:da:7a:f1:60:98:4d:26:ed:fa:
                    70:2d
                Exponent: 65537 (0x10001)
        X509v3 extensions:
            X509v3 Key Usage: 
                Digital Signature, Key Encipherment
            X509v3 Basic Constraints: 
                CA:FALSE
            Netscape Cert Type: 
                SSL Server
            Netscape Comment: 
                OpenSSL Generated Server Certificate
            X509v3 Subject Key Identifier: 
                53:3F:ED:5D:09:07:B3:65:7B:AB:45:C9:24:5B:09:77:80:0A:96:ED
            X509v3 Authority Key Identifier: 
                keyid:F4:A7:C0:CC:91:46:AF:64:F3:91:F2:27:F8:C8:B2:6F:8A:87:32:73
                DirName:/C=DE/ST=Hessen/O=privacyidea/CN=CA001
                serial:FB:C8:EB:AC:83:CD:12:07

            X509v3 Extended Key Usage: 
                TLS Web Server Authentication
    Signature Algorithm: sha1WithRSAEncryption
         ac:2a:bf:24:37:b5:84:5b:b9:00:0e:5a:4d:64:4c:0e:91:f2:
         7a:76:5b:4c:e6:52:b2:18:e0:e6:60:cb:6c:ed:bd:4b:45:a0:
         1e:f7:c7:34:37:e6:d8:b9:b4:10:b5:3e:2c:40:5c:a0:47:8c:
         a9:99:dd:3f:93:a6:6f:ad:81:48:e3:14:2a:b0:dd:94:27:6b:
         55:c9:09:87:ca:cf:4f:98:b1:f1:41:98:08:25:6b:c7:52:1c:
         00:22:4a:6d:89:c8:e6:88:af:0a:db:79:ca:b8:51:05:61:2b:
         1c:09:cd:0a:a7:c1:b1:a7:d9:28:70:42:98:35:08:09:b0:1a:
         99:c8:ff:6b:78:f0:bf:85:47:e3:b8:80:d6:fb:03:58:19:4d:
         21:2d:94:7f:be:ae:e2:e1:e5:cc:bd:05:1c:3f:0e:e1:f8:fe:
         9d:34:ab:1d:8c:ca:47:3e:17:0d:d5:c7:b2:21:30:58:e7:19:
         04:4f:a8:13:cd:71:8c:0f:ae:6b:1e:8c:28:ae:3e:c5:cc:54:
         b3:2b:0c:37:e4:bb:d4:5b:72:0f:cc:c1:e2:2a:cb:cc:e0:4f:
         7b:e2:17:91:94:7e:ab:62:fb:ed:b6:c5:dc:8f:9b:52:8d:90:
         9a:b5:4c:1b:72:74:3e:4a:cb:89:fd:98:8d:d5:d1:8a:99:82:
         40:50:91:95
-----BEGIN CERTIFICATE-----
MIIEJjCCAw6gAwIBAgIEEAAAwjANBgkqhkiG9w0BAQUFADBEMQswCQYDVQQGEwJE
RTEPMA0GA1UECAwGSGVzc2VuMRQwEgYDVQQKDAtwcml2YWN5aWRlYTEOMAwGA1UE
AwwFQ0EwMDEwHhcNMTUxMjAyMjI0NDM1WhcNMTYxMjAxMjI0NDM1WjBUMQswCQYD
VQQGEwJERTEPMA0GA1UECAwGSGVzc2VuMRQwEgYDVQQKDAtwcml2YWN5aWRlYTEe
MBwGA1UEAwwVcmVxdWVzdGVyLmxvY2FsZG9tYWluMIIBIjANBgkqhkiG9w0BAQEF
AAOCAQ8AMIIBCgKCAQEAzb4UT/rOAT9CIhsdnK/dktJ/22y3PjlDQ2sTA/EF9Ad0
vHZpKAuvGY7X/OPNxljyyn8IbVP8BwJEJMa0NEyMBP4zDkDiILoCc1r39U9jbszG
tt9UHTc5fVE2Jl+93D+oi2uirrad1iHn30G4eigqaEjKqC3t4elGXlpybbSEOIeR
/ZQRCyiExsIvKvsB+TZ6CXXRM4g8c0FbyL+UiXCh8MC5LlBTHrEXZGn0LYHgqQ0O
Mum6VYqF8RtvSXm0f4jDDT5UiJs9HziMBPPuamMr9cbbtIOqxHhBOn1L4cg+ccob
YVnqxsTKMl7J6b8SKebGw2P+oFXaevFgmE0m7fpwLQIDAQABo4IBDjCCAQowCwYD
VR0PBAQDAgWgMAkGA1UdEwQCMAAwEQYJYIZIAYb4QgEBBAQDAgZAMDMGCWCGSAGG
+EIBDQQmFiRPcGVuU1NMIEdlbmVyYXRlZCBTZXJ2ZXIgQ2VydGlmaWNhdGUwHQYD
VR0OBBYEFFM/7V0JB7Nle6tFySRbCXeACpbtMHQGA1UdIwRtMGuAFPSnwMyRRq9k
85HyJ/jIsm+KhzJzoUikRjBEMQswCQYDVQQGEwJERTEPMA0GA1UECAwGSGVzc2Vu
MRQwEgYDVQQKDAtwcml2YWN5aWRlYTEOMAwGA1UEAwwFQ0EwMDGCCQD7yOusg80S
BzATBgNVHSUEDDAKBggrBgEFBQcDATANBgkqhkiG9w0BAQUFAAOCAQEArCq/JDe1
hFu5AA5aTWRMDpHyenZbTOZSshjg5mDLbO29S0WgHvfHNDfm2Lm0ELU+LEBcoEeM
qZndP5Omb62BSOMUKrDdlCdrVckJh8rPT5ix8UGYCCVrx1IcACJKbYnI5oivCtt5
yrhRBWErHAnNCqfBsafZKHBCmDUICbAamcj/a3jwv4VH47iA1vsDWBlNIS2Uf76u
4uHlzL0FHD8O4fj+nTSrHYzKRz4XDdXHsiEwWOcZBE+oE81xjA+uax6MKK4+xcxU
sysMN+S71FtyD8zB4irLzOBPe+IXkZR+q2L77bbF3I+bUo2QmrVMG3J0PkrLif2Y
jdXRipmCQFCRlQ==
-----END CERTIFICATE-----
