Certificate:
    Data:
        Version: 3 (0x2)
        Serial Number: 268435646 (0x100000be)
    Signature Algorithm: sha1WithRSAEncryption
        Issuer: C=DE, ST=Hessen, O=privacyidea, CN=CA001
        Validity
            Not Before: Dec  4 16:22:30 2015 GMT
            Not After : Dec  3 16:22:30 2016 GMT
        Subject: C=DE, ST=Hessen, O=privacyidea, CN=usercert
        Subject Public Key Info:
            Public Key Algorithm: rsaEncryption
                Public-Key: (2048 bit)
                Modulus:
                    00:dc:2f:d1:5f:29:97:d4:7c:c3:53:c8:30:bd:4b:
                    67:70:2c:24:6b:b8:5e:eb:21:7a:48:12:56:7c:81:
                    5c:48:75:b6:68:eb:f6:f2:98:4e:50:51:d1:7f:6c:
                    73:f3:0a:a7:ae:be:48:5e:e5:d6:e1:d9:2a:7c:32:
                    6e:4e:fd:08:f6:5a:54:49:23:73:c3:b9:07:18:d1:
                    ef:b3:ac:f8:8a:dc:94:96:a4:90:3a:8e:74:df:e6:
                    0d:37:1b:bd:5b:b7:25:1a:56:39:da:6f:91:aa:5e:
                    1c:74:f3:f9:7c:14:01:83:12:65:76:c7:bb:fe:36:
                    5b:95:e9:72:65:83:ed:3e:98:30:71:fa:87:dd:a3:
                    36:5a:30:03:2e:26:e0:61:d1:bf:02:3f:b6:06:1f:
                    4a:89:28:1c:5c:a2:ff:4e:be:94:e6:8c:e0:da:82:
                    f1:9d:29:32:48:30:73:b4:04:f6:42:1e:be:f7:e2:
                    32:32:27:3c:9d:89:2f:70:3e:85:9a:6f:5c:c5:09:
                    c0:8c:32:2f:72:22:c9:d2:95:1f:b6:ac:72:60:72:
                    b7:82:4d:6b:ce:5b:e3:00:d0:d2:2f:58:c6:e0:10:
                    e5:51:ca:4d:3b:2e:e6:7e:ab:84:d6:56:f1:93:35:
                    a0:93:64:26:81:75:2f:91:b5:16:06:38:0b:db:cc:
                    2d:07
                Exponent: 65537 (0x10001)
        X509v3 extensions:
            X509v3 Key Usage: 
                Digital Signature, Key Encipherment
            X509v3 Basic Constraints: 
                CA:FALSE
            Netscape Cert Type: 
                SSL Server
            Netscape Comment: 
                OpenSSL Generated Server Certificate
            X509v3 Subject Key Identifier: 
                FC:14:D1:F0:4B:8D:00:90:F2:F5:B8:71:9E:4E:97:C3:92:54:AD:0B
            X509v3 Authority Key Identifier: 
                keyid:F4:A7:C0:CC:91:46:AF:64:F3:91:F2:27:F8:C8:B2:6F:8A:87:32:73
                DirName:/C=DE/ST=Hessen/O=privacyidea/CN=CA001
                serial:FB:C8:EB:AC:83:CD:12:07

            X509v3 Extended Key Usage: 
                TLS Web Server Authentication
    Signature Algorithm: sha1WithRSAEncryption
         53:ca:43:90:1c:f7:21:32:74:c9:77:5c:14:1e:28:05:df:c8:
         13:9a:9a:97:83:38:55:5d:29:0d:8e:62:24:4f:c0:b2:6f:4d:
         af:fb:92:87:90:75:cc:d3:69:5b:d0:ef:56:83:1c:55:93:5f:
         db:07:0c:a8:5f:0e:1b:0f:b4:61:82:d3:3e:9f:bb:fa:6a:bf:
         a6:ae:e2:2c:67:eb:96:48:9a:2a:5d:0c:a9:00:e9:25:0f:d7:
         db:cd:e8:59:27:d4:e2:27:9a:4e:c6:9d:55:43:da:68:2e:56:
         d1:9f:49:33:f9:6c:ac:c8:6c:66:24:7e:14:ca:2b:44:03:5e:
         5e:7e:e6:b7:c0:cd:e5:7b:56:f8:71:26:d4:9d:69:34:05:0c:
         c8:8d:51:c0:e8:d9:71:89:be:97:10:77:b2:65:d1:e3:e4:63:
         eb:2c:fb:6f:c2:4f:89:31:4b:85:e1:29:28:2b:17:44:de:b6:
         b9:44:56:0c:ba:c7:be:cb:4e:48:de:24:db:d9:8c:96:f5:0d:
         34:5e:fe:03:b5:97:fc:16:42:12:3b:9a:f8:5d:3a:d0:ac:93:
         60:de:24:9d:aa:4c:63:b2:4b:aa:6f:8c:ac:3c:a4:27:fa:c2:
         9d:9a:60:ac:90:a4:10:2e:57:b4:02:cc:92:79:b9:48:d5:b7:
         cb:45:bf:a0
-----BEGIN CERTIFICATE-----
MIIEGTCCAwGgAwIBAgIEEAAAvjANBgkqhkiG9w0BAQUFADBEMQswCQYDVQQGEwJE
RTEPMA0GA1UECAwGSGVzc2VuMRQwEgYDVQQKDAtwcml2YWN5aWRlYTEOMAwGA1UE
AwwFQ0EwMDEwHhcNMTUxMjA0MTYyMjMwWhcNMTYxMjAzMTYyMjMwWjBHMQswCQYD
VQQGEwJERTEPMA0GA1UECAwGSGVzc2VuMRQwEgYDVQQKDAtwcml2YWN5aWRlYTER
MA8GA1UEAwwIdXNlcmNlcnQwggEiMA0GCSqGSIb3DQEBAQUAA4IBDwAwggEKAoIB
AQDcL9FfKZfUfMNTyDC9S2dwLCRruF7rIXpIElZ8gVxIdbZo6/bymE5QUdF/bHPz
Cqeuvkhe5dbh2Sp8Mm5O/Qj2WlRJI3PDuQcY0e+zrPiK3JSWpJA6jnTf5g03G71b
tyUaVjnab5GqXhx08/l8FAGDEmV2x7v+NluV6XJlg+0+mDBx+ofdozZaMAMuJuBh
0b8CP7YGH0qJKBxcov9OvpTmjODagvGdKTJIMHO0BPZCHr734jIyJzydiS9wPoWa
b1zFCcCMMi9yIsnSlR+2rHJgcreCTWvOW+MA0NIvWMbgEOVRyk07LuZ+q4TWVvGT
NaCTZCaBdS+RtRYGOAvbzC0HAgMBAAGjggEOMIIBCjALBgNVHQ8EBAMCBaAwCQYD
VR0TBAIwADARBglghkgBhvhCAQEEBAMCBkAwMwYJYIZIAYb4QgENBCYWJE9wZW5T
U0wgR2VuZXJhdGVkIFNlcnZlciBDZXJ0aWZpY2F0ZTAdBgNVHQ4EFgQU/BTR8EuN
AJDy9bhxnk6Xw5JUrQswdAYDVR0jBG0wa4AU9KfAzJFGr2TzkfIn+Miyb4qHMnOh
SKRGMEQxCzAJBgNVBAYTAkRFMQ8wDQYDVQQIDAZIZXNzZW4xFDASBgNVBAoMC3By
aXZhY3lpZGVhMQ4wDAYDVQQDDAVDQTAwMYIJAPvI66yDzRIHMBMGA1UdJQQMMAoG
CCsGAQUFBwMBMA0GCSqGSIb3DQEBBQUAA4IBAQBTykOQHPchMnTJd1wUHigF38gT
mpqXgzhVXSkNjmIkT8Cyb02v+5KHkHXM02lb0O9WgxxVk1/bBwyoXw4bD7RhgtM+
n7v6ar+mruIsZ+uWSJoqXQypAOklD9fbzehZJ9TiJ5pOxp1VQ9poLlbRn0kz+Wys
yGxmJH4UyitEA15efua3wM3le1b4cSbUnWk0BQzIjVHA6Nlxib6XEHeyZdHj5GPr
LPtvwk+JMUuF4SkoKxdE3ra5RFYMuse+y05I3iTb2YyW9Q00Xv4DtZf8FkISO5r4
XTrQrJNg3iSdqkxjskuqb4ysPKQn+sKdmmCskKQQLle0AsySeblI1bfLRb+g
-----END CERTIFICATE-----
