Certificate:
    Data:
        Version: 3 (0x2)
        Serial Number: 268435662 (0x100000ce)
    Signature Algorithm: sha1WithRSAEncryption
        Issuer: C=DE, ST=Hessen, O=privacyidea, CN=CA001
        Validity
            Not Before: Nov 29 18:06:09 2015 GMT
            Not After : Nov 28 18:06:09 2016 GMT
        Subject: CN=Steve Test/emailAddress=steve@openssl.org
        Subject Public Key Info:
            Public Key Algorithm: rsaEncryption
                Public-Key: (2048 bit)
                Modulus:
                    00:d2:81:89:20:51:48:0f:73:f4:11:32:24:d5:1f:
                    1c:fd:5c:f5:b6:e6:c5:f0:52:81:dc:d2:af:66:4a:
                    7c:93:31:61:5c:af:d1:6d:06:70:03:60:7c:72:0c:
                    88:dd:49:cd:9e:02:6c:d2:5a:d7:53:0f:f3:da:be:
                    69:64:b5:0f:0c:00:e3:b3:50:47:a3:b3:9b:ba:13:
                    50:d6:58:5a:4b:ab:39:e0:11:ca:0a:27:67:03:78:
                    22:66:6d:92:1e:1b:5c:49:ae:e6:6b:d1:8e:3b:9d:
                    06:d3:c6:ac:4d:53:43:10:ab:e8:96:c1:87:82:97:
                    99:8f:20:d3:99:12:37:31:84:e1:8a:ff:29:03:5f:
                    22:90:3e:7f:9b:e0:20:c1:ad:dc:ae:4c:39:1a:31:
                    96:17:02:8c:b2:d9:b4:0d:20:12:9b:7d:86:54:fd:
                    33:fd:c1:2a:62:46:f8:60:96:cf:6e:01:6f:22:df:
                    13:47:e7:97:ec:05:72:23:a3:62:f8:fa:ef:ac:9c:
                    72:f0:37:cb:2f:37:cf:90:a8:27:51:86:c6:d7:78:
                    08:8f:7e:25:a2:15:70:a2:fb:1c:b6:15:5e:a0:97:
                    8b:81:4c:09:28:8a:27:3b:94:bc:71:db:5b:71:37:
                    9a:2b:16:e0:6f:b5:c9:f5:4b:4f:20:ba:65:cf:af:
                    ad:ad
                Exponent: 65537 (0x10001)
        X509v3 extensions:
            X509v3 Key Usage: 
                Digital Signature, Key Encipherment
            X509v3 Basic Constraints: 
                CA:FALSE
            Netscape Cert Type: 
                SSL Server
            Netscape Comment: 
                OpenSSL Generated Server Certificate
            X509v3 Subject Key Identifier: 
                E5:25:6D:3E:AF:0D:DD:3F:4C:F2:45:19:39:D5:14:DB:7E:9C:C0:AD
            X509v3 Authority Key Identifier: 
                keyid:F4:A7:C0:CC:91:46:AF:64:F3:91:F2:27:F8:C8:B2:6F:8A:87:32:73
                DirName:/C=DE/ST=Hessen/O=privacyidea/CN=CA001
                serial:FB:C8:EB:AC:83:CD:12:07

            X509v3 Extended Key Usage: 
                TLS Web Server Authentication
    Signature Algorithm: sha1WithRSAEncryption
         62:1a:5f:32:d1:a4:50:3e:a5:34:a1:fc:91:d7:86:a2:ec:2a:
         74:f2:66:62:20:37:6f:26:90:73:5e:62:97:ea:ec:1a:43:e1:
         39:ae:42:bf:23:e1:11:5c:9a:07:1d:5a:aa:15:d2:39:6f:af:
         43:4d:44:00:72:13:80:00:a9:77:fd:77:08:bb:b1:37:3a:b6:
         aa:71:ca:49:a5:d3:31:f4:81:4b:02:06:ae:24:86:21:09:4c:
         11:23:63:53:b8:e9:09:8d:18:45:5b:15:f5:cf:ee:94:bb:e5:
         0c:85:3d:ed:66:b9:8d:56:fe:c8:0c:21:d2:3c:44:f2:4a:d6:
         3d:23:6c:51:0e:8b:e5:30:af:b5:13:a8:24:9a:0e:a2:ed:b6:
         d7:6a:21:03:31:39:de:3e:59:f4:49:18:c2:06:99:37:71:1a:
         7c:1e:18:01:c3:60:69:9d:d0:5b:a1:5f:ca:e7:4f:5e:c1:9e:
         32:28:55:0b:d5:78:e3:8f:35:0a:e4:c6:53:37:fa:73:57:27:
         64:97:61:81:e6:58:24:ac:c4:67:dc:4d:22:34:2e:ef:0e:e8:
         0f:e9:da:4d:bf:6c:45:5f:47:91:e8:54:3b:ee:c7:d4:7e:7d:
         2d:f4:13:34:fc:05:d5:a8:3c:46:b3:90:54:5c:ae:18:54:3c:
         c5:09:c4:37
-----BEGIN CERTIFICATE-----
MIIECTCCAvGgAwIBAgIEEAAAzjANBgkqhkiG9w0BAQUFADBEMQswCQYDVQQGEwJE
RTEPMA0GA1UECAwGSGVzc2VuMRQwEgYDVQQKDAtwcml2YWN5aWRlYTEOMAwGA1UE
AwwFQ0EwMDEwHhcNMTUxMTI5MTgwNjA5WhcNMTYxMTI4MTgwNjA5WjA3MRMwEQYD
VQQDEwpTdGV2ZSBUZXN0MSAwHgYJKoZIhvcNAQkBFhFzdGV2ZUBvcGVuc3NsLm9y
ZzCCASIwDQYJKoZIhvcNAQEBBQADggEPADCCAQoCggEBANKBiSBRSA9z9BEyJNUf
HP1c9bbmxfBSgdzSr2ZKfJMxYVyv0W0GcANgfHIMiN1JzZ4CbNJa11MP89q+aWS1
DwwA47NQR6Ozm7oTUNZYWkurOeARygonZwN4ImZtkh4bXEmu5mvRjjudBtPGrE1T
QxCr6JbBh4KXmY8g05kSNzGE4Yr/KQNfIpA+f5vgIMGt3K5MORoxlhcCjLLZtA0g
Ept9hlT9M/3BKmJG+GCWz24BbyLfE0fnl+wFciOjYvj676yccvA3yy83z5CoJ1GG
xtd4CI9+JaIVcKL7HLYVXqCXi4FMCSiKJzuUvHHbW3E3misW4G+1yfVLTyC6Zc+v
ra0CAwEAAaOCAQ4wggEKMAsGA1UdDwQEAwIFoDAJBgNVHRMEAjAAMBEGCWCGSAGG
+EIBAQQEAwIGQDAzBglghkgBhvhCAQ0EJhYkT3BlblNTTCBHZW5lcmF0ZWQgU2Vy
dmVyIENlcnRpZmljYXRlMB0GA1UdDgQWBBTlJW0+rw3dP0zyRRk51RTbfpzArTB0
BgNVHSMEbTBrgBT0p8DMkUavZPOR8if4yLJviocyc6FIpEYwRDELMAkGA1UEBhMC
REUxDzANBgNVBAgMBkhlc3NlbjEUMBIGA1UECgwLcHJpdmFjeWlkZWExDjAMBgNV
BAMMBUNBMDAxggkA+8jrrIPNEgcwEwYDVR0lBAwwCgYIKwYBBQUHAwEwDQYJKoZI
hvcNAQEFBQADggEBAGIaXzLRpFA+pTSh/JHXhqLsKnTyZmIgN28mkHNeYpfq7BpD
4TmuQr8j4RFcmgcdWqoV0jlvr0NNRAByE4AAqXf9dwi7sTc6tqpxykml0zH0gUsC
Bq4khiEJTBEjY1O46QmNGEVbFfXP7pS75QyFPe1muY1W/sgMIdI8RPJK1j0jbFEO
i+Uwr7UTqCSaDqLtttdqIQMxOd4+WfRJGMIGmTdxGnweGAHDYGmd0FuhX8rnT17B
njIoVQvVeOOPNQrkxlM3+nNXJ2SXYYHmWCSsxGfcTSI0Lu8O6A/p2k2/bEVfR5Ho
VDvux9R+fS30EzT8BdWoPEazkFRcrhhUPMUJxDc=
-----END CERTIFICATE-----
