Certificate:
    Data:
        Version: 3 (0x2)
        Serial Number: 268435658 (0x100000ca)
    Signature Algorithm: sha1WithRSAEncryption
        Issuer: C=DE, ST=Hessen, O=privacyidea, CN=CA001
        Validity
            Not Before: Nov 29 18:00:35 2015 GMT
            Not After : Nov 28 18:00:35 2016 GMT
        Subject: CN=selfservice,CN=user,O=realm1/emailAddress=meine
        Subject Public Key Info:
            Public Key Algorithm: rsaEncryption
                Public-Key: (2048 bit)
                Modulus:
                    00:cf:3c:d4:33:0e:12:c4:e6:da:cd:b6:56:a1:1c:
                    26:bb:26:1c:8a:4a:73:a8:58:8a:b6:1e:b3:8b:99:
                    d2:1d:07:c2:92:89:79:c0:69:d8:c8:df:28:61:98:
                    1e:b3:fe:ae:2b:bd:78:a9:f7:6e:47:dc:a3:a0:16:
                    8c:85:02:c1:4e:92:fd:72:6e:f0:c8:03:29:9b:b8:
                    00:6e:c0:83:95:c8:34:20:36:9c:b3:e5:e4:e6:76:
                    73:a3:1a:ad:40:96:e0:53:54:00:ec:76:79:9a:c6:
                    0d:7e:b6:bd:29:ec:83:f3:cb:89:a4:cb:6c:00:ba:
                    0c:c5:78:0f:ff:69:b8:94:f4:04:70:43:3f:d8:9e:
                    d7:a7:fb:5d:ce:75:8e:da:e7:c4:07:b1:9d:de:6f:
                    88:4b:b6:4d:9a:cf:f9:bc:fa:9f:cd:32:6d:f6:3a:
                    0b:0d:23:42:78:ec:97:42:bf:0e:4d:60:56:e1:d3:
                    02:f2:19:cb:84:57:90:e5:70:a1:a2:83:35:86:e2:
                    da:86:9f:f9:8a:c4:79:b3:52:28:da:cb:bb:34:ca:
                    d3:da:91:4a:cf:8d:76:a2:b2:6b:9b:f9:96:fd:09:
                    2a:da:11:23:4d:f0:cb:d6:b2:b1:0e:12:6c:9a:19:
                    65:98:87:ca:e4:ee:24:ce:44:ac:90:8f:9d:1b:c5:
                    2a:9d
                Exponent: 65537 (0x10001)
        X509v3 extensions:
            X509v3 Key Usage: 
                Digital Signature, Key Encipherment
            X509v3 Basic Constraints: 
                CA:FALSE
            Netscape Cert Type: 
                SSL Server
            Netscape Comment: 
                OpenSSL Generated Server Certificate
            X509v3 Subject Key Identifier: 
                4D:07:90:AD:FF:1D:0D:E7:1A:DD:D6:2E:FA:BA:34:CB:AA:1F:24:C6
            X509v3 Authority Key Identifier: 
                keyid:F4:A7:C0:CC:91:46:AF:64:F3:91:F2:27:F8:C8:B2:6F:8A:87:32:73
                DirName:/C=DE/ST=Hessen/O=privacyidea/CN=CA001
                serial:FB:C8:EB:AC:83:CD:12:07

            X509v3 Extended Key Usage: 
                TLS Web Server Authentication
    Signature Algorithm: sha1WithRSAEncryption
         b4:27:dc:57:66:6f:40:52:25:d1:3d:a1:b8:13:b7:cf:10:3d:
         ae:c8:12:32:72:71:6c:80:05:2b:3e:87:ab:47:2c:01:94:1c:
         87:1c:60:e4:1c:2e:13:9f:9f:2d:7a:0a:6d:2d:99:78:64:df:
         65:c9:e5:be:3e:3a:67:65:d4:81:b1:96:c2:99:fe:1b:d9:0a:
         96:ac:cd:85:cb:76:d9:81:1d:fd:a1:6a:52:61:08:d0:55:4a:
         3d:ee:ab:8b:4c:a4:f8:37:16:b6:9b:c0:3f:9a:dd:64:bb:c0:
         c9:b9:61:d9:c4:07:28:20:60:25:57:05:6b:00:4a:ff:42:9b:
         33:65:6c:1e:d6:df:be:d1:cc:65:ca:37:d6:30:cf:cb:22:cf:
         31:f0:39:f8:d2:70:1c:5e:31:57:b1:ec:d2:97:40:d9:37:23:
         0d:4c:cd:64:9b:be:da:80:a3:d2:e9:ee:23:bc:04:5f:49:cb:
         24:1f:5c:42:7d:c9:06:30:5b:03:37:9b:87:bd:fa:06:2b:6d:
         46:0a:35:f5:4e:8f:f7:1c:1e:16:f4:ca:ea:31:4c:88:f4:56:
         ee:cd:4d:e6:92:f8:c9:79:71:58:b5:32:1d:8f:2c:28:49:7b:
         94:29:6e:d3:cc:9b:d4:7e:7c:5f:28:d8:8d:c0:f8:47:b7:45:
         ed:ed:66:67
-----BEGIN CERTIFICATE-----
MIIEDzCCAvegAwIBAgIEEAAAyjANBgkqhkiG9w0BAQUFADBEMQswCQYDVQQGEwJE
RTEPMA0GA1UECAwGSGVzc2VuMRQwEgYDVQQKDAtwcml2YWN5aWRlYTEOMAwGA1UE
AwwFQ0EwMDEwHhcNMTUxMTI5MTgwMDM1WhcNMTYxMTI4MTgwMDM1WjA9MSUwIwYD
VQQDExxzZWxmc2VydmljZSxDTj11c2VyLE89cmVhbG0xMRQwEgYJKoZIhvcNAQkB
FgVtZWluZTCCASIwDQYJKoZIhvcNAQEBBQADggEPADCCAQoCggEBAM881DMOEsTm
2s22VqEcJrsmHIpKc6hYirYes4uZ0h0HwpKJecBp2MjfKGGYHrP+riu9eKn3bkfc
o6AWjIUCwU6S/XJu8MgDKZu4AG7Ag5XINCA2nLPl5OZ2c6MarUCW4FNUAOx2eZrG
DX62vSnsg/PLiaTLbAC6DMV4D/9puJT0BHBDP9ie16f7Xc51jtrnxAexnd5viEu2
TZrP+bz6n80ybfY6Cw0jQnjsl0K/Dk1gVuHTAvIZy4RXkOVwoaKDNYbi2oaf+YrE
ebNSKNrLuzTK09qRSs+NdqKya5v5lv0JKtoRI03wy9aysQ4SbJoZZZiHyuTuJM5E
rJCPnRvFKp0CAwEAAaOCAQ4wggEKMAsGA1UdDwQEAwIFoDAJBgNVHRMEAjAAMBEG
CWCGSAGG+EIBAQQEAwIGQDAzBglghkgBhvhCAQ0EJhYkT3BlblNTTCBHZW5lcmF0
ZWQgU2VydmVyIENlcnRpZmljYXRlMB0GA1UdDgQWBBRNB5Ct/x0N5xrd1i76ujTL
qh8kxjB0BgNVHSMEbTBrgBT0p8DMkUavZPOR8if4yLJviocyc6FIpEYwRDELMAkG
A1UEBhMCREUxDzANBgNVBAgMBkhlc3NlbjEUMBIGA1UECgwLcHJpdmFjeWlkZWEx
DjAMBgNVBAMMBUNBMDAxggkA+8jrrIPNEgcwEwYDVR0lBAwwCgYIKwYBBQUHAwEw
DQYJKoZIhvcNAQEFBQADggEBALQn3Fdmb0BSJdE9obgTt88QPa7IEjJycWyABSs+
h6tHLAGUHIccYOQcLhOfny16Cm0tmXhk32XJ5b4+Omdl1IGxlsKZ/hvZCpaszYXL
dtmBHf2halJhCNBVSj3uq4tMpPg3FrabwD+a3WS7wMm5YdnEByggYCVXBWsASv9C
mzNlbB7W377RzGXKN9Ywz8sizzHwOfjScBxeMVex7NKXQNk3Iw1MzWSbvtqAo9Lp
7iO8BF9JyyQfXEJ9yQYwWwM3m4e9+gYrbUYKNfVOj/ccHhb0yuoxTIj0Vu7NTeaS
+Ml5cVi1Mh2PLChJe5QpbtPMm9R+fF8o2I3A+Ee3Re3tZmc=
-----END CERTIFICATE-----
