Certificate:
    Data:
        Version: 3 (0x2)
        Serial Number: 268435647 (0x100000bf)
    Signature Algorithm: sha1WithRSAEncryption
        Issuer: C=DE, ST=Hessen, O=privacyidea, CN=CA001
        Validity
            Not Before: Dec  4 16:22:30 2015 GMT
            Not After : Dec  3 16:22:30 2016 GMT
        Subject: CN=Steve Test/emailAddress=steve@openssl.org
        Subject Public Key Info:
            Public Key Algorithm: rsaEncryption
                Public-Key: (2048 bit)
                Modulus:
                    00:d2:81:89:20:51:48:0f:73:f4:11:32:24:d5:1f:
                    1c:fd:5c:f5:b6:e6:c5:f0:52:81:dc:d2:af:66:4a:
                    7c:93:31:61:5c:af:d1:6d:06:70:03:60:7c:72:0c:
                    88:dd:49:cd:9e:02:6c:d2:5a:d7:53:0f:f3:da:be:
                    69:64:b5:0f:0c:00:e3:b3:50:47:a3:b3:9b:ba:13:
                    50:d6:58:5a:4b:ab:39:e0:11:ca:0a:27:67:03:78:
                    22:66:6d:92:1e:1b:5c:49:ae:e6:6b:d1:8e:3b:9d:
                    06:d3:c6:ac:4d:53:43:10:ab:e8:96:c1:87:82:97:
                    99:8f:20:d3:99:12:37:31:84:e1:8a:ff:29:03:5f:
                    22:90:3e:7f:9b:e0:20:c1:ad:dc:ae:4c:39:1a:31:
                    96:17:02:8c:b2:d9:b4:0d:20:12:9b:7d:86:54:fd:
                    33:fd:c1:2a:62:46:f8:60:96:cf:6e:01:6f:22:df:
                    13:47:e7:97:ec:05:72:23:a3:62:f8:fa:ef:ac:9c:
                    72:f0:37:cb:2f:37:cf:90:a8:27:51:86:c6:d7:78:
                    08:8f:7e:25:a2:15:70:a2:fb:1c:b6:15:5e:a0:97:
                    8b:81:4c:09:28:8a:27:3b:94:bc:71:db:5b:71:37:
                    9a:2b:16:e0:6f:b5:c9:f5:4b:4f:20:ba:65:cf:af:
                    ad:ad
                Exponent: 65537 (0x10001)
        X509v3 extensions:
            X509v3 Key Usage: 
                Digital Signature, Key Encipherment
            X509v3 Basic Constraints: 
                CA:FALSE
            Netscape Cert Type: 
                SSL Server
            Netscape Comment: 
                OpenSSL Generated Server Certificate
            X509v3 Subject Key Identifier: 
                E5:25:6D:3E:AF:0D:DD:3F:4C:F2:45:19:39:D5:14:DB:7E:9C:C0:AD
            X509v3 Authority Key Identifier: 
                keyid:F4:A7:C0:CC:91:46:AF:64:F3:91:F2:27:F8:C8:B2:6F:8A:87:32:73
                DirName:/C=DE/ST=Hessen/O=privacyidea/CN=CA001
                serial:FB:C8:EB:AC:83:CD:12:07

            X509v3 Extended Key Usage: 
                TLS Web Server Authentication
    Signature Algorithm: sha1WithRSAEncryption
         3d:bc:6a:dd:ea:b7:83:5c:04:5e:87:54:9d:c1:48:58:1d:e0:
         82:1f:97:a1:35:40:a1:c1:fb:97:82:0e:81:25:fd:56:05:dd:
         e0:2f:e3:45:21:2b:2d:49:a0:97:e2:93:2d:2a:eb:6b:da:35:
         98:8a:5b:d4:a5:23:e1:51:3e:f1:df:2e:8f:0d:67:89:1f:bf:
         56:4f:a9:3f:86:75:d3:ae:23:ba:ce:37:b5:c2:30:4e:e2:51:
         7f:9f:27:41:7f:cc:d2:32:65:63:95:6e:6a:d1:99:d4:08:19:
         b0:db:ca:a6:03:2c:7a:c9:c1:24:ed:21:94:db:6c:30:12:9d:
         6f:99:32:80:57:4e:7d:38:85:68:e7:65:bd:1b:a8:ad:31:29:
         0a:c9:f4:75:95:e7:53:d7:11:3d:81:a8:f6:cb:18:29:40:a4:
         ef:b6:a3:5d:58:ec:e7:ae:78:e3:c9:d9:63:b8:d2:bc:a1:32:
         9e:d4:e0:3f:42:98:5a:a7:03:6b:7f:ab:8a:de:df:ee:a6:48:
         90:1e:09:e3:30:6c:29:ba:dd:fb:b5:dd:51:3b:47:8d:36:56:
         ce:c2:49:7c:cc:70:fa:4d:d7:a3:39:23:9b:b1:8c:54:e6:d3:
         52:3d:d9:f6:53:c5:ea:b7:0f:51:1d:7d:c3:fb:5f:bd:c9:98:
         20:5a:b7:1b
-----BEGIN CERTIFICATE-----
MIIECTCCAvGgAwIBAgIEEAAAvzANBgkqhkiG9w0BAQUFADBEMQswCQYDVQQGEwJE
RTEPMA0GA1UECAwGSGVzc2VuMRQwEgYDVQQKDAtwcml2YWN5aWRlYTEOMAwGA1UE
AwwFQ0EwMDEwHhcNMTUxMjA0MTYyMjMwWhcNMTYxMjAzMTYyMjMwWjA3MRMwEQYD
VQQDEwpTdGV2ZSBUZXN0MSAwHgYJKoZIhvcNAQkBFhFzdGV2ZUBvcGVuc3NsLm9y
ZzCCASIwDQYJKoZIhvcNAQEBBQADggEPADCCAQoCggEBANKBiSBRSA9z9BEyJNUf
HP1c9bbmxfBSgdzSr2ZKfJMxYVyv0W0GcANgfHIMiN1JzZ4CbNJa11MP89q+aWS1
DwwA47NQR6Ozm7oTUNZYWkurOeARygonZwN4ImZtkh4bXEmu5mvRjjudBtPGrE1T
QxCr6JbBh4KXmY8g05kSNzGE4Yr/KQNfIpA+f5vgIMGt3K5MORoxlhcCjLLZtA0g
Ept9hlT9M/3BKmJG+GCWz24BbyLfE0fnl+wFciOjYvj676yccvA3yy83z5CoJ1GG
xtd4CI9+JaIVcKL7HLYVXqCXi4FMCSiKJzuUvHHbW3E3misW4G+1yfVLTyC6Zc+v
ra0CAwEAAaOCAQ4wggEKMAsGA1UdDwQEAwIFoDAJBgNVHRMEAjAAMBEGCWCGSAGG
+EIBAQQEAwIGQDAzBglghkgBhvhCAQ0EJhYkT3BlblNTTCBHZW5lcmF0ZWQgU2Vy
dmVyIENlcnRpZmljYXRlMB0GA1UdDgQWBBTlJW0+rw3dP0zyRRk51RTbfpzArTB0
BgNVHSMEbTBrgBT0p8DMkUavZPOR8if4yLJviocyc6FIpEYwRDELMAkGA1UEBhMC
REUxDzANBgNVBAgMBkhlc3NlbjEUMBIGA1UECgwLcHJpdmFjeWlkZWExDjAMBgNV
BAMMBUNBMDAxggkA+8jrrIPNEgcwEwYDVR0lBAwwCgYIKwYBBQUHAwEwDQYJKoZI
hvcNAQEFBQADggEBAD28at3qt4NcBF6HVJ3BSFgd4IIfl6E1QKHB+5eCDoEl/VYF
3eAv40UhKy1JoJfiky0q62vaNZiKW9SlI+FRPvHfLo8NZ4kfv1ZPqT+GddOuI7rO
N7XCME7iUX+fJ0F/zNIyZWOVbmrRmdQIGbDbyqYDLHrJwSTtIZTbbDASnW+ZMoBX
Tn04hWjnZb0bqK0xKQrJ9HWV51PXET2BqPbLGClApO+2o11Y7OeueOPJ2WO40ryh
Mp7U4D9CmFqnA2t/q4re3+6mSJAeCeMwbCm63fu13VE7R402Vs7CSXzMcPpN16M5
I5uxjFTm01I92fZTxeq3D1EdfcP7X73JmCBatxs=
-----END CERTIFICATE-----
