Certificate:
    Data:
        Version: 3 (0x2)
        Serial Number: 268435661 (0x100000cd)
    Signature Algorithm: sha1WithRSAEncryption
        Issuer: C=DE, ST=Hessen, O=privacyidea, CN=CA001
        Validity
            Not Before: Nov 29 18:06:09 2015 GMT
            Not After : Nov 28 18:06:09 2016 GMT
        Subject: C=DE, ST=Hessen, O=privacyidea, CN=usercert
        Subject Public Key Info:
            Public Key Algorithm: rsaEncryption
                Public-Key: (2048 bit)
                Modulus:
                    00:dc:2f:d1:5f:29:97:d4:7c:c3:53:c8:30:bd:4b:
                    67:70:2c:24:6b:b8:5e:eb:21:7a:48:12:56:7c:81:
                    5c:48:75:b6:68:eb:f6:f2:98:4e:50:51:d1:7f:6c:
                    73:f3:0a:a7:ae:be:48:5e:e5:d6:e1:d9:2a:7c:32:
                    6e:4e:fd:08:f6:5a:54:49:23:73:c3:b9:07:18:d1:
                    ef:b3:ac:f8:8a:dc:94:96:a4:90:3a:8e:74:df:e6:
                    0d:37:1b:bd:5b:b7:25:1a:56:39:da:6f:91:aa:5e:
                    1c:74:f3:f9:7c:14:01:83:12:65:76:c7:bb:fe:36:
                    5b:95:e9:72:65:83:ed:3e:98:30:71:fa:87:dd:a3:
                    36:5a:30:03:2e:26:e0:61:d1:bf:02:3f:b6:06:1f:
                    4a:89:28:1c:5c:a2:ff:4e:be:94:e6:8c:e0:da:82:
                    f1:9d:29:32:48:30:73:b4:04:f6:42:1e:be:f7:e2:
                    32:32:27:3c:9d:89:2f:70:3e:85:9a:6f:5c:c5:09:
                    c0:8c:32:2f:72:22:c9:d2:95:1f:b6:ac:72:60:72:
                    b7:82:4d:6b:ce:5b:e3:00:d0:d2:2f:58:c6:e0:10:
                    e5:51:ca:4d:3b:2e:e6:7e:ab:84:d6:56:f1:93:35:
                    a0:93:64:26:81:75:2f:91:b5:16:06:38:0b:db:cc:
                    2d:07
                Exponent: 65537 (0x10001)
        X509v3 extensions:
            X509v3 Key Usage: 
                Digital Signature, Key Encipherment
            X509v3 Basic Constraints: 
                CA:FALSE
            Netscape Cert Type: 
                SSL Server
            Netscape Comment: 
                OpenSSL Generated Server Certificate
            X509v3 Subject Key Identifier: 
                FC:14:D1:F0:4B:8D:00:90:F2:F5:B8:71:9E:4E:97:C3:92:54:AD:0B
            X509v3 Authority Key Identifier: 
                keyid:F4:A7:C0:CC:91:46:AF:64:F3:91:F2:27:F8:C8:B2:6F:8A:87:32:73
                DirName:/C=DE/ST=Hessen/O=privacyidea/CN=CA001
                serial:FB:C8:EB:AC:83:CD:12:07

            X509v3 Extended Key Usage: 
                TLS Web Server Authentication
    Signature Algorithm: sha1WithRSAEncryption
         46:28:1c:30:1d:bd:dd:ec:3a:b8:f9:e2:c4:7f:dc:4e:4a:35:
         1f:dc:8c:7b:f2:c0:67:69:5b:da:49:f1:de:cf:88:b9:40:b0:
         bc:22:26:31:c8:e7:f0:5e:f9:da:c4:b1:5c:b1:c2:fd:c0:2f:
         50:fb:fd:ad:88:21:03:69:b9:8f:9d:fc:ee:19:88:22:16:05:
         a9:94:3a:71:2b:a4:1a:74:46:79:27:c5:43:36:d0:0f:e0:0f:
         5c:d8:13:61:c1:71:f0:a9:d8:1f:63:27:d0:5a:de:7b:b1:36:
         f5:b4:0a:44:fa:5b:af:d8:1a:bd:44:96:d8:04:69:d1:08:c3:
         3f:df:b0:3b:bd:77:e8:c2:10:c5:75:6c:86:77:09:a2:ca:f2:
         61:43:6a:4e:d2:29:ce:c9:ac:4a:24:74:52:23:69:11:4e:9b:
         77:be:b3:0b:02:7d:02:15:9a:13:2d:be:a6:87:0e:d4:1f:27:
         a7:cc:c6:65:c7:61:e7:e4:2f:2d:1d:14:eb:75:f2:63:c1:d5:
         f1:df:5b:ee:97:05:4d:a0:d9:68:81:75:a8:4e:ff:d2:24:21:
         30:87:b4:5c:3a:70:33:93:9c:38:7a:ef:99:3b:0e:06:77:7c:
         d3:21:3b:51:73:b6:93:99:fe:3a:62:28:9f:33:c2:0b:80:c6:
         8d:b2:1d:a0
-----BEGIN CERTIFICATE-----
MIIEGTCCAwGgAwIBAgIEEAAAzTANBgkqhkiG9w0BAQUFADBEMQswCQYDVQQGEwJE
RTEPMA0GA1UECAwGSGVzc2VuMRQwEgYDVQQKDAtwcml2YWN5aWRlYTEOMAwGA1UE
AwwFQ0EwMDEwHhcNMTUxMTI5MTgwNjA5WhcNMTYxMTI4MTgwNjA5WjBHMQswCQYD
VQQGEwJERTEPMA0GA1UECAwGSGVzc2VuMRQwEgYDVQQKDAtwcml2YWN5aWRlYTER
MA8GA1UEAwwIdXNlcmNlcnQwggEiMA0GCSqGSIb3DQEBAQUAA4IBDwAwggEKAoIB
AQDcL9FfKZfUfMNTyDC9S2dwLCRruF7rIXpIElZ8gVxIdbZo6/bymE5QUdF/bHPz
Cqeuvkhe5dbh2Sp8Mm5O/Qj2WlRJI3PDuQcY0e+zrPiK3JSWpJA6jnTf5g03G71b
tyUaVjnab5GqXhx08/l8FAGDEmV2x7v+NluV6XJlg+0+mDBx+ofdozZaMAMuJuBh
0b8CP7YGH0qJKBxcov9OvpTmjODagvGdKTJIMHO0BPZCHr734jIyJzydiS9wPoWa
b1zFCcCMMi9yIsnSlR+2rHJgcreCTWvOW+MA0NIvWMbgEOVRyk07LuZ+q4TWVvGT
NaCTZCaBdS+RtRYGOAvbzC0HAgMBAAGjggEOMIIBCjALBgNVHQ8EBAMCBaAwCQYD
VR0TBAIwADARBglghkgBhvhCAQEEBAMCBkAwMwYJYIZIAYb4QgENBCYWJE9wZW5T
U0wgR2VuZXJhdGVkIFNlcnZlciBDZXJ0aWZpY2F0ZTAdBgNVHQ4EFgQU/BTR8EuN
AJDy9bhxnk6Xw5JUrQswdAYDVR0jBG0wa4AU9KfAzJFGr2TzkfIn+Miyb4qHMnOh
SKRGMEQxCzAJBgNVBAYTAkRFMQ8wDQYDVQQIDAZIZXNzZW4xFDASBgNVBAoMC3By
aXZhY3lpZGVhMQ4wDAYDVQQDDAVDQTAwMYIJAPvI66yDzRIHMBMGA1UdJQQMMAoG
CCsGAQUFBwMBMA0GCSqGSIb3DQEBBQUAA4IBAQBGKBwwHb3d7Dq4+eLEf9xOSjUf
3Ix78sBnaVvaSfHez4i5QLC8IiYxyOfwXvnaxLFcscL9wC9Q+/2tiCEDabmPnfzu
GYgiFgWplDpxK6QadEZ5J8VDNtAP4A9c2BNhwXHwqdgfYyfQWt57sTb1tApE+luv
2Bq9RJbYBGnRCMM/37A7vXfowhDFdWyGdwmiyvJhQ2pO0inOyaxKJHRSI2kRTpt3
vrMLAn0CFZoTLb6mhw7UHyenzMZlx2Hn5C8tHRTrdfJjwdXx31vulwVNoNlogXWo
Tv/SJCEwh7RcOnAzk5w4eu+ZOw4Gd3zTITtRc7aTmf46YiifM8ILgMaNsh2g
-----END CERTIFICATE-----
