Certificate:
    Data:
        Version: 3 (0x2)
        Serial Number: 268435654 (0x100000c6)
    Signature Algorithm: sha1WithRSAEncryption
        Issuer: C=DE, ST=Hessen, O=privacyidea, CN=CA001
        Validity
            Not Before: Dec  1 17:45:48 2015 GMT
            Not After : Nov 30 17:45:48 2016 GMT
        Subject: C=DE, ST=Hessen, O=privacyidea, CN=requester.localdomain
        Subject Public Key Info:
            Public Key Algorithm: rsaEncryption
                Public-Key: (2048 bit)
                Modulus:
                    00:cd:be:14:4f:fa:ce:01:3f:42:22:1b:1d:9c:af:
                    dd:92:d2:7f:db:6c:b7:3e:39:43:43:6b:13:03:f1:
                    05:f4:07:74:bc:76:69:28:0b:af:19:8e:d7:fc:e3:
                    cd:c6:58:f2:ca:7f:08:6d:53:fc:07:02:44:24:c6:
                    b4:34:4c:8c:04:fe:33:0e:40:e2:20:ba:02:73:5a:
                    f7:f5:4f:63:6e:cc:c6:b6:df:54:1d:37:39:7d:51:
                    36:26:5f:bd:dc:3f:a8:8b:6b:a2:ae:b6:9d:d6:21:
                    e7:df:41:b8:7a:28:2a:68:48:ca:a8:2d:ed:e1:e9:
                    46:5e:5a:72:6d:b4:84:38:87:91:fd:94:11:0b:28:
                    84:c6:c2:2f:2a:fb:01:f9:36:7a:09:75:d1:33:88:
                    3c:73:41:5b:c8:bf:94:89:70:a1:f0:c0:b9:2e:50:
                    53:1e:b1:17:64:69:f4:2d:81:e0:a9:0d:0e:32:e9:
                    ba:55:8a:85:f1:1b:6f:49:79:b4:7f:88:c3:0d:3e:
                    54:88:9b:3d:1f:38:8c:04:f3:ee:6a:63:2b:f5:c6:
                    db:b4:83:aa:c4:78:41:3a:7d:4b:e1:c8:3e:71:ca:
                    1b:61:59:ea:c6:c4:ca:32:5e:c9:e9:bf:12:29:e6:
                    c6:c3:63:fe:a0:55:da:7a:f1:60:98:4d:26:ed:fa:
                    70:2d
                Exponent: 65537 (0x10001)
        X509v3 extensions:
            X509v3 Key Usage: 
                Digital Signature, Key Encipherment
            X509v3 Basic Constraints: 
                CA:FALSE
            Netscape Cert Type: 
                SSL Server
            Netscape Comment: 
                OpenSSL Generated Server Certificate
            X509v3 Subject Key Identifier: 
                53:3F:ED:5D:09:07:B3:65:7B:AB:45:C9:24:5B:09:77:80:0A:96:ED
            X509v3 Authority Key Identifier: 
                keyid:F4:A7:C0:CC:91:46:AF:64:F3:91:F2:27:F8:C8:B2:6F:8A:87:32:73
                DirName:/C=DE/ST=Hessen/O=privacyidea/CN=CA001
                serial:FB:C8:EB:AC:83:CD:12:07

            X509v3 Extended Key Usage: 
                TLS Web Server Authentication
    Signature Algorithm: sha1WithRSAEncryption
         61:3f:5e:14:63:83:25:cc:7a:b2:c5:23:81:c6:bc:7b:52:ef:
         1d:1b:b7:08:b0:7a:03:04:ea:e3:a4:4f:57:4c:e8:7f:9f:8f:
         27:a6:68:77:b8:3a:0a:1a:1d:2e:3c:4e:af:02:31:86:f0:18:
         72:d9:9f:37:95:ce:80:12:ea:93:aa:a8:e4:97:9f:12:b1:82:
         30:d2:93:7a:e7:a3:80:fd:83:c6:e4:2f:5d:c4:9f:78:73:b7:
         32:f9:7b:d0:43:d0:e7:95:2a:fb:c1:42:93:ce:92:ce:d3:02:
         e8:b0:b8:27:4c:91:53:a5:e1:17:76:83:ce:74:50:6b:b1:18:
         05:67:b7:4b:74:47:35:52:92:4d:04:1f:d4:0b:60:5c:60:44:
         19:a3:cd:94:9b:dd:74:1b:0f:57:15:b5:5e:ac:2f:25:fe:53:
         e1:23:51:1f:70:ec:2c:29:bd:e1:1c:51:9d:64:31:8a:dd:53:
         09:72:0b:68:bc:62:fc:1b:22:b0:08:38:12:39:93:e5:43:0f:
         d1:8d:5c:2b:ec:d1:bd:35:1c:70:be:1b:82:5c:f4:87:4f:f7:
         a6:c7:4d:66:5e:08:b3:21:7f:dd:4d:6d:80:10:53:ff:5a:a5:
         62:07:64:29:a5:c8:f4:3b:3f:1a:cc:61:05:3c:d8:70:24:d3:
         c3:9f:0e:84
-----BEGIN CERTIFICATE-----
MIIEJjCCAw6gAwIBAgIEEAAAxjANBgkqhkiG9w0BAQUFADBEMQswCQYDVQQGEwJE
RTEPMA0GA1UECAwGSGVzc2VuMRQwEgYDVQQKDAtwcml2YWN5aWRlYTEOMAwGA1UE
AwwFQ0EwMDEwHhcNMTUxMjAxMTc0NTQ4WhcNMTYxMTMwMTc0NTQ4WjBUMQswCQYD
VQQGEwJERTEPMA0GA1UECAwGSGVzc2VuMRQwEgYDVQQKDAtwcml2YWN5aWRlYTEe
MBwGA1UEAwwVcmVxdWVzdGVyLmxvY2FsZG9tYWluMIIBIjANBgkqhkiG9w0BAQEF
AAOCAQ8AMIIBCgKCAQEAzb4UT/rOAT9CIhsdnK/dktJ/22y3PjlDQ2sTA/EF9Ad0
vHZpKAuvGY7X/OPNxljyyn8IbVP8BwJEJMa0NEyMBP4zDkDiILoCc1r39U9jbszG
tt9UHTc5fVE2Jl+93D+oi2uirrad1iHn30G4eigqaEjKqC3t4elGXlpybbSEOIeR
/ZQRCyiExsIvKvsB+TZ6CXXRM4g8c0FbyL+UiXCh8MC5LlBTHrEXZGn0LYHgqQ0O
Mum6VYqF8RtvSXm0f4jDDT5UiJs9HziMBPPuamMr9cbbtIOqxHhBOn1L4cg+ccob
YVnqxsTKMl7J6b8SKebGw2P+oFXaevFgmE0m7fpwLQIDAQABo4IBDjCCAQowCwYD
VR0PBAQDAgWgMAkGA1UdEwQCMAAwEQYJYIZIAYb4QgEBBAQDAgZAMDMGCWCGSAGG
+EIBDQQmFiRPcGVuU1NMIEdlbmVyYXRlZCBTZXJ2ZXIgQ2VydGlmaWNhdGUwHQYD
VR0OBBYEFFM/7V0JB7Nle6tFySRbCXeACpbtMHQGA1UdIwRtMGuAFPSnwMyRRq9k
85HyJ/jIsm+KhzJzoUikRjBEMQswCQYDVQQGEwJERTEPMA0GA1UECAwGSGVzc2Vu
MRQwEgYDVQQKDAtwcml2YWN5aWRlYTEOMAwGA1UEAwwFQ0EwMDGCCQD7yOusg80S
BzATBgNVHSUEDDAKBggrBgEFBQcDATANBgkqhkiG9w0BAQUFAAOCAQEAYT9eFGOD
Jcx6ssUjgca8e1LvHRu3CLB6AwTq46RPV0zof5+PJ6Zod7g6ChodLjxOrwIxhvAY
ctmfN5XOgBLqk6qo5JefErGCMNKTeuejgP2DxuQvXcSfeHO3Mvl70EPQ55Uq+8FC
k86SztMC6LC4J0yRU6XhF3aDznRQa7EYBWe3S3RHNVKSTQQf1AtgXGBEGaPNlJvd
dBsPVxW1XqwvJf5T4SNRH3DsLCm94RxRnWQxit1TCXILaLxi/BsisAg4EjmT5UMP
0Y1cK+zRvTUccL4bglz0h0/3psdNZl4IsyF/3U1tgBBT/1qlYgdkKaXI9Ds/Gsxh
BTzYcCTTw58OhA==
-----END CERTIFICATE-----
