Certificate:
    Data:
        Version: 3 (0x2)
        Serial Number: 268435656 (0x100000c8)
    Signature Algorithm: sha1WithRSAEncryption
        Issuer: C=DE, ST=Hessen, O=privacyidea, CN=CA001
        Validity
            Not Before: Nov 29 17:51:14 2015 GMT
            Not After : Nov 28 17:51:14 2016 GMT
        Subject: CN=Steve Test/emailAddress=steve@openssl.org
        Subject Public Key Info:
            Public Key Algorithm: rsaEncryption
                Public-Key: (2048 bit)
                Modulus:
                    00:d2:81:89:20:51:48:0f:73:f4:11:32:24:d5:1f:
                    1c:fd:5c:f5:b6:e6:c5:f0:52:81:dc:d2:af:66:4a:
                    7c:93:31:61:5c:af:d1:6d:06:70:03:60:7c:72:0c:
                    88:dd:49:cd:9e:02:6c:d2:5a:d7:53:0f:f3:da:be:
                    69:64:b5:0f:0c:00:e3:b3:50:47:a3:b3:9b:ba:13:
                    50:d6:58:5a:4b:ab:39:e0:11:ca:0a:27:67:03:78:
                    22:66:6d:92:1e:1b:5c:49:ae:e6:6b:d1:8e:3b:9d:
                    06:d3:c6:ac:4d:53:43:10:ab:e8:96:c1:87:82:97:
                    99:8f:20:d3:99:12:37:31:84:e1:8a:ff:29:03:5f:
                    22:90:3e:7f:9b:e0:20:c1:ad:dc:ae:4c:39:1a:31:
                    96:17:02:8c:b2:d9:b4:0d:20:12:9b:7d:86:54:fd:
                    33:fd:c1:2a:62:46:f8:60:96:cf:6e:01:6f:22:df:
                    13:47:e7:97:ec:05:72:23:a3:62:f8:fa:ef:ac:9c:
                    72:f0:37:cb:2f:37:cf:90:a8:27:51:86:c6:d7:78:
                    08:8f:7e:25:a2:15:70:a2:fb:1c:b6:15:5e:a0:97:
                    8b:81:4c:09:28:8a:27:3b:94:bc:71:db:5b:71:37:
                    9a:2b:16:e0:6f:b5:c9:f5:4b:4f:20:ba:65:cf:af:
                    ad:ad
                Exponent: 65537 (0x10001)
        X509v3 extensions:
            X509v3 Key Usage: 
                Digital Signature, Key Encipherment
            X509v3 Basic Constraints: 
                CA:FALSE
            Netscape Cert Type: 
                SSL Server
            Netscape Comment: 
                OpenSSL Generated Server Certificate
            X509v3 Subject Key Identifier: 
                E5:25:6D:3E:AF:0D:DD:3F:4C:F2:45:19:39:D5:14:DB:7E:9C:C0:AD
            X509v3 Authority Key Identifier: 
                keyid:F4:A7:C0:CC:91:46:AF:64:F3:91:F2:27:F8:C8:B2:6F:8A:87:32:73
                DirName:/C=DE/ST=Hessen/O=privacyidea/CN=CA001
                serial:FB:C8:EB:AC:83:CD:12:07

            X509v3 Extended Key Usage: 
                TLS Web Server Authentication
    Signature Algorithm: sha1WithRSAEncryption
         36:4e:b1:c5:dc:9c:2f:6c:03:2e:3d:0d:1d:af:fa:f2:d0:d5:
         56:d2:3a:fb:f7:1e:5b:01:4b:ae:84:d4:f2:e2:23:fd:51:84:
         e9:04:86:12:02:7c:d4:ae:9e:97:f8:12:ef:c6:67:c8:00:18:
         01:48:74:ec:f1:f7:84:3b:9c:c9:5d:cf:fb:de:e7:1e:16:e9:
         12:b2:86:16:17:f4:9f:f2:8b:91:33:ed:be:0c:9b:9c:34:fa:
         09:82:5f:1c:50:34:66:48:c5:db:7a:99:f0:30:20:c3:83:57:
         99:9a:03:fc:34:12:dc:94:88:dd:da:3e:16:c9:f0:d4:54:43:
         1e:3b:2d:e8:6f:2d:a3:08:b6:39:69:30:5e:d4:4a:aa:28:c4:
         14:ab:00:bb:01:40:fd:41:fe:c0:19:8e:ca:34:67:2f:87:f5:
         d3:55:5a:b9:ed:32:46:04:ef:a0:3e:7b:fa:4c:f8:7b:4a:5c:
         6c:71:dd:91:10:a2:a4:32:a9:f6:a5:65:75:fa:26:71:5a:33:
         d4:ca:eb:7b:70:f9:77:a7:fd:78:c2:da:be:80:7e:fe:f9:9c:
         08:42:40:64:a9:78:88:b3:66:50:eb:b1:b4:48:87:68:46:c0:
         81:9d:f3:e0:d0:3d:91:46:9c:47:f6:e4:5d:b9:a7:38:fc:af:
         3f:c5:e9:4d
-----BEGIN CERTIFICATE-----
MIIECTCCAvGgAwIBAgIEEAAAyDANBgkqhkiG9w0BAQUFADBEMQswCQYDVQQGEwJE
RTEPMA0GA1UECAwGSGVzc2VuMRQwEgYDVQQKDAtwcml2YWN5aWRlYTEOMAwGA1UE
AwwFQ0EwMDEwHhcNMTUxMTI5MTc1MTE0WhcNMTYxMTI4MTc1MTE0WjA3MRMwEQYD
VQQDEwpTdGV2ZSBUZXN0MSAwHgYJKoZIhvcNAQkBFhFzdGV2ZUBvcGVuc3NsLm9y
ZzCCASIwDQYJKoZIhvcNAQEBBQADggEPADCCAQoCggEBANKBiSBRSA9z9BEyJNUf
HP1c9bbmxfBSgdzSr2ZKfJMxYVyv0W0GcANgfHIMiN1JzZ4CbNJa11MP89q+aWS1
DwwA47NQR6Ozm7oTUNZYWkurOeARygonZwN4ImZtkh4bXEmu5mvRjjudBtPGrE1T
QxCr6JbBh4KXmY8g05kSNzGE4Yr/KQNfIpA+f5vgIMGt3K5MORoxlhcCjLLZtA0g
Ept9hlT9M/3BKmJG+GCWz24BbyLfE0fnl+wFciOjYvj676yccvA3yy83z5CoJ1GG
xtd4CI9+JaIVcKL7HLYVXqCXi4FMCSiKJzuUvHHbW3E3misW4G+1yfVLTyC6Zc+v
ra0CAwEAAaOCAQ4wggEKMAsGA1UdDwQEAwIFoDAJBgNVHRMEAjAAMBEGCWCGSAGG
+EIBAQQEAwIGQDAzBglghkgBhvhCAQ0EJhYkT3BlblNTTCBHZW5lcmF0ZWQgU2Vy
dmVyIENlcnRpZmljYXRlMB0GA1UdDgQWBBTlJW0+rw3dP0zyRRk51RTbfpzArTB0
BgNVHSMEbTBrgBT0p8DMkUavZPOR8if4yLJviocyc6FIpEYwRDELMAkGA1UEBhMC
REUxDzANBgNVBAgMBkhlc3NlbjEUMBIGA1UECgwLcHJpdmFjeWlkZWExDjAMBgNV
BAMMBUNBMDAxggkA+8jrrIPNEgcwEwYDVR0lBAwwCgYIKwYBBQUHAwEwDQYJKoZI
hvcNAQEFBQADggEBADZOscXcnC9sAy49DR2v+vLQ1VbSOvv3HlsBS66E1PLiI/1R
hOkEhhICfNSunpf4Eu/GZ8gAGAFIdOzx94Q7nMldz/ve5x4W6RKyhhYX9J/yi5Ez
7b4Mm5w0+gmCXxxQNGZIxdt6mfAwIMODV5maA/w0EtyUiN3aPhbJ8NRUQx47Lehv
LaMItjlpMF7USqooxBSrALsBQP1B/sAZjso0Zy+H9dNVWrntMkYE76A+e/pM+HtK
XGxx3ZEQoqQyqfalZXX6JnFaM9TK63tw+Xen/XjC2r6Afv75nAhCQGSpeIizZlDr
sbRIh2hGwIGd8+DQPZFGnEf25F25pzj8rz/F6U0=
-----END CERTIFICATE-----
