Certificate:
    Data:
        Version: 3 (0x2)
        Serial Number: 268435660 (0x100000cc)
    Signature Algorithm: sha1WithRSAEncryption
        Issuer: C=DE, ST=Hessen, O=privacyidea, CN=CA001
        Validity
            Not Before: Nov 29 18:06:08 2015 GMT
            Not After : Nov 28 18:06:08 2016 GMT
        Subject: C=DE, ST=Hessen, O=privacyidea, CN=requester.localdomain
        Subject Public Key Info:
            Public Key Algorithm: rsaEncryption
                Public-Key: (2048 bit)
                Modulus:
                    00:cd:be:14:4f:fa:ce:01:3f:42:22:1b:1d:9c:af:
                    dd:92:d2:7f:db:6c:b7:3e:39:43:43:6b:13:03:f1:
                    05:f4:07:74:bc:76:69:28:0b:af:19:8e:d7:fc:e3:
                    cd:c6:58:f2:ca:7f:08:6d:53:fc:07:02:44:24:c6:
                    b4:34:4c:8c:04:fe:33:0e:40:e2:20:ba:02:73:5a:
                    f7:f5:4f:63:6e:cc:c6:b6:df:54:1d:37:39:7d:51:
                    36:26:5f:bd:dc:3f:a8:8b:6b:a2:ae:b6:9d:d6:21:
                    e7:df:41:b8:7a:28:2a:68:48:ca:a8:2d:ed:e1:e9:
                    46:5e:5a:72:6d:b4:84:38:87:91:fd:94:11:0b:28:
                    84:c6:c2:2f:2a:fb:01:f9:36:7a:09:75:d1:33:88:
                    3c:73:41:5b:c8:bf:94:89:70:a1:f0:c0:b9:2e:50:
                    53:1e:b1:17:64:69:f4:2d:81:e0:a9:0d:0e:32:e9:
                    ba:55:8a:85:f1:1b:6f:49:79:b4:7f:88:c3:0d:3e:
                    54:88:9b:3d:1f:38:8c:04:f3:ee:6a:63:2b:f5:c6:
                    db:b4:83:aa:c4:78:41:3a:7d:4b:e1:c8:3e:71:ca:
                    1b:61:59:ea:c6:c4:ca:32:5e:c9:e9:bf:12:29:e6:
                    c6:c3:63:fe:a0:55:da:7a:f1:60:98:4d:26:ed:fa:
                    70:2d
                Exponent: 65537 (0x10001)
        X509v3 extensions:
            X509v3 Key Usage: 
                Digital Signature, Key Encipherment
            X509v3 Basic Constraints: 
                CA:FALSE
            Netscape Cert Type: 
                SSL Server
            Netscape Comment: 
                OpenSSL Generated Server Certificate
            X509v3 Subject Key Identifier: 
                53:3F:ED:5D:09:07:B3:65:7B:AB:45:C9:24:5B:09:77:80:0A:96:ED
            X509v3 Authority Key Identifier: 
                keyid:F4:A7:C0:CC:91:46:AF:64:F3:91:F2:27:F8:C8:B2:6F:8A:87:32:73
                DirName:/C=DE/ST=Hessen/O=privacyidea/CN=CA001
                serial:FB:C8:EB:AC:83:CD:12:07

            X509v3 Extended Key Usage: 
                TLS Web Server Authentication
    Signature Algorithm: sha1WithRSAEncryption
         8b:80:b3:a1:c5:96:02:07:20:b6:e2:08:81:7d:b8:2d:c7:2f:
         a0:29:dd:4d:ea:80:79:2d:25:40:ff:96:b3:9e:a1:cc:11:65:
         32:1e:2c:70:e2:52:25:fe:75:55:ab:56:6b:65:64:d0:d0:e8:
         a5:8d:ef:0e:5b:51:a6:8e:5a:2b:6b:d8:22:45:ea:52:1a:05:
         dc:7a:17:98:14:b2:5e:1c:43:96:05:3a:fb:17:c6:87:03:a6:
         af:c5:61:a9:47:e9:11:ab:30:f8:b6:fe:9a:1a:56:0f:ec:e7:
         f7:1f:93:67:a1:a2:0b:6c:86:0b:f1:68:ee:b9:26:ca:30:c8:
         ed:80:b1:76:94:27:1b:ed:e6:0d:57:72:9f:8f:09:f1:ec:85:
         19:24:32:f9:0e:80:ff:59:8d:a1:ce:8b:2b:d8:69:13:39:ac:
         ae:db:e4:2a:5a:07:f4:b0:a5:29:33:a1:62:dc:68:f4:f7:bb:
         d7:de:a8:54:3d:c7:3e:7c:e6:81:01:5d:b0:62:5f:65:06:ce:
         bf:db:0b:77:c5:28:a6:6e:47:7e:07:3d:ff:75:b8:ef:77:99:
         46:48:5e:52:40:0b:da:ae:9f:45:f5:dd:cd:3b:d6:fe:63:0a:
         f2:67:91:52:1a:c4:67:8a:26:02:c6:96:1c:ef:f2:c9:9a:97:
         c5:b7:51:36
-----BEGIN CERTIFICATE-----
MIIEJjCCAw6gAwIBAgIEEAAAzDANBgkqhkiG9w0BAQUFADBEMQswCQYDVQQGEwJE
RTEPMA0GA1UECAwGSGVzc2VuMRQwEgYDVQQKDAtwcml2YWN5aWRlYTEOMAwGA1UE
AwwFQ0EwMDEwHhcNMTUxMTI5MTgwNjA4WhcNMTYxMTI4MTgwNjA4WjBUMQswCQYD
VQQGEwJERTEPMA0GA1UECAwGSGVzc2VuMRQwEgYDVQQKDAtwcml2YWN5aWRlYTEe
MBwGA1UEAwwVcmVxdWVzdGVyLmxvY2FsZG9tYWluMIIBIjANBgkqhkiG9w0BAQEF
AAOCAQ8AMIIBCgKCAQEAzb4UT/rOAT9CIhsdnK/dktJ/22y3PjlDQ2sTA/EF9Ad0
vHZpKAuvGY7X/OPNxljyyn8IbVP8BwJEJMa0NEyMBP4zDkDiILoCc1r39U9jbszG
tt9UHTc5fVE2Jl+93D+oi2uirrad1iHn30G4eigqaEjKqC3t4elGXlpybbSEOIeR
/ZQRCyiExsIvKvsB+TZ6CXXRM4g8c0FbyL+UiXCh8MC5LlBTHrEXZGn0LYHgqQ0O
Mum6VYqF8RtvSXm0f4jDDT5UiJs9HziMBPPuamMr9cbbtIOqxHhBOn1L4cg+ccob
YVnqxsTKMl7J6b8SKebGw2P+oFXaevFgmE0m7fpwLQIDAQABo4IBDjCCAQowCwYD
VR0PBAQDAgWgMAkGA1UdEwQCMAAwEQYJYIZIAYb4QgEBBAQDAgZAMDMGCWCGSAGG
+EIBDQQmFiRPcGVuU1NMIEdlbmVyYXRlZCBTZXJ2ZXIgQ2VydGlmaWNhdGUwHQYD
VR0OBBYEFFM/7V0JB7Nle6tFySRbCXeACpbtMHQGA1UdIwRtMGuAFPSnwMyRRq9k
85HyJ/jIsm+KhzJzoUikRjBEMQswCQYDVQQGEwJERTEPMA0GA1UECAwGSGVzc2Vu
MRQwEgYDVQQKDAtwcml2YWN5aWRlYTEOMAwGA1UEAwwFQ0EwMDGCCQD7yOusg80S
BzATBgNVHSUEDDAKBggrBgEFBQcDATANBgkqhkiG9w0BAQUFAAOCAQEAi4CzocWW
AgcgtuIIgX24LccvoCndTeqAeS0lQP+Ws56hzBFlMh4scOJSJf51VatWa2Vk0NDo
pY3vDltRpo5aK2vYIkXqUhoF3HoXmBSyXhxDlgU6+xfGhwOmr8VhqUfpEasw+Lb+
mhpWD+zn9x+TZ6GiC2yGC/Fo7rkmyjDI7YCxdpQnG+3mDVdyn48J8eyFGSQy+Q6A
/1mNoc6LK9hpEzmsrtvkKloH9LClKTOhYtxo9Pe7196oVD3HPnzmgQFdsGJfZQbO
v9sLd8Uopm5Hfgc9/3W473eZRkheUkAL2q6fRfXdzTvW/mMK8meRUhrEZ4omAsaW
HO/yyZqXxbdRNg==
-----END CERTIFICATE-----
