Certificate:
    Data:
        Version: 3 (0x2)
        Serial Number: 268435649 (0x100000c1)
    Signature Algorithm: sha1WithRSAEncryption
        Issuer: C=DE, ST=Hessen, O=privacyidea, CN=CA001
        Validity
            Not Before: Dec  4 16:32:14 2015 GMT
            Not After : Dec  3 16:32:14 2016 GMT
        Subject: CN=selfservice,CN=user,O=realm1/emailAddress=meine
        Subject Public Key Info:
            Public Key Algorithm: rsaEncryption
                Public-Key: (2048 bit)
                Modulus:
                    00:cf:3c:d4:33:0e:12:c4:e6:da:cd:b6:56:a1:1c:
                    26:bb:26:1c:8a:4a:73:a8:58:8a:b6:1e:b3:8b:99:
                    d2:1d:07:c2:92:89:79:c0:69:d8:c8:df:28:61:98:
                    1e:b3:fe:ae:2b:bd:78:a9:f7:6e:47:dc:a3:a0:16:
                    8c:85:02:c1:4e:92:fd:72:6e:f0:c8:03:29:9b:b8:
                    00:6e:c0:83:95:c8:34:20:36:9c:b3:e5:e4:e6:76:
                    73:a3:1a:ad:40:96:e0:53:54:00:ec:76:79:9a:c6:
                    0d:7e:b6:bd:29:ec:83:f3:cb:89:a4:cb:6c:00:ba:
                    0c:c5:78:0f:ff:69:b8:94:f4:04:70:43:3f:d8:9e:
                    d7:a7:fb:5d:ce:75:8e:da:e7:c4:07:b1:9d:de:6f:
                    88:4b:b6:4d:9a:cf:f9:bc:fa:9f:cd:32:6d:f6:3a:
                    0b:0d:23:42:78:ec:97:42:bf:0e:4d:60:56:e1:d3:
                    02:f2:19:cb:84:57:90:e5:70:a1:a2:83:35:86:e2:
                    da:86:9f:f9:8a:c4:79:b3:52:28:da:cb:bb:34:ca:
                    d3:da:91:4a:cf:8d:76:a2:b2:6b:9b:f9:96:fd:09:
                    2a:da:11:23:4d:f0:cb:d6:b2:b1:0e:12:6c:9a:19:
                    65:98:87:ca:e4:ee:24:ce:44:ac:90:8f:9d:1b:c5:
                    2a:9d
                Exponent: 65537 (0x10001)
        X509v3 extensions:
            X509v3 Key Usage: 
                Digital Signature, Key Encipherment
            X509v3 Basic Constraints: 
                CA:FALSE
            Netscape Cert Type: 
                SSL Server
            Netscape Comment: 
                OpenSSL Generated Server Certificate
            X509v3 Subject Key Identifier: 
                4D:07:90:AD:FF:1D:0D:E7:1A:DD:D6:2E:FA:BA:34:CB:AA:1F:24:C6
            X509v3 Authority Key Identifier: 
                keyid:F4:A7:C0:CC:91:46:AF:64:F3:91:F2:27:F8:C8:B2:6F:8A:87:32:73
                DirName:/C=DE/ST=Hessen/O=privacyidea/CN=CA001
                serial:FB:C8:EB:AC:83:CD:12:07

            X509v3 Extended Key Usage: 
                TLS Web Server Authentication
    Signature Algorithm: sha1WithRSAEncryption
         26:82:80:f2:a2:b9:29:57:5d:b0:35:12:6d:6d:b7:61:13:6b:
         d6:ef:9a:1b:35:7c:53:1f:87:9c:a2:34:5d:f4:2e:6b:47:fd:
         b1:70:27:bd:66:da:f3:44:4c:57:8f:f4:fe:ed:42:26:7e:da:
         97:53:d8:dc:9a:12:c4:dd:55:8d:72:ae:99:76:84:5b:38:fc:
         67:ec:e1:a7:75:19:a5:e8:f0:6d:c0:86:03:ed:8c:13:08:33:
         5a:d6:e7:6c:9b:f0:d5:73:0a:52:4a:de:a0:8e:b1:67:93:95:
         11:b1:65:9e:60:79:26:f3:31:89:1c:85:81:94:27:3a:7c:1b:
         e6:4e:77:f6:9d:67:4b:f7:80:c5:d7:8e:87:6e:61:41:1a:7b:
         08:25:c1:69:b9:5b:cd:c1:1c:22:96:c1:fb:30:c8:28:1a:1e:
         a9:c7:ee:f0:3b:b2:38:b1:3f:71:c0:d8:8d:ba:8b:2c:bb:3a:
         b3:50:18:11:a3:07:2f:cf:b6:2b:65:a8:d0:d1:a5:ca:76:e3:
         11:23:37:ca:28:ee:af:e6:11:78:c9:e6:87:ab:97:26:c2:d9:
         35:0c:4f:fe:e1:47:db:da:41:a8:4a:34:ca:e1:fb:85:e2:62:
         5a:83:f3:b2:5b:29:2a:72:f5:0e:d1:12:af:b3:fc:23:8c:5c:
         47:6c:5d:b1
-----BEGIN CERTIFICATE-----
MIIEDzCCAvegAwIBAgIEEAAAwTANBgkqhkiG9w0BAQUFADBEMQswCQYDVQQGEwJE
RTEPMA0GA1UECAwGSGVzc2VuMRQwEgYDVQQKDAtwcml2YWN5aWRlYTEOMAwGA1UE
AwwFQ0EwMDEwHhcNMTUxMjA0MTYzMjE0WhcNMTYxMjAzMTYzMjE0WjA9MSUwIwYD
VQQDExxzZWxmc2VydmljZSxDTj11c2VyLE89cmVhbG0xMRQwEgYJKoZIhvcNAQkB
FgVtZWluZTCCASIwDQYJKoZIhvcNAQEBBQADggEPADCCAQoCggEBAM881DMOEsTm
2s22VqEcJrsmHIpKc6hYirYes4uZ0h0HwpKJecBp2MjfKGGYHrP+riu9eKn3bkfc
o6AWjIUCwU6S/XJu8MgDKZu4AG7Ag5XINCA2nLPl5OZ2c6MarUCW4FNUAOx2eZrG
DX62vSnsg/PLiaTLbAC6DMV4D/9puJT0BHBDP9ie16f7Xc51jtrnxAexnd5viEu2
TZrP+bz6n80ybfY6Cw0jQnjsl0K/Dk1gVuHTAvIZy4RXkOVwoaKDNYbi2oaf+YrE
ebNSKNrLuzTK09qRSs+NdqKya5v5lv0JKtoRI03wy9aysQ4SbJoZZZiHyuTuJM5E
rJCPnRvFKp0CAwEAAaOCAQ4wggEKMAsGA1UdDwQEAwIFoDAJBgNVHRMEAjAAMBEG
CWCGSAGG+EIBAQQEAwIGQDAzBglghkgBhvhCAQ0EJhYkT3BlblNTTCBHZW5lcmF0
ZWQgU2VydmVyIENlcnRpZmljYXRlMB0GA1UdDgQWBBRNB5Ct/x0N5xrd1i76ujTL
qh8kxjB0BgNVHSMEbTBrgBT0p8DMkUavZPOR8if4yLJviocyc6FIpEYwRDELMAkG
A1UEBhMCREUxDzANBgNVBAgMBkhlc3NlbjEUMBIGA1UECgwLcHJpdmFjeWlkZWEx
DjAMBgNVBAMMBUNBMDAxggkA+8jrrIPNEgcwEwYDVR0lBAwwCgYIKwYBBQUHAwEw
DQYJKoZIhvcNAQEFBQADggEBACaCgPKiuSlXXbA1Em1tt2ETa9bvmhs1fFMfh5yi
NF30LmtH/bFwJ71m2vNETFeP9P7tQiZ+2pdT2NyaEsTdVY1yrpl2hFs4/Gfs4ad1
GaXo8G3AhgPtjBMIM1rW52yb8NVzClJK3qCOsWeTlRGxZZ5geSbzMYkchYGUJzp8
G+ZOd/adZ0v3gMXXjoduYUEaewglwWm5W83BHCKWwfswyCgaHqnH7vA7sjixP3HA
2I26iyy7OrNQGBGjBy/PtitlqNDRpcp24xEjN8oo7q/mEXjJ5oerlybC2TUMT/7h
R9vaQahKNMrh+4XiYlqD87JbKSpy9Q7REq+z/COMXEdsXbE=
-----END CERTIFICATE-----
