Certificate:
    Data:
        Version: 3 (0x2)
        Serial Number: 268435664 (0x100000d0)
    Signature Algorithm: sha1WithRSAEncryption
        Issuer: C=DE, ST=Hessen, O=privacyidea, CN=CA001
        Validity
            Not Before: Nov 29 18:15:29 2015 GMT
            Not After : Nov 28 18:15:29 2016 GMT
        Subject: CN=selfservice,CN=user,O=realm1/emailAddress=meine
        Subject Public Key Info:
            Public Key Algorithm: rsaEncryption
                Public-Key: (2048 bit)
                Modulus:
                    00:cf:3c:d4:33:0e:12:c4:e6:da:cd:b6:56:a1:1c:
                    26:bb:26:1c:8a:4a:73:a8:58:8a:b6:1e:b3:8b:99:
                    d2:1d:07:c2:92:89:79:c0:69:d8:c8:df:28:61:98:
                    1e:b3:fe:ae:2b:bd:78:a9:f7:6e:47:dc:a3:a0:16:
                    8c:85:02:c1:4e:92:fd:72:6e:f0:c8:03:29:9b:b8:
                    00:6e:c0:83:95:c8:34:20:36:9c:b3:e5:e4:e6:76:
                    73:a3:1a:ad:40:96:e0:53:54:00:ec:76:79:9a:c6:
                    0d:7e:b6:bd:29:ec:83:f3:cb:89:a4:cb:6c:00:ba:
                    0c:c5:78:0f:ff:69:b8:94:f4:04:70:43:3f:d8:9e:
                    d7:a7:fb:5d:ce:75:8e:da:e7:c4:07:b1:9d:de:6f:
                    88:4b:b6:4d:9a:cf:f9:bc:fa:9f:cd:32:6d:f6:3a:
                    0b:0d:23:42:78:ec:97:42:bf:0e:4d:60:56:e1:d3:
                    02:f2:19:cb:84:57:90:e5:70:a1:a2:83:35:86:e2:
                    da:86:9f:f9:8a:c4:79:b3:52:28:da:cb:bb:34:ca:
                    d3:da:91:4a:cf:8d:76:a2:b2:6b:9b:f9:96:fd:09:
                    2a:da:11:23:4d:f0:cb:d6:b2:b1:0e:12:6c:9a:19:
                    65:98:87:ca:e4:ee:24:ce:44:ac:90:8f:9d:1b:c5:
                    2a:9d
                Exponent: 65537 (0x10001)
        X509v3 extensions:
            X509v3 Key Usage: 
                Digital Signature, Key Encipherment
            X509v3 Basic Constraints: 
                CA:FALSE
            Netscape Cert Type: 
                SSL Server
            Netscape Comment: 
                OpenSSL Generated Server Certificate
            X509v3 Subject Key Identifier: 
                4D:07:90:AD:FF:1D:0D:E7:1A:DD:D6:2E:FA:BA:34:CB:AA:1F:24:C6
            X509v3 Authority Key Identifier: 
                keyid:F4:A7:C0:CC:91:46:AF:64:F3:91:F2:27:F8:C8:B2:6F:8A:87:32:73
                DirName:/C=DE/ST=Hessen/O=privacyidea/CN=CA001
                serial:FB:C8:EB:AC:83:CD:12:07

            X509v3 Extended Key Usage: 
                TLS Web Server Authentication
    Signature Algorithm: sha1WithRSAEncryption
         a5:b0:5a:64:5b:fe:95:5e:f6:b1:3e:34:66:c4:48:96:93:7e:
         2d:81:51:f5:3f:37:51:60:dc:e5:44:41:10:77:6d:82:53:e5:
         bf:b6:85:26:da:db:ec:3e:4b:84:d2:37:06:97:f7:0a:40:be:
         68:bd:4a:01:84:94:ff:3a:39:bb:47:ea:db:ac:42:a2:1e:d2:
         06:49:d2:d7:c4:66:d6:b5:4f:78:28:23:cc:cf:32:06:57:ab:
         d9:fd:c4:bf:3c:3e:2c:8c:79:18:1e:f6:ac:f9:f7:69:4a:f0:
         fc:64:d4:4c:3e:de:3e:51:87:03:f1:b7:21:73:31:47:46:e2:
         62:0c:fe:54:a3:64:8b:e2:76:e3:68:d0:53:1a:e3:92:31:82:
         74:50:60:ad:f7:7b:af:9a:0c:b0:e3:a4:25:2e:81:c4:3f:ce:
         d4:b0:2b:72:ed:f1:17:2e:37:53:0a:6c:e6:75:c6:c0:c2:33:
         41:5d:93:68:73:78:0f:11:99:6b:6f:47:27:a2:db:6b:54:03:
         81:89:8c:ca:86:c0:d6:77:7d:50:d5:3e:ca:ab:27:b3:6f:c7:
         c4:4f:3e:be:c9:ba:7b:3d:81:e3:d3:77:ce:52:c6:ce:a3:35:
         cb:2f:ae:69:cc:ce:5e:7e:33:67:ce:dc:7b:4c:4f:76:0d:c9:
         89:a8:e4:c1
-----BEGIN CERTIFICATE-----
MIIEDzCCAvegAwIBAgIEEAAA0DANBgkqhkiG9w0BAQUFADBEMQswCQYDVQQGEwJE
RTEPMA0GA1UECAwGSGVzc2VuMRQwEgYDVQQKDAtwcml2YWN5aWRlYTEOMAwGA1UE
AwwFQ0EwMDEwHhcNMTUxMTI5MTgxNTI5WhcNMTYxMTI4MTgxNTI5WjA9MSUwIwYD
VQQDExxzZWxmc2VydmljZSxDTj11c2VyLE89cmVhbG0xMRQwEgYJKoZIhvcNAQkB
FgVtZWluZTCCASIwDQYJKoZIhvcNAQEBBQADggEPADCCAQoCggEBAM881DMOEsTm
2s22VqEcJrsmHIpKc6hYirYes4uZ0h0HwpKJecBp2MjfKGGYHrP+riu9eKn3bkfc
o6AWjIUCwU6S/XJu8MgDKZu4AG7Ag5XINCA2nLPl5OZ2c6MarUCW4FNUAOx2eZrG
DX62vSnsg/PLiaTLbAC6DMV4D/9puJT0BHBDP9ie16f7Xc51jtrnxAexnd5viEu2
TZrP+bz6n80ybfY6Cw0jQnjsl0K/Dk1gVuHTAvIZy4RXkOVwoaKDNYbi2oaf+YrE
ebNSKNrLuzTK09qRSs+NdqKya5v5lv0JKtoRI03wy9aysQ4SbJoZZZiHyuTuJM5E
rJCPnRvFKp0CAwEAAaOCAQ4wggEKMAsGA1UdDwQEAwIFoDAJBgNVHRMEAjAAMBEG
CWCGSAGG+EIBAQQEAwIGQDAzBglghkgBhvhCAQ0EJhYkT3BlblNTTCBHZW5lcmF0
ZWQgU2VydmVyIENlcnRpZmljYXRlMB0GA1UdDgQWBBRNB5Ct/x0N5xrd1i76ujTL
qh8kxjB0BgNVHSMEbTBrgBT0p8DMkUavZPOR8if4yLJviocyc6FIpEYwRDELMAkG
A1UEBhMCREUxDzANBgNVBAgMBkhlc3NlbjEUMBIGA1UECgwLcHJpdmFjeWlkZWEx
DjAMBgNVBAMMBUNBMDAxggkA+8jrrIPNEgcwEwYDVR0lBAwwCgYIKwYBBQUHAwEw
DQYJKoZIhvcNAQEFBQADggEBAKWwWmRb/pVe9rE+NGbESJaTfi2BUfU/N1Fg3OVE
QRB3bYJT5b+2hSba2+w+S4TSNwaX9wpAvmi9SgGElP86ObtH6tusQqIe0gZJ0tfE
Zta1T3goI8zPMgZXq9n9xL88PiyMeRge9qz592lK8Pxk1Ew+3j5RhwPxtyFzMUdG
4mIM/lSjZIviduNo0FMa45IxgnRQYK33e6+aDLDjpCUugcQ/ztSwK3Lt8RcuN1MK
bOZ1xsDCM0Fdk2hzeA8RmWtvRyei22tUA4GJjMqGwNZ3fVDVPsqrJ7Nvx8RPPr7J
uns9gePTd85Sxs6jNcsvrmnMzl5+M2fO3HtMT3YNyYmo5ME=
-----END CERTIFICATE-----
