Certificate:
    Data:
        Version: 3 (0x2)
        Serial Number: 268435657 (0x100000c9)
    Signature Algorithm: sha1WithRSAEncryption
        Issuer: C=DE, ST=Hessen, O=privacyidea, CN=CA001
        Validity
            Not Before: Nov 29 17:53:21 2015 GMT
            Not After : Nov 28 17:53:21 2016 GMT
        Subject: C=DE, ST=Hessen, O=privacyidea, CN=requester.localdomain
        Subject Public Key Info:
            Public Key Algorithm: rsaEncryption
                Public-Key: (2048 bit)
                Modulus:
                    00:cd:be:14:4f:fa:ce:01:3f:42:22:1b:1d:9c:af:
                    dd:92:d2:7f:db:6c:b7:3e:39:43:43:6b:13:03:f1:
                    05:f4:07:74:bc:76:69:28:0b:af:19:8e:d7:fc:e3:
                    cd:c6:58:f2:ca:7f:08:6d:53:fc:07:02:44:24:c6:
                    b4:34:4c:8c:04:fe:33:0e:40:e2:20:ba:02:73:5a:
                    f7:f5:4f:63:6e:cc:c6:b6:df:54:1d:37:39:7d:51:
                    36:26:5f:bd:dc:3f:a8:8b:6b:a2:ae:b6:9d:d6:21:
                    e7:df:41:b8:7a:28:2a:68:48:ca:a8:2d:ed:e1:e9:
                    46:5e:5a:72:6d:b4:84:38:87:91:fd:94:11:0b:28:
                    84:c6:c2:2f:2a:fb:01:f9:36:7a:09:75:d1:33:88:
                    3c:73:41:5b:c8:bf:94:89:70:a1:f0:c0:b9:2e:50:
                    53:1e:b1:17:64:69:f4:2d:81:e0:a9:0d:0e:32:e9:
                    ba:55:8a:85:f1:1b:6f:49:79:b4:7f:88:c3:0d:3e:
                    54:88:9b:3d:1f:38:8c:04:f3:ee:6a:63:2b:f5:c6:
                    db:b4:83:aa:c4:78:41:3a:7d:4b:e1:c8:3e:71:ca:
                    1b:61:59:ea:c6:c4:ca:32:5e:c9:e9:bf:12:29:e6:
                    c6:c3:63:fe:a0:55:da:7a:f1:60:98:4d:26:ed:fa:
                    70:2d
                Exponent: 65537 (0x10001)
        X509v3 extensions:
            X509v3 Key Usage: 
                Digital Signature, Key Encipherment
            X509v3 Basic Constraints: 
                CA:FALSE
            Netscape Cert Type: 
                SSL Server
            Netscape Comment: 
                OpenSSL Generated Server Certificate
            X509v3 Subject Key Identifier: 
                53:3F:ED:5D:09:07:B3:65:7B:AB:45:C9:24:5B:09:77:80:0A:96:ED
            X509v3 Authority Key Identifier: 
                keyid:F4:A7:C0:CC:91:46:AF:64:F3:91:F2:27:F8:C8:B2:6F:8A:87:32:73
                DirName:/C=DE/ST=Hessen/O=privacyidea/CN=CA001
                serial:FB:C8:EB:AC:83:CD:12:07

            X509v3 Extended Key Usage: 
                TLS Web Server Authentication
    Signature Algorithm: sha1WithRSAEncryption
         42:6f:52:00:86:34:48:6b:99:41:ac:58:c2:13:38:a5:43:5b:
         21:35:df:86:fc:44:19:6e:25:a0:91:14:9c:fa:8f:7a:71:46:
         ff:c9:a8:e8:e0:34:98:bb:90:85:58:8f:ca:2e:b7:29:9b:6b:
         5d:60:4d:10:56:cb:6c:30:95:b9:f4:b2:69:05:ec:26:d7:2c:
         12:a8:be:18:cc:e5:04:cb:bd:13:5e:86:f1:d7:dd:b5:ba:c7:
         92:d2:a1:0c:4f:c4:90:dc:67:ac:de:9d:e1:f0:57:ff:71:09:
         ea:6c:68:5a:3d:30:a0:83:5a:9f:1d:f0:2b:50:86:19:67:b9:
         fc:89:14:8d:07:bf:e2:98:9f:01:53:a9:c1:d5:73:5f:c5:90:
         c1:06:8f:ab:cb:8f:c2:66:a4:fc:13:d8:14:98:c5:d1:6e:6a:
         35:6d:60:be:ab:41:30:eb:70:21:e1:04:ea:82:79:fc:53:d9:
         88:7e:50:4b:a3:78:23:1b:e1:f3:5c:05:49:12:ce:c2:28:e4:
         14:7e:5a:57:6a:b4:3c:80:31:49:52:ff:b3:2f:fd:b8:d5:38:
         54:1b:b9:d5:f0:64:fc:d5:fb:44:d5:73:35:72:d3:35:1b:d9:
         20:e9:b1:28:12:68:31:8a:6b:7a:11:e3:03:cf:d3:ad:45:bc:
         b2:12:f8:67
-----BEGIN CERTIFICATE-----
MIIEJjCCAw6gAwIBAgIEEAAAyTANBgkqhkiG9w0BAQUFADBEMQswCQYDVQQGEwJE
RTEPMA0GA1UECAwGSGVzc2VuMRQwEgYDVQQKDAtwcml2YWN5aWRlYTEOMAwGA1UE
AwwFQ0EwMDEwHhcNMTUxMTI5MTc1MzIxWhcNMTYxMTI4MTc1MzIxWjBUMQswCQYD
VQQGEwJERTEPMA0GA1UECAwGSGVzc2VuMRQwEgYDVQQKDAtwcml2YWN5aWRlYTEe
MBwGA1UEAwwVcmVxdWVzdGVyLmxvY2FsZG9tYWluMIIBIjANBgkqhkiG9w0BAQEF
AAOCAQ8AMIIBCgKCAQEAzb4UT/rOAT9CIhsdnK/dktJ/22y3PjlDQ2sTA/EF9Ad0
vHZpKAuvGY7X/OPNxljyyn8IbVP8BwJEJMa0NEyMBP4zDkDiILoCc1r39U9jbszG
tt9UHTc5fVE2Jl+93D+oi2uirrad1iHn30G4eigqaEjKqC3t4elGXlpybbSEOIeR
/ZQRCyiExsIvKvsB+TZ6CXXRM4g8c0FbyL+UiXCh8MC5LlBTHrEXZGn0LYHgqQ0O
Mum6VYqF8RtvSXm0f4jDDT5UiJs9HziMBPPuamMr9cbbtIOqxHhBOn1L4cg+ccob
YVnqxsTKMl7J6b8SKebGw2P+oFXaevFgmE0m7fpwLQIDAQABo4IBDjCCAQowCwYD
VR0PBAQDAgWgMAkGA1UdEwQCMAAwEQYJYIZIAYb4QgEBBAQDAgZAMDMGCWCGSAGG
+EIBDQQmFiRPcGVuU1NMIEdlbmVyYXRlZCBTZXJ2ZXIgQ2VydGlmaWNhdGUwHQYD
VR0OBBYEFFM/7V0JB7Nle6tFySRbCXeACpbtMHQGA1UdIwRtMGuAFPSnwMyRRq9k
85HyJ/jIsm+KhzJzoUikRjBEMQswCQYDVQQGEwJERTEPMA0GA1UECAwGSGVzc2Vu
MRQwEgYDVQQKDAtwcml2YWN5aWRlYTEOMAwGA1UEAwwFQ0EwMDGCCQD7yOusg80S
BzATBgNVHSUEDDAKBggrBgEFBQcDATANBgkqhkiG9w0BAQUFAAOCAQEAQm9SAIY0
SGuZQaxYwhM4pUNbITXfhvxEGW4loJEUnPqPenFG/8mo6OA0mLuQhViPyi63KZtr
XWBNEFbLbDCVufSyaQXsJtcsEqi+GMzlBMu9E16G8dfdtbrHktKhDE/EkNxnrN6d
4fBX/3EJ6mxoWj0woINanx3wK1CGGWe5/IkUjQe/4pifAVOpwdVzX8WQwQaPq8uP
wmak/BPYFJjF0W5qNW1gvqtBMOtwIeEE6oJ5/FPZiH5QS6N4Ixvh81wFSRLOwijk
FH5aV2q0PIAxSVL/sy/9uNU4VBu51fBk/NX7RNVzNXLTNRvZIOmxKBJoMYprehHj
A8/TrUW8shL4Zw==
-----END CERTIFICATE-----
