Certificate:
    Data:
        Version: 3 (0x2)
        Serial Number: 268435653 (0x100000c5)
    Signature Algorithm: sha1WithRSAEncryption
        Issuer: C=DE, ST=Hessen, O=privacyidea, CN=CA001
        Validity
            Not Before: Dec  1 17:43:38 2015 GMT
            Not After : Nov 30 17:43:38 2016 GMT
        Subject: CN=Steve Test/emailAddress=steve@openssl.org
        Subject Public Key Info:
            Public Key Algorithm: rsaEncryption
                Public-Key: (2048 bit)
                Modulus:
                    00:d2:81:89:20:51:48:0f:73:f4:11:32:24:d5:1f:
                    1c:fd:5c:f5:b6:e6:c5:f0:52:81:dc:d2:af:66:4a:
                    7c:93:31:61:5c:af:d1:6d:06:70:03:60:7c:72:0c:
                    88:dd:49:cd:9e:02:6c:d2:5a:d7:53:0f:f3:da:be:
                    69:64:b5:0f:0c:00:e3:b3:50:47:a3:b3:9b:ba:13:
                    50:d6:58:5a:4b:ab:39:e0:11:ca:0a:27:67:03:78:
                    22:66:6d:92:1e:1b:5c:49:ae:e6:6b:d1:8e:3b:9d:
                    06:d3:c6:ac:4d:53:43:10:ab:e8:96:c1:87:82:97:
                    99:8f:20:d3:99:12:37:31:84:e1:8a:ff:29:03:5f:
                    22:90:3e:7f:9b:e0:20:c1:ad:dc:ae:4c:39:1a:31:
                    96:17:02:8c:b2:d9:b4:0d:20:12:9b:7d:86:54:fd:
                    33:fd:c1:2a:62:46:f8:60:96:cf:6e:01:6f:22:df:
                    13:47:e7:97:ec:05:72:23:a3:62:f8:fa:ef:ac:9c:
                    72:f0:37:cb:2f:37:cf:90:a8:27:51:86:c6:d7:78:
                    08:8f:7e:25:a2:15:70:a2:fb:1c:b6:15:5e:a0:97:
                    8b:81:4c:09:28:8a:27:3b:94:bc:71:db:5b:71:37:
                    9a:2b:16:e0:6f:b5:c9:f5:4b:4f:20:ba:65:cf:af:
                    ad:ad
                Exponent: 65537 (0x10001)
        X509v3 extensions:
            X509v3 Key Usage: 
                Digital Signature, Key Encipherment
            X509v3 Basic Constraints: 
                CA:FALSE
            Netscape Cert Type: 
                SSL Server
            Netscape Comment: 
                OpenSSL Generated Server Certificate
            X509v3 Subject Key Identifier: 
                E5:25:6D:3E:AF:0D:DD:3F:4C:F2:45:19:39:D5:14:DB:7E:9C:C0:AD
            X509v3 Authority Key Identifier: 
                keyid:F4:A7:C0:CC:91:46:AF:64:F3:91:F2:27:F8:C8:B2:6F:8A:87:32:73
                DirName:/C=DE/ST=Hessen/O=privacyidea/CN=CA001
                serial:FB:C8:EB:AC:83:CD:12:07

            X509v3 Extended Key Usage: 
                TLS Web Server Authentication
    Signature Algorithm: sha1WithRSAEncryption
         a0:1a:87:b4:ff:c9:1f:de:03:26:fc:22:a6:b2:d3:25:08:55:
         87:e9:c3:7a:99:86:49:69:b8:96:47:e6:95:c6:ce:4d:7a:92:
         52:bc:05:ac:e7:35:80:68:4f:4a:ce:68:44:0f:6c:60:23:08:
         5f:f2:60:0c:51:24:26:10:9f:03:cb:76:86:d8:7a:47:2e:c1:
         88:e5:b7:68:40:95:e7:7a:87:6f:53:8d:1e:c3:df:21:01:3f:
         3f:56:d2:e9:40:2b:76:aa:46:64:9a:ad:9e:a6:f2:11:a9:ee:
         59:8a:fa:70:ce:35:64:ac:fb:fd:17:76:51:05:cb:87:4a:0a:
         7f:a0:c8:b4:91:0b:21:d0:05:e7:d7:d7:b0:4a:52:81:f6:4c:
         1d:5b:8e:5a:41:22:60:ee:03:52:4b:18:fc:ae:df:5f:bc:55:
         3c:70:06:7d:c2:cb:86:3e:9d:5c:e2:05:c7:1e:a2:9e:49:ed:
         2e:1e:f6:19:88:61:91:8e:0f:ae:e9:fa:d9:6e:21:29:c5:31:
         07:a9:97:a8:a4:57:fa:29:3c:29:12:0c:5b:5a:83:93:a9:ce:
         bb:35:ac:ed:7d:bc:42:3a:e0:06:ff:5d:1f:62:8d:ac:87:e7:
         97:ed:3d:59:28:15:fe:1a:a4:03:bd:61:f6:89:25:51:d5:65:
         06:08:b2:2a
-----BEGIN CERTIFICATE-----
MIIECTCCAvGgAwIBAgIEEAAAxTANBgkqhkiG9w0BAQUFADBEMQswCQYDVQQGEwJE
RTEPMA0GA1UECAwGSGVzc2VuMRQwEgYDVQQKDAtwcml2YWN5aWRlYTEOMAwGA1UE
AwwFQ0EwMDEwHhcNMTUxMjAxMTc0MzM4WhcNMTYxMTMwMTc0MzM4WjA3MRMwEQYD
VQQDEwpTdGV2ZSBUZXN0MSAwHgYJKoZIhvcNAQkBFhFzdGV2ZUBvcGVuc3NsLm9y
ZzCCASIwDQYJKoZIhvcNAQEBBQADggEPADCCAQoCggEBANKBiSBRSA9z9BEyJNUf
HP1c9bbmxfBSgdzSr2ZKfJMxYVyv0W0GcANgfHIMiN1JzZ4CbNJa11MP89q+aWS1
DwwA47NQR6Ozm7oTUNZYWkurOeARygonZwN4ImZtkh4bXEmu5mvRjjudBtPGrE1T
QxCr6JbBh4KXmY8g05kSNzGE4Yr/KQNfIpA+f5vgIMGt3K5MORoxlhcCjLLZtA0g
Ept9hlT9M/3BKmJG+GCWz24BbyLfE0fnl+wFciOjYvj676yccvA3yy83z5CoJ1GG
xtd4CI9+JaIVcKL7HLYVXqCXi4FMCSiKJzuUvHHbW3E3misW4G+1yfVLTyC6Zc+v
ra0CAwEAAaOCAQ4wggEKMAsGA1UdDwQEAwIFoDAJBgNVHRMEAjAAMBEGCWCGSAGG
+EIBAQQEAwIGQDAzBglghkgBhvhCAQ0EJhYkT3BlblNTTCBHZW5lcmF0ZWQgU2Vy
dmVyIENlcnRpZmljYXRlMB0GA1UdDgQWBBTlJW0+rw3dP0zyRRk51RTbfpzArTB0
BgNVHSMEbTBrgBT0p8DMkUavZPOR8if4yLJviocyc6FIpEYwRDELMAkGA1UEBhMC
REUxDzANBgNVBAgMBkhlc3NlbjEUMBIGA1UECgwLcHJpdmFjeWlkZWExDjAMBgNV
BAMMBUNBMDAxggkA+8jrrIPNEgcwEwYDVR0lBAwwCgYIKwYBBQUHAwEwDQYJKoZI
hvcNAQEFBQADggEBAKAah7T/yR/eAyb8Iqay0yUIVYfpw3qZhklpuJZH5pXGzk16
klK8BaznNYBoT0rOaEQPbGAjCF/yYAxRJCYQnwPLdobYekcuwYjlt2hAled6h29T
jR7D3yEBPz9W0ulAK3aqRmSarZ6m8hGp7lmK+nDONWSs+/0XdlEFy4dKCn+gyLSR
CyHQBefX17BKUoH2TB1bjlpBImDuA1JLGPyu31+8VTxwBn3Cy4Y+nVziBcceop5J
7S4e9hmIYZGOD67p+tluISnFMQepl6ikV/opPCkSDFtag5Opzrs1rO19vEI64Ab/
XR9ijayH55ftPVkoFf4apAO9YfaJJVHVZQYIsio=
-----END CERTIFICATE-----
