Certificate:
    Data:
        Version: 3 (0x2)
        Serial Number: 268435666 (0x100000d2)
    Signature Algorithm: sha1WithRSAEncryption
        Issuer: C=DE, ST=Hessen, O=privacyidea, CN=CA001
        Validity
            Not Before: Sep 26 14:30:25 2015 GMT
            Not After : Sep 25 14:30:25 2016 GMT
        Subject: CN=selfservice,CN=user,O=realm1/emailAddress=meine
        Subject Public Key Info:
            Public Key Algorithm: rsaEncryption
                Public-Key: (2048 bit)
                Modulus:
                    00:cf:3c:d4:33:0e:12:c4:e6:da:cd:b6:56:a1:1c:
                    26:bb:26:1c:8a:4a:73:a8:58:8a:b6:1e:b3:8b:99:
                    d2:1d:07:c2:92:89:79:c0:69:d8:c8:df:28:61:98:
                    1e:b3:fe:ae:2b:bd:78:a9:f7:6e:47:dc:a3:a0:16:
                    8c:85:02:c1:4e:92:fd:72:6e:f0:c8:03:29:9b:b8:
                    00:6e:c0:83:95:c8:34:20:36:9c:b3:e5:e4:e6:76:
                    73:a3:1a:ad:40:96:e0:53:54:00:ec:76:79:9a:c6:
                    0d:7e:b6:bd:29:ec:83:f3:cb:89:a4:cb:6c:00:ba:
                    0c:c5:78:0f:ff:69:b8:94:f4:04:70:43:3f:d8:9e:
                    d7:a7:fb:5d:ce:75:8e:da:e7:c4:07:b1:9d:de:6f:
                    88:4b:b6:4d:9a:cf:f9:bc:fa:9f:cd:32:6d:f6:3a:
                    0b:0d:23:42:78:ec:97:42:bf:0e:4d:60:56:e1:d3:
                    02:f2:19:cb:84:57:90:e5:70:a1:a2:83:35:86:e2:
                    da:86:9f:f9:8a:c4:79:b3:52:28:da:cb:bb:34:ca:
                    d3:da:91:4a:cf:8d:76:a2:b2:6b:9b:f9:96:fd:09:
                    2a:da:11:23:4d:f0:cb:d6:b2:b1:0e:12:6c:9a:19:
                    65:98:87:ca:e4:ee:24:ce:44:ac:90:8f:9d:1b:c5:
                    2a:9d
                Exponent: 65537 (0x10001)
        X509v3 extensions:
            X509v3 Key Usage: 
                Digital Signature, Key Encipherment
            X509v3 Basic Constraints: 
                CA:FALSE
            Netscape Cert Type: 
                SSL Server
            Netscape Comment: 
                OpenSSL Generated Server Certificate
            X509v3 Subject Key Identifier: 
                4D:07:90:AD:FF:1D:0D:E7:1A:DD:D6:2E:FA:BA:34:CB:AA:1F:24:C6
            X509v3 Authority Key Identifier: 
                keyid:F4:A7:C0:CC:91:46:AF:64:F3:91:F2:27:F8:C8:B2:6F:8A:87:32:73
                DirName:/C=DE/ST=Hessen/O=privacyidea/CN=CA001
                serial:FB:C8:EB:AC:83:CD:12:07

            X509v3 Extended Key Usage: 
                TLS Web Server Authentication
    Signature Algorithm: sha1WithRSAEncryption
         b5:e9:f9:e0:b9:e4:03:ea:2b:19:3b:fd:b6:7e:be:dc:a3:69:
         6d:f8:fb:26:ae:21:79:d3:57:e8:49:d9:77:89:63:e1:35:1a:
         47:18:eb:1c:14:3b:2a:5c:fb:c9:af:bb:eb:63:01:e1:6c:58:
         ca:92:b1:b5:04:89:7a:1d:c0:44:74:b6:85:35:e3:9d:e8:3e:
         5f:f7:1b:f6:67:e4:d5:ea:89:06:ef:5e:fa:b7:58:53:c2:4c:
         f5:0b:0d:a4:96:f7:e2:14:e2:bc:fc:ca:aa:3c:89:3f:fd:97:
         9c:34:2c:0c:0f:db:8d:0f:9b:32:71:c5:a2:3c:43:2a:bf:56:
         17:5f:a7:e8:5b:1c:b0:d3:a2:a8:7c:7b:b4:46:93:a5:fd:f0:
         a9:41:3d:b5:5e:fe:83:96:83:6d:b8:98:12:8e:17:7c:47:fa:
         58:88:ca:0e:98:5c:f5:2b:06:05:7d:3c:a1:91:d5:68:cf:68:
         bd:6c:2e:ef:9b:88:74:7f:52:dc:bf:6b:c7:2c:08:f3:d0:17:
         19:e8:7c:4a:93:5e:33:ba:ac:2f:f3:33:50:71:03:4a:f4:7e:
         c9:5b:92:5d:e0:6f:e3:3f:15:ba:36:b2:23:ee:6d:bb:4c:2c:
         3b:88:f3:c6:34:cd:40:ce:01:2b:ca:02:55:ba:8e:0d:5c:c6:
         72:d2:bb:fc
-----BEGIN CERTIFICATE-----
MIIEDzCCAvegAwIBAgIEEAAA0jANBgkqhkiG9w0BAQUFADBEMQswCQYDVQQGEwJE
RTEPMA0GA1UECAwGSGVzc2VuMRQwEgYDVQQKDAtwcml2YWN5aWRlYTEOMAwGA1UE
AwwFQ0EwMDEwHhcNMTUwOTI2MTQzMDI1WhcNMTYwOTI1MTQzMDI1WjA9MSUwIwYD
VQQDExxzZWxmc2VydmljZSxDTj11c2VyLE89cmVhbG0xMRQwEgYJKoZIhvcNAQkB
FgVtZWluZTCCASIwDQYJKoZIhvcNAQEBBQADggEPADCCAQoCggEBAM881DMOEsTm
2s22VqEcJrsmHIpKc6hYirYes4uZ0h0HwpKJecBp2MjfKGGYHrP+riu9eKn3bkfc
o6AWjIUCwU6S/XJu8MgDKZu4AG7Ag5XINCA2nLPl5OZ2c6MarUCW4FNUAOx2eZrG
DX62vSnsg/PLiaTLbAC6DMV4D/9puJT0BHBDP9ie16f7Xc51jtrnxAexnd5viEu2
TZrP+bz6n80ybfY6Cw0jQnjsl0K/Dk1gVuHTAvIZy4RXkOVwoaKDNYbi2oaf+YrE
ebNSKNrLuzTK09qRSs+NdqKya5v5lv0JKtoRI03wy9aysQ4SbJoZZZiHyuTuJM5E
rJCPnRvFKp0CAwEAAaOCAQ4wggEKMAsGA1UdDwQEAwIFoDAJBgNVHRMEAjAAMBEG
CWCGSAGG+EIBAQQEAwIGQDAzBglghkgBhvhCAQ0EJhYkT3BlblNTTCBHZW5lcmF0
ZWQgU2VydmVyIENlcnRpZmljYXRlMB0GA1UdDgQWBBRNB5Ct/x0N5xrd1i76ujTL
qh8kxjB0BgNVHSMEbTBrgBT0p8DMkUavZPOR8if4yLJviocyc6FIpEYwRDELMAkG
A1UEBhMCREUxDzANBgNVBAgMBkhlc3NlbjEUMBIGA1UECgwLcHJpdmFjeWlkZWEx
DjAMBgNVBAMMBUNBMDAxggkA+8jrrIPNEgcwEwYDVR0lBAwwCgYIKwYBBQUHAwEw
DQYJKoZIhvcNAQEFBQADggEBALXp+eC55APqKxk7/bZ+vtyjaW34+yauIXnTV+hJ
2XeJY+E1GkcY6xwUOypc+8mvu+tjAeFsWMqSsbUEiXodwER0toU1453oPl/3G/Zn
5NXqiQbvXvq3WFPCTPULDaSW9+IU4rz8yqo8iT/9l5w0LAwP240PmzJxxaI8Qyq/
Vhdfp+hbHLDToqh8e7RGk6X98KlBPbVe/oOWg224mBKOF3xH+liIyg6YXPUrBgV9
PKGR1WjPaL1sLu+biHR/Uty/a8csCPPQFxnofEqTXjO6rC/zM1BxA0r0fslbkl3g
b+M/Fbo2siPubbtMLDuI88Y0zUDOASvKAlW6jg1cxnLSu/w=
-----END CERTIFICATE-----
