Certificate:
    Data:
        Version: 3 (0x2)
        Serial Number: 268435644 (0x100000bc)
    Signature Algorithm: sha1WithRSAEncryption
        Issuer: C=DE, ST=Hessen, O=privacyidea, CN=CA001
        Validity
            Not Before: Dec  4 16:21:07 2015 GMT
            Not After : Dec  3 16:21:07 2016 GMT
        Subject: C=DE, ST=Hessen, O=privacyidea, CN=requester.localdomain
        Subject Public Key Info:
            Public Key Algorithm: rsaEncryption
                Public-Key: (2048 bit)
                Modulus:
                    00:cd:be:14:4f:fa:ce:01:3f:42:22:1b:1d:9c:af:
                    dd:92:d2:7f:db:6c:b7:3e:39:43:43:6b:13:03:f1:
                    05:f4:07:74:bc:76:69:28:0b:af:19:8e:d7:fc:e3:
                    cd:c6:58:f2:ca:7f:08:6d:53:fc:07:02:44:24:c6:
                    b4:34:4c:8c:04:fe:33:0e:40:e2:20:ba:02:73:5a:
                    f7:f5:4f:63:6e:cc:c6:b6:df:54:1d:37:39:7d:51:
                    36:26:5f:bd:dc:3f:a8:8b:6b:a2:ae:b6:9d:d6:21:
                    e7:df:41:b8:7a:28:2a:68:48:ca:a8:2d:ed:e1:e9:
                    46:5e:5a:72:6d:b4:84:38:87:91:fd:94:11:0b:28:
                    84:c6:c2:2f:2a:fb:01:f9:36:7a:09:75:d1:33:88:
                    3c:73:41:5b:c8:bf:94:89:70:a1:f0:c0:b9:2e:50:
                    53:1e:b1:17:64:69:f4:2d:81:e0:a9:0d:0e:32:e9:
                    ba:55:8a:85:f1:1b:6f:49:79:b4:7f:88:c3:0d:3e:
                    54:88:9b:3d:1f:38:8c:04:f3:ee:6a:63:2b:f5:c6:
                    db:b4:83:aa:c4:78:41:3a:7d:4b:e1:c8:3e:71:ca:
                    1b:61:59:ea:c6:c4:ca:32:5e:c9:e9:bf:12:29:e6:
                    c6:c3:63:fe:a0:55:da:7a:f1:60:98:4d:26:ed:fa:
                    70:2d
                Exponent: 65537 (0x10001)
        X509v3 extensions:
            X509v3 Key Usage: 
                Digital Signature, Key Encipherment
            X509v3 Basic Constraints: 
                CA:FALSE
            Netscape Cert Type: 
                SSL Server
            Netscape Comment: 
                OpenSSL Generated Server Certificate
            X509v3 Subject Key Identifier: 
                53:3F:ED:5D:09:07:B3:65:7B:AB:45:C9:24:5B:09:77:80:0A:96:ED
            X509v3 Authority Key Identifier: 
                keyid:F4:A7:C0:CC:91:46:AF:64:F3:91:F2:27:F8:C8:B2:6F:8A:87:32:73
                DirName:/C=DE/ST=Hessen/O=privacyidea/CN=CA001
                serial:FB:C8:EB:AC:83:CD:12:07

            X509v3 Extended Key Usage: 
                TLS Web Server Authentication
    Signature Algorithm: sha1WithRSAEncryption
         27:3f:e9:da:fe:c4:9b:09:6e:00:2f:11:a0:0f:4f:b1:ce:95:
         90:62:2b:94:25:d8:14:04:dc:56:8d:a3:2f:34:20:f2:4c:5d:
         14:c7:85:59:57:3c:12:f5:47:de:b9:27:59:cf:0f:55:9b:8a:
         8f:2a:1f:78:f5:27:0d:fe:66:37:7d:1c:df:77:1f:e7:81:53:
         99:2b:c5:64:7e:8e:44:6b:98:33:12:8b:b4:57:57:94:fe:21:
         c9:a4:44:bb:34:b1:4e:1d:ab:2e:d0:7f:03:77:a4:54:2a:70:
         f5:79:1f:cd:46:53:dc:7b:9c:53:45:30:04:9e:13:e8:82:89:
         a6:b6:ed:64:4f:2f:da:25:a4:35:3b:f3:47:22:9d:48:71:8b:
         dc:2d:75:d4:35:2f:9c:e0:2a:b3:43:0d:4c:82:b0:49:0c:5a:
         55:c2:38:f3:05:5e:c6:29:e9:d2:74:f5:a7:08:85:55:9d:ef:
         8a:a0:30:c3:5c:75:d8:4d:36:2b:b6:5e:95:d4:a7:1a:50:b7:
         86:12:cf:5d:4e:04:42:c1:58:0b:1e:3f:40:52:e6:c7:7d:87:
         8c:cc:2a:47:e3:69:ba:8f:8c:90:f6:f5:47:4b:f1:26:f9:08:
         f3:f2:a5:3d:4f:81:51:d4:b1:c5:7b:5e:2b:04:1e:a3:dd:ba:
         c0:6d:a3:52
-----BEGIN CERTIFICATE-----
MIIEJjCCAw6gAwIBAgIEEAAAvDANBgkqhkiG9w0BAQUFADBEMQswCQYDVQQGEwJE
RTEPMA0GA1UECAwGSGVzc2VuMRQwEgYDVQQKDAtwcml2YWN5aWRlYTEOMAwGA1UE
AwwFQ0EwMDEwHhcNMTUxMjA0MTYyMTA3WhcNMTYxMjAzMTYyMTA3WjBUMQswCQYD
VQQGEwJERTEPMA0GA1UECAwGSGVzc2VuMRQwEgYDVQQKDAtwcml2YWN5aWRlYTEe
MBwGA1UEAwwVcmVxdWVzdGVyLmxvY2FsZG9tYWluMIIBIjANBgkqhkiG9w0BAQEF
AAOCAQ8AMIIBCgKCAQEAzb4UT/rOAT9CIhsdnK/dktJ/22y3PjlDQ2sTA/EF9Ad0
vHZpKAuvGY7X/OPNxljyyn8IbVP8BwJEJMa0NEyMBP4zDkDiILoCc1r39U9jbszG
tt9UHTc5fVE2Jl+93D+oi2uirrad1iHn30G4eigqaEjKqC3t4elGXlpybbSEOIeR
/ZQRCyiExsIvKvsB+TZ6CXXRM4g8c0FbyL+UiXCh8MC5LlBTHrEXZGn0LYHgqQ0O
Mum6VYqF8RtvSXm0f4jDDT5UiJs9HziMBPPuamMr9cbbtIOqxHhBOn1L4cg+ccob
YVnqxsTKMl7J6b8SKebGw2P+oFXaevFgmE0m7fpwLQIDAQABo4IBDjCCAQowCwYD
VR0PBAQDAgWgMAkGA1UdEwQCMAAwEQYJYIZIAYb4QgEBBAQDAgZAMDMGCWCGSAGG
+EIBDQQmFiRPcGVuU1NMIEdlbmVyYXRlZCBTZXJ2ZXIgQ2VydGlmaWNhdGUwHQYD
VR0OBBYEFFM/7V0JB7Nle6tFySRbCXeACpbtMHQGA1UdIwRtMGuAFPSnwMyRRq9k
85HyJ/jIsm+KhzJzoUikRjBEMQswCQYDVQQGEwJERTEPMA0GA1UECAwGSGVzc2Vu
MRQwEgYDVQQKDAtwcml2YWN5aWRlYTEOMAwGA1UEAwwFQ0EwMDGCCQD7yOusg80S
BzATBgNVHSUEDDAKBggrBgEFBQcDATANBgkqhkiG9w0BAQUFAAOCAQEAJz/p2v7E
mwluAC8RoA9Psc6VkGIrlCXYFATcVo2jLzQg8kxdFMeFWVc8EvVH3rknWc8PVZuK
jyofePUnDf5mN30c33cf54FTmSvFZH6ORGuYMxKLtFdXlP4hyaREuzSxTh2rLtB/
A3ekVCpw9XkfzUZT3HucU0UwBJ4T6IKJprbtZE8v2iWkNTvzRyKdSHGL3C111DUv
nOAqs0MNTIKwSQxaVcI48wVexinp0nT1pwiFVZ3viqAww1x12E02K7ZeldSnGlC3
hhLPXU4EQsFYCx4/QFLmx32HjMwqR+Npuo+MkPb1R0vxJvkI8/KlPU+BUdSxxXte
KwQeo926wG2jUg==
-----END CERTIFICATE-----
