Certificate:
    Data:
        Version: 3 (0x2)
        Serial Number: 268435651 (0x100000c3)
    Signature Algorithm: sha1WithRSAEncryption
        Issuer: C=DE, ST=Hessen, O=privacyidea, CN=CA001
        Validity
            Not Before: Dec  2 22:52:10 2015 GMT
            Not After : Dec  1 22:52:10 2016 GMT
        Subject: CN=selfservice,CN=user,O=realm1/emailAddress=meine
        Subject Public Key Info:
            Public Key Algorithm: rsaEncryption
                Public-Key: (2048 bit)
                Modulus:
                    00:cf:3c:d4:33:0e:12:c4:e6:da:cd:b6:56:a1:1c:
                    26:bb:26:1c:8a:4a:73:a8:58:8a:b6:1e:b3:8b:99:
                    d2:1d:07:c2:92:89:79:c0:69:d8:c8:df:28:61:98:
                    1e:b3:fe:ae:2b:bd:78:a9:f7:6e:47:dc:a3:a0:16:
                    8c:85:02:c1:4e:92:fd:72:6e:f0:c8:03:29:9b:b8:
                    00:6e:c0:83:95:c8:34:20:36:9c:b3:e5:e4:e6:76:
                    73:a3:1a:ad:40:96:e0:53:54:00:ec:76:79:9a:c6:
                    0d:7e:b6:bd:29:ec:83:f3:cb:89:a4:cb:6c:00:ba:
                    0c:c5:78:0f:ff:69:b8:94:f4:04:70:43:3f:d8:9e:
                    d7:a7:fb:5d:ce:75:8e:da:e7:c4:07:b1:9d:de:6f:
                    88:4b:b6:4d:9a:cf:f9:bc:fa:9f:cd:32:6d:f6:3a:
                    0b:0d:23:42:78:ec:97:42:bf:0e:4d:60:56:e1:d3:
                    02:f2:19:cb:84:57:90:e5:70:a1:a2:83:35:86:e2:
                    da:86:9f:f9:8a:c4:79:b3:52:28:da:cb:bb:34:ca:
                    d3:da:91:4a:cf:8d:76:a2:b2:6b:9b:f9:96:fd:09:
                    2a:da:11:23:4d:f0:cb:d6:b2:b1:0e:12:6c:9a:19:
                    65:98:87:ca:e4:ee:24:ce:44:ac:90:8f:9d:1b:c5:
                    2a:9d
                Exponent: 65537 (0x10001)
        X509v3 extensions:
            X509v3 Key Usage: 
                Digital Signature, Key Encipherment
            X509v3 Basic Constraints: 
                CA:FALSE
            Netscape Cert Type: 
                SSL Server
            Netscape Comment: 
                OpenSSL Generated Server Certificate
            X509v3 Subject Key Identifier: 
                4D:07:90:AD:FF:1D:0D:E7:1A:DD:D6:2E:FA:BA:34:CB:AA:1F:24:C6
            X509v3 Authority Key Identifier: 
                keyid:F4:A7:C0:CC:91:46:AF:64:F3:91:F2:27:F8:C8:B2:6F:8A:87:32:73
                DirName:/C=DE/ST=Hessen/O=privacyidea/CN=CA001
                serial:FB:C8:EB:AC:83:CD:12:07

            X509v3 Extended Key Usage: 
                TLS Web Server Authentication
    Signature Algorithm: sha1WithRSAEncryption
         17:13:0a:44:74:84:02:52:bb:15:7a:01:8b:33:41:d9:4e:0a:
         90:87:52:21:45:cd:e7:7f:df:a3:2f:93:93:9b:f0:14:77:81:
         ba:31:56:23:aa:34:cb:2f:f5:d6:38:c6:3f:21:11:cf:86:9a:
         f5:5e:22:38:47:6a:74:b7:fe:18:d8:c4:a0:25:69:ac:13:8e:
         89:87:1f:00:72:fe:30:5f:dd:61:b7:e7:df:ce:42:3d:da:d0:
         b2:4d:a8:62:4e:14:0d:7d:97:84:59:16:7f:08:f2:8b:bf:61:
         62:3f:23:67:97:6c:97:de:b2:3a:10:86:c3:ea:d8:bc:60:33:
         ee:ee:dd:64:55:b2:dc:3d:22:28:a8:e5:e0:56:57:2b:d3:e1:
         74:bc:d5:23:7d:75:db:96:12:a7:45:db:19:2a:94:3f:77:cd:
         6d:6f:24:78:37:c8:1e:b1:a2:dd:c6:e9:df:67:7a:71:e2:16:
         29:c3:6c:24:62:c7:8d:8b:2c:bc:2e:74:9b:fc:07:67:0d:51:
         3b:83:ea:34:93:d8:83:71:52:35:dd:79:66:be:75:14:35:95:
         e1:ae:1a:37:26:e9:7f:0f:55:ed:13:1f:26:eb:b6:89:49:16:
         1a:53:84:03:04:67:14:73:66:4c:97:44:1f:06:28:1b:16:5d:
         85:05:17:9a
-----BEGIN CERTIFICATE-----
MIIEDzCCAvegAwIBAgIEEAAAwzANBgkqhkiG9w0BAQUFADBEMQswCQYDVQQGEwJE
RTEPMA0GA1UECAwGSGVzc2VuMRQwEgYDVQQKDAtwcml2YWN5aWRlYTEOMAwGA1UE
AwwFQ0EwMDEwHhcNMTUxMjAyMjI1MjEwWhcNMTYxMjAxMjI1MjEwWjA9MSUwIwYD
VQQDExxzZWxmc2VydmljZSxDTj11c2VyLE89cmVhbG0xMRQwEgYJKoZIhvcNAQkB
FgVtZWluZTCCASIwDQYJKoZIhvcNAQEBBQADggEPADCCAQoCggEBAM881DMOEsTm
2s22VqEcJrsmHIpKc6hYirYes4uZ0h0HwpKJecBp2MjfKGGYHrP+riu9eKn3bkfc
o6AWjIUCwU6S/XJu8MgDKZu4AG7Ag5XINCA2nLPl5OZ2c6MarUCW4FNUAOx2eZrG
DX62vSnsg/PLiaTLbAC6DMV4D/9puJT0BHBDP9ie16f7Xc51jtrnxAexnd5viEu2
TZrP+bz6n80ybfY6Cw0jQnjsl0K/Dk1gVuHTAvIZy4RXkOVwoaKDNYbi2oaf+YrE
ebNSKNrLuzTK09qRSs+NdqKya5v5lv0JKtoRI03wy9aysQ4SbJoZZZiHyuTuJM5E
rJCPnRvFKp0CAwEAAaOCAQ4wggEKMAsGA1UdDwQEAwIFoDAJBgNVHRMEAjAAMBEG
CWCGSAGG+EIBAQQEAwIGQDAzBglghkgBhvhCAQ0EJhYkT3BlblNTTCBHZW5lcmF0
ZWQgU2VydmVyIENlcnRpZmljYXRlMB0GA1UdDgQWBBRNB5Ct/x0N5xrd1i76ujTL
qh8kxjB0BgNVHSMEbTBrgBT0p8DMkUavZPOR8if4yLJviocyc6FIpEYwRDELMAkG
A1UEBhMCREUxDzANBgNVBAgMBkhlc3NlbjEUMBIGA1UECgwLcHJpdmFjeWlkZWEx
DjAMBgNVBAMMBUNBMDAxggkA+8jrrIPNEgcwEwYDVR0lBAwwCgYIKwYBBQUHAwEw
DQYJKoZIhvcNAQEFBQADggEBABcTCkR0hAJSuxV6AYszQdlOCpCHUiFFzed/36Mv
k5Ob8BR3gboxViOqNMsv9dY4xj8hEc+GmvVeIjhHanS3/hjYxKAlaawTjomHHwBy
/jBf3WG359/OQj3a0LJNqGJOFA19l4RZFn8I8ou/YWI/I2eXbJfesjoQhsPq2Lxg
M+7u3WRVstw9Iiio5eBWVyvT4XS81SN9dduWEqdF2xkqlD93zW1vJHg3yB6xot3G
6d9nenHiFinDbCRix42LLLwudJv8B2cNUTuD6jST2INxUjXdeWa+dRQ1leGuGjcm
6X8PVe0THybrtolJFhpThAMEZxRzZkyXRB8GKBsWXYUFF5o=
-----END CERTIFICATE-----
