Certificate:
    Data:
        Version: 3 (0x2)
        Serial Number: 268435645 (0x100000bd)
    Signature Algorithm: sha1WithRSAEncryption
        Issuer: C=DE, ST=Hessen, O=privacyidea, CN=CA001
        Validity
            Not Before: Dec  4 16:22:30 2015 GMT
            Not After : Dec  3 16:22:30 2016 GMT
        Subject: C=DE, ST=Hessen, O=privacyidea, CN=requester.localdomain
        Subject Public Key Info:
            Public Key Algorithm: rsaEncryption
                Public-Key: (2048 bit)
                Modulus:
                    00:cd:be:14:4f:fa:ce:01:3f:42:22:1b:1d:9c:af:
                    dd:92:d2:7f:db:6c:b7:3e:39:43:43:6b:13:03:f1:
                    05:f4:07:74:bc:76:69:28:0b:af:19:8e:d7:fc:e3:
                    cd:c6:58:f2:ca:7f:08:6d:53:fc:07:02:44:24:c6:
                    b4:34:4c:8c:04:fe:33:0e:40:e2:20:ba:02:73:5a:
                    f7:f5:4f:63:6e:cc:c6:b6:df:54:1d:37:39:7d:51:
                    36:26:5f:bd:dc:3f:a8:8b:6b:a2:ae:b6:9d:d6:21:
                    e7:df:41:b8:7a:28:2a:68:48:ca:a8:2d:ed:e1:e9:
                    46:5e:5a:72:6d:b4:84:38:87:91:fd:94:11:0b:28:
                    84:c6:c2:2f:2a:fb:01:f9:36:7a:09:75:d1:33:88:
                    3c:73:41:5b:c8:bf:94:89:70:a1:f0:c0:b9:2e:50:
                    53:1e:b1:17:64:69:f4:2d:81:e0:a9:0d:0e:32:e9:
                    ba:55:8a:85:f1:1b:6f:49:79:b4:7f:88:c3:0d:3e:
                    54:88:9b:3d:1f:38:8c:04:f3:ee:6a:63:2b:f5:c6:
                    db:b4:83:aa:c4:78:41:3a:7d:4b:e1:c8:3e:71:ca:
                    1b:61:59:ea:c6:c4:ca:32:5e:c9:e9:bf:12:29:e6:
                    c6:c3:63:fe:a0:55:da:7a:f1:60:98:4d:26:ed:fa:
                    70:2d
                Exponent: 65537 (0x10001)
        X509v3 extensions:
            X509v3 Key Usage: 
                Digital Signature, Key Encipherment
            X509v3 Basic Constraints: 
                CA:FALSE
            Netscape Cert Type: 
                SSL Server
            Netscape Comment: 
                OpenSSL Generated Server Certificate
            X509v3 Subject Key Identifier: 
                53:3F:ED:5D:09:07:B3:65:7B:AB:45:C9:24:5B:09:77:80:0A:96:ED
            X509v3 Authority Key Identifier: 
                keyid:F4:A7:C0:CC:91:46:AF:64:F3:91:F2:27:F8:C8:B2:6F:8A:87:32:73
                DirName:/C=DE/ST=Hessen/O=privacyidea/CN=CA001
                serial:FB:C8:EB:AC:83:CD:12:07

            X509v3 Extended Key Usage: 
                TLS Web Server Authentication
    Signature Algorithm: sha1WithRSAEncryption
         4b:b4:66:4a:b2:b6:9b:42:c9:66:f0:f8:28:f0:96:4c:8d:5a:
         1a:6a:11:92:a5:d9:f8:48:f0:b9:c9:bd:0d:cb:80:c7:c9:e2:
         b5:5d:ad:49:db:9f:22:33:0b:b4:59:fc:4c:69:87:47:be:39:
         d0:23:7b:10:7b:94:a4:99:34:95:8e:c6:06:7c:53:93:21:12:
         97:da:99:f2:9d:0f:d2:26:c4:df:bc:9d:67:dc:19:69:a2:fb:
         cb:48:b1:4b:42:a6:5c:4d:a1:c8:82:38:fa:15:5e:dc:6b:52:
         c3:93:dc:f1:42:82:3a:41:8c:57:f3:06:b8:a6:06:47:6a:e7:
         8e:db:a8:7c:11:b1:a6:18:d7:3b:d2:35:97:df:8c:d5:66:7e:
         e8:09:1e:65:e8:50:fb:89:8b:2b:04:98:29:c1:78:13:e9:e2:
         24:91:92:6b:11:ad:09:8c:2e:4a:e5:9b:68:76:44:23:2b:ef:
         ca:ee:10:6e:1a:68:4a:07:0e:c8:a8:b1:b1:4d:5b:91:13:e2:
         9f:ef:fd:8c:cd:ff:5e:b8:7a:7f:3d:40:5b:11:17:36:22:df:
         98:0e:aa:ce:d0:72:0e:43:36:d6:da:cf:8b:1a:29:ba:60:93:
         0b:4a:b9:36:ad:df:f7:18:bd:9b:07:47:06:eb:1d:16:3e:c6:
         a1:5e:ac:50
-----BEGIN CERTIFICATE-----
MIIEJjCCAw6gAwIBAgIEEAAAvTANBgkqhkiG9w0BAQUFADBEMQswCQYDVQQGEwJE
RTEPMA0GA1UECAwGSGVzc2VuMRQwEgYDVQQKDAtwcml2YWN5aWRlYTEOMAwGA1UE
AwwFQ0EwMDEwHhcNMTUxMjA0MTYyMjMwWhcNMTYxMjAzMTYyMjMwWjBUMQswCQYD
VQQGEwJERTEPMA0GA1UECAwGSGVzc2VuMRQwEgYDVQQKDAtwcml2YWN5aWRlYTEe
MBwGA1UEAwwVcmVxdWVzdGVyLmxvY2FsZG9tYWluMIIBIjANBgkqhkiG9w0BAQEF
AAOCAQ8AMIIBCgKCAQEAzb4UT/rOAT9CIhsdnK/dktJ/22y3PjlDQ2sTA/EF9Ad0
vHZpKAuvGY7X/OPNxljyyn8IbVP8BwJEJMa0NEyMBP4zDkDiILoCc1r39U9jbszG
tt9UHTc5fVE2Jl+93D+oi2uirrad1iHn30G4eigqaEjKqC3t4elGXlpybbSEOIeR
/ZQRCyiExsIvKvsB+TZ6CXXRM4g8c0FbyL+UiXCh8MC5LlBTHrEXZGn0LYHgqQ0O
Mum6VYqF8RtvSXm0f4jDDT5UiJs9HziMBPPuamMr9cbbtIOqxHhBOn1L4cg+ccob
YVnqxsTKMl7J6b8SKebGw2P+oFXaevFgmE0m7fpwLQIDAQABo4IBDjCCAQowCwYD
VR0PBAQDAgWgMAkGA1UdEwQCMAAwEQYJYIZIAYb4QgEBBAQDAgZAMDMGCWCGSAGG
+EIBDQQmFiRPcGVuU1NMIEdlbmVyYXRlZCBTZXJ2ZXIgQ2VydGlmaWNhdGUwHQYD
VR0OBBYEFFM/7V0JB7Nle6tFySRbCXeACpbtMHQGA1UdIwRtMGuAFPSnwMyRRq9k
85HyJ/jIsm+KhzJzoUikRjBEMQswCQYDVQQGEwJERTEPMA0GA1UECAwGSGVzc2Vu
MRQwEgYDVQQKDAtwcml2YWN5aWRlYTEOMAwGA1UEAwwFQ0EwMDGCCQD7yOusg80S
BzATBgNVHSUEDDAKBggrBgEFBQcDATANBgkqhkiG9w0BAQUFAAOCAQEAS7RmSrK2
m0LJZvD4KPCWTI1aGmoRkqXZ+Ejwucm9DcuAx8nitV2tSdufIjMLtFn8TGmHR745
0CN7EHuUpJk0lY7GBnxTkyESl9qZ8p0P0ibE37ydZ9wZaaL7y0ixS0KmXE2hyII4
+hVe3GtSw5Pc8UKCOkGMV/MGuKYGR2rnjtuofBGxphjXO9I1l9+M1WZ+6AkeZehQ
+4mLKwSYKcF4E+niJJGSaxGtCYwuSuWbaHZEIyvvyu4QbhpoSgcOyKixsU1bkRPi
n+/9jM3/Xrh6fz1AWxEXNiLfmA6qztByDkM21trPixopumCTC0q5Nq3f9xi9mwdH
BusdFj7GoV6sUA==
-----END CERTIFICATE-----
