Certificate:
    Data:
        Version: 3 (0x2)
        Serial Number: 268435648 (0x100000c0)
    Signature Algorithm: sha1WithRSAEncryption
        Issuer: C=DE, ST=Hessen, O=privacyidea, CN=CA001
        Validity
            Not Before: Dec  4 16:24:44 2015 GMT
            Not After : Dec  3 16:24:44 2016 GMT
        Subject: C=DE, ST=Hessen, O=privacyidea, CN=requester.localdomain
        Subject Public Key Info:
            Public Key Algorithm: rsaEncryption
                Public-Key: (2048 bit)
                Modulus:
                    00:cd:be:14:4f:fa:ce:01:3f:42:22:1b:1d:9c:af:
                    dd:92:d2:7f:db:6c:b7:3e:39:43:43:6b:13:03:f1:
                    05:f4:07:74:bc:76:69:28:0b:af:19:8e:d7:fc:e3:
                    cd:c6:58:f2:ca:7f:08:6d:53:fc:07:02:44:24:c6:
                    b4:34:4c:8c:04:fe:33:0e:40:e2:20:ba:02:73:5a:
                    f7:f5:4f:63:6e:cc:c6:b6:df:54:1d:37:39:7d:51:
                    36:26:5f:bd:dc:3f:a8:8b:6b:a2:ae:b6:9d:d6:21:
                    e7:df:41:b8:7a:28:2a:68:48:ca:a8:2d:ed:e1:e9:
                    46:5e:5a:72:6d:b4:84:38:87:91:fd:94:11:0b:28:
                    84:c6:c2:2f:2a:fb:01:f9:36:7a:09:75:d1:33:88:
                    3c:73:41:5b:c8:bf:94:89:70:a1:f0:c0:b9:2e:50:
                    53:1e:b1:17:64:69:f4:2d:81:e0:a9:0d:0e:32:e9:
                    ba:55:8a:85:f1:1b:6f:49:79:b4:7f:88:c3:0d:3e:
                    54:88:9b:3d:1f:38:8c:04:f3:ee:6a:63:2b:f5:c6:
                    db:b4:83:aa:c4:78:41:3a:7d:4b:e1:c8:3e:71:ca:
                    1b:61:59:ea:c6:c4:ca:32:5e:c9:e9:bf:12:29:e6:
                    c6:c3:63:fe:a0:55:da:7a:f1:60:98:4d:26:ed:fa:
                    70:2d
                Exponent: 65537 (0x10001)
        X509v3 extensions:
            X509v3 Key Usage: 
                Digital Signature, Key Encipherment
            X509v3 Basic Constraints: 
                CA:FALSE
            Netscape Cert Type: 
                SSL Server
            Netscape Comment: 
                OpenSSL Generated Server Certificate
            X509v3 Subject Key Identifier: 
                53:3F:ED:5D:09:07:B3:65:7B:AB:45:C9:24:5B:09:77:80:0A:96:ED
            X509v3 Authority Key Identifier: 
                keyid:F4:A7:C0:CC:91:46:AF:64:F3:91:F2:27:F8:C8:B2:6F:8A:87:32:73
                DirName:/C=DE/ST=Hessen/O=privacyidea/CN=CA001
                serial:FB:C8:EB:AC:83:CD:12:07

            X509v3 Extended Key Usage: 
                TLS Web Server Authentication
    Signature Algorithm: sha1WithRSAEncryption
         4a:26:2f:ad:1f:97:36:5a:51:79:89:d7:2f:a2:d0:24:7f:52:
         a8:e3:6c:15:de:2f:19:86:95:ae:f1:0e:55:a8:13:89:4f:af:
         dc:17:c6:3e:76:03:58:ba:89:b2:f6:f6:41:79:ca:a4:7b:e0:
         a6:7c:d4:49:8b:7d:d5:3c:a4:3a:c9:a7:b5:5f:8e:55:09:2d:
         2a:f7:0e:f4:b7:3e:9b:ce:2b:f1:8e:f5:f8:0e:12:cb:22:c7:
         31:c9:74:4b:ff:b2:f0:71:67:67:3b:38:c4:33:88:ff:8c:3f:
         44:5b:20:64:ec:48:5c:86:b0:05:d5:21:4a:fe:8a:8e:3e:c4:
         73:90:7c:5e:cb:d5:c8:48:6f:f6:57:11:ad:02:d0:b8:4e:7d:
         b6:a7:ce:b0:83:63:9b:b2:37:5a:e6:31:7d:7b:d2:a8:e0:5d:
         78:65:fc:18:03:33:65:53:06:3f:8b:d9:b2:4f:b5:63:75:12:
         3d:58:75:c2:ac:6c:0a:52:17:b9:8b:9c:f4:4e:eb:63:6e:8b:
         5d:e7:b6:ae:b9:81:84:89:58:20:17:c9:ac:7e:aa:f6:83:01:
         6d:d3:ed:f2:44:88:67:64:f2:17:72:50:08:d6:87:db:b3:bc:
         cd:0b:b3:4b:85:97:59:c1:ec:2d:82:c3:56:00:49:7d:2c:fa:
         66:1d:d7:f2
-----BEGIN CERTIFICATE-----
MIIEJjCCAw6gAwIBAgIEEAAAwDANBgkqhkiG9w0BAQUFADBEMQswCQYDVQQGEwJE
RTEPMA0GA1UECAwGSGVzc2VuMRQwEgYDVQQKDAtwcml2YWN5aWRlYTEOMAwGA1UE
AwwFQ0EwMDEwHhcNMTUxMjA0MTYyNDQ0WhcNMTYxMjAzMTYyNDQ0WjBUMQswCQYD
VQQGEwJERTEPMA0GA1UECAwGSGVzc2VuMRQwEgYDVQQKDAtwcml2YWN5aWRlYTEe
MBwGA1UEAwwVcmVxdWVzdGVyLmxvY2FsZG9tYWluMIIBIjANBgkqhkiG9w0BAQEF
AAOCAQ8AMIIBCgKCAQEAzb4UT/rOAT9CIhsdnK/dktJ/22y3PjlDQ2sTA/EF9Ad0
vHZpKAuvGY7X/OPNxljyyn8IbVP8BwJEJMa0NEyMBP4zDkDiILoCc1r39U9jbszG
tt9UHTc5fVE2Jl+93D+oi2uirrad1iHn30G4eigqaEjKqC3t4elGXlpybbSEOIeR
/ZQRCyiExsIvKvsB+TZ6CXXRM4g8c0FbyL+UiXCh8MC5LlBTHrEXZGn0LYHgqQ0O
Mum6VYqF8RtvSXm0f4jDDT5UiJs9HziMBPPuamMr9cbbtIOqxHhBOn1L4cg+ccob
YVnqxsTKMl7J6b8SKebGw2P+oFXaevFgmE0m7fpwLQIDAQABo4IBDjCCAQowCwYD
VR0PBAQDAgWgMAkGA1UdEwQCMAAwEQYJYIZIAYb4QgEBBAQDAgZAMDMGCWCGSAGG
+EIBDQQmFiRPcGVuU1NMIEdlbmVyYXRlZCBTZXJ2ZXIgQ2VydGlmaWNhdGUwHQYD
VR0OBBYEFFM/7V0JB7Nle6tFySRbCXeACpbtMHQGA1UdIwRtMGuAFPSnwMyRRq9k
85HyJ/jIsm+KhzJzoUikRjBEMQswCQYDVQQGEwJERTEPMA0GA1UECAwGSGVzc2Vu
MRQwEgYDVQQKDAtwcml2YWN5aWRlYTEOMAwGA1UEAwwFQ0EwMDGCCQD7yOusg80S
BzATBgNVHSUEDDAKBggrBgEFBQcDATANBgkqhkiG9w0BAQUFAAOCAQEASiYvrR+X
NlpReYnXL6LQJH9SqONsFd4vGYaVrvEOVagTiU+v3BfGPnYDWLqJsvb2QXnKpHvg
pnzUSYt91TykOsmntV+OVQktKvcO9Lc+m84r8Y71+A4SyyLHMcl0S/+y8HFnZzs4
xDOI/4w/RFsgZOxIXIawBdUhSv6Kjj7Ec5B8XsvVyEhv9lcRrQLQuE59tqfOsINj
m7I3WuYxfXvSqOBdeGX8GAMzZVMGP4vZsk+1Y3USPVh1wqxsClIXuYuc9E7rY26L
Xee2rrmBhIlYIBfJrH6q9oMBbdPt8kSIZ2TyF3JQCNaH27O8zQuzS4WXWcHsLYLD
VgBJfSz6Zh3X8g==
-----END CERTIFICATE-----
