Certificate:
    Data:
        Version: 3 (0x2)
        Serial Number: 268435639 (0x100000b7)
    Signature Algorithm: sha1WithRSAEncryption
        Issuer: C=DE, ST=Hessen, O=privacyidea, CN=CA001
        Validity
            Not Before: Nov 22 09:17:52 2015 GMT
            Not After : Nov 21 09:17:52 2016 GMT
        Subject: C=DE, ST=Hessen, O=privacyidea, CN=requester.localdomain
        Subject Public Key Info:
            Public Key Algorithm: rsaEncryption
                Public-Key: (2048 bit)
                Modulus:
                    00:cd:be:14:4f:fa:ce:01:3f:42:22:1b:1d:9c:af:
                    dd:92:d2:7f:db:6c:b7:3e:39:43:43:6b:13:03:f1:
                    05:f4:07:74:bc:76:69:28:0b:af:19:8e:d7:fc:e3:
                    cd:c6:58:f2:ca:7f:08:6d:53:fc:07:02:44:24:c6:
                    b4:34:4c:8c:04:fe:33:0e:40:e2:20:ba:02:73:5a:
                    f7:f5:4f:63:6e:cc:c6:b6:df:54:1d:37:39:7d:51:
                    36:26:5f:bd:dc:3f:a8:8b:6b:a2:ae:b6:9d:d6:21:
                    e7:df:41:b8:7a:28:2a:68:48:ca:a8:2d:ed:e1:e9:
                    46:5e:5a:72:6d:b4:84:38:87:91:fd:94:11:0b:28:
                    84:c6:c2:2f:2a:fb:01:f9:36:7a:09:75:d1:33:88:
                    3c:73:41:5b:c8:bf:94:89:70:a1:f0:c0:b9:2e:50:
                    53:1e:b1:17:64:69:f4:2d:81:e0:a9:0d:0e:32:e9:
                    ba:55:8a:85:f1:1b:6f:49:79:b4:7f:88:c3:0d:3e:
                    54:88:9b:3d:1f:38:8c:04:f3:ee:6a:63:2b:f5:c6:
                    db:b4:83:aa:c4:78:41:3a:7d:4b:e1:c8:3e:71:ca:
                    1b:61:59:ea:c6:c4:ca:32:5e:c9:e9:bf:12:29:e6:
                    c6:c3:63:fe:a0:55:da:7a:f1:60:98:4d:26:ed:fa:
                    70:2d
                Exponent: 65537 (0x10001)
        X509v3 extensions:
            X509v3 Key Usage: 
                Digital Signature, Key Encipherment
            X509v3 Basic Constraints: 
                CA:FALSE
            Netscape Cert Type: 
                SSL Server
            Netscape Comment: 
                OpenSSL Generated Server Certificate
            X509v3 Subject Key Identifier: 
                53:3F:ED:5D:09:07:B3:65:7B:AB:45:C9:24:5B:09:77:80:0A:96:ED
            X509v3 Authority Key Identifier: 
                keyid:F4:A7:C0:CC:91:46:AF:64:F3:91:F2:27:F8:C8:B2:6F:8A:87:32:73
                DirName:/C=DE/ST=Hessen/O=privacyidea/CN=CA001
                serial:FB:C8:EB:AC:83:CD:12:07

            X509v3 Extended Key Usage: 
                TLS Web Server Authentication
    Signature Algorithm: sha1WithRSAEncryption
         75:de:f0:9d:0c:ab:ad:33:49:30:98:19:15:cf:d5:9c:35:7b:
         8d:2b:d0:d0:4f:41:61:c0:44:c5:e4:c6:c8:22:6d:cc:b4:f5:
         bb:1b:51:02:f6:da:b1:f5:1a:da:2a:70:32:b0:cb:73:50:2d:
         91:06:b0:e4:60:a1:2f:e8:3d:b6:05:1d:dd:f3:e7:e1:c9:a3:
         ec:54:56:d9:db:30:5f:7b:8a:88:9b:7c:1c:ab:24:45:bb:ad:
         b5:df:c2:5f:aa:2e:be:51:ba:e2:07:3e:60:13:d0:42:27:71:
         ea:d1:17:47:07:3f:37:12:fc:48:ba:7e:a6:07:c7:1d:7a:85:
         a2:e1:f6:36:9f:64:dc:fc:c5:00:55:73:23:b3:ba:fa:70:85:
         03:b8:8d:a8:e6:cb:1f:66:2e:18:08:e9:0d:cb:d4:55:a2:01:
         b1:33:0e:07:51:c0:12:e2:3c:78:c3:a9:7e:08:5a:c3:d3:88:
         1d:36:cc:7b:21:c5:44:7e:ca:b8:4c:2c:e0:d5:c2:6e:63:25:
         5c:c1:1a:a0:d8:e8:01:ab:e6:bd:3b:11:b2:94:34:0d:46:69:
         36:61:58:d3:ad:f2:42:c7:42:df:f1:19:af:06:d6:b2:0d:22:
         65:81:ec:d6:14:fc:54:70:20:68:57:b3:c1:0c:d6:28:e9:e9:
         9b:ce:57:62
-----BEGIN CERTIFICATE-----
MIIEJjCCAw6gAwIBAgIEEAAAtzANBgkqhkiG9w0BAQUFADBEMQswCQYDVQQGEwJE
RTEPMA0GA1UECAwGSGVzc2VuMRQwEgYDVQQKDAtwcml2YWN5aWRlYTEOMAwGA1UE
AwwFQ0EwMDEwHhcNMTUxMTIyMDkxNzUyWhcNMTYxMTIxMDkxNzUyWjBUMQswCQYD
VQQGEwJERTEPMA0GA1UECAwGSGVzc2VuMRQwEgYDVQQKDAtwcml2YWN5aWRlYTEe
MBwGA1UEAwwVcmVxdWVzdGVyLmxvY2FsZG9tYWluMIIBIjANBgkqhkiG9w0BAQEF
AAOCAQ8AMIIBCgKCAQEAzb4UT/rOAT9CIhsdnK/dktJ/22y3PjlDQ2sTA/EF9Ad0
vHZpKAuvGY7X/OPNxljyyn8IbVP8BwJEJMa0NEyMBP4zDkDiILoCc1r39U9jbszG
tt9UHTc5fVE2Jl+93D+oi2uirrad1iHn30G4eigqaEjKqC3t4elGXlpybbSEOIeR
/ZQRCyiExsIvKvsB+TZ6CXXRM4g8c0FbyL+UiXCh8MC5LlBTHrEXZGn0LYHgqQ0O
Mum6VYqF8RtvSXm0f4jDDT5UiJs9HziMBPPuamMr9cbbtIOqxHhBOn1L4cg+ccob
YVnqxsTKMl7J6b8SKebGw2P+oFXaevFgmE0m7fpwLQIDAQABo4IBDjCCAQowCwYD
VR0PBAQDAgWgMAkGA1UdEwQCMAAwEQYJYIZIAYb4QgEBBAQDAgZAMDMGCWCGSAGG
+EIBDQQmFiRPcGVuU1NMIEdlbmVyYXRlZCBTZXJ2ZXIgQ2VydGlmaWNhdGUwHQYD
VR0OBBYEFFM/7V0JB7Nle6tFySRbCXeACpbtMHQGA1UdIwRtMGuAFPSnwMyRRq9k
85HyJ/jIsm+KhzJzoUikRjBEMQswCQYDVQQGEwJERTEPMA0GA1UECAwGSGVzc2Vu
MRQwEgYDVQQKDAtwcml2YWN5aWRlYTEOMAwGA1UEAwwFQ0EwMDGCCQD7yOusg80S
BzATBgNVHSUEDDAKBggrBgEFBQcDATANBgkqhkiG9w0BAQUFAAOCAQEAdd7wnQyr
rTNJMJgZFc/VnDV7jSvQ0E9BYcBExeTGyCJtzLT1uxtRAvbasfUa2ipwMrDLc1At
kQaw5GChL+g9tgUd3fPn4cmj7FRW2dswX3uKiJt8HKskRbuttd/CX6ouvlG64gc+
YBPQQidx6tEXRwc/NxL8SLp+pgfHHXqFouH2Np9k3PzFAFVzI7O6+nCFA7iNqObL
H2YuGAjpDcvUVaIBsTMOB1HAEuI8eMOpfghaw9OIHTbMeyHFRH7KuEws4NXCbmMl
XMEaoNjoAavmvTsRspQ0DUZpNmFY063yQsdC3/EZrwbWsg0iZYHs1hT8VHAgaFez
wQzWKOnpm85XYg==
-----END CERTIFICATE-----
