Certificate:
    Data:
        Version: 3 (0x2)
        Serial Number: 268435660 (0x100000cc)
    Signature Algorithm: sha1WithRSAEncryption
        Issuer: C=DE, ST=Hessen, O=privacyidea, CN=CA001
        Validity
            Not Before: Oct 31 19:18:47 2015 GMT
            Not After : Oct 30 19:18:47 2016 GMT
        Subject: CN=selfservice,CN=user,O=realm1/emailAddress=meine
        Subject Public Key Info:
            Public Key Algorithm: rsaEncryption
                Public-Key: (2048 bit)
                Modulus:
                    00:cf:3c:d4:33:0e:12:c4:e6:da:cd:b6:56:a1:1c:
                    26:bb:26:1c:8a:4a:73:a8:58:8a:b6:1e:b3:8b:99:
                    d2:1d:07:c2:92:89:79:c0:69:d8:c8:df:28:61:98:
                    1e:b3:fe:ae:2b:bd:78:a9:f7:6e:47:dc:a3:a0:16:
                    8c:85:02:c1:4e:92:fd:72:6e:f0:c8:03:29:9b:b8:
                    00:6e:c0:83:95:c8:34:20:36:9c:b3:e5:e4:e6:76:
                    73:a3:1a:ad:40:96:e0:53:54:00:ec:76:79:9a:c6:
                    0d:7e:b6:bd:29:ec:83:f3:cb:89:a4:cb:6c:00:ba:
                    0c:c5:78:0f:ff:69:b8:94:f4:04:70:43:3f:d8:9e:
                    d7:a7:fb:5d:ce:75:8e:da:e7:c4:07:b1:9d:de:6f:
                    88:4b:b6:4d:9a:cf:f9:bc:fa:9f:cd:32:6d:f6:3a:
                    0b:0d:23:42:78:ec:97:42:bf:0e:4d:60:56:e1:d3:
                    02:f2:19:cb:84:57:90:e5:70:a1:a2:83:35:86:e2:
                    da:86:9f:f9:8a:c4:79:b3:52:28:da:cb:bb:34:ca:
                    d3:da:91:4a:cf:8d:76:a2:b2:6b:9b:f9:96:fd:09:
                    2a:da:11:23:4d:f0:cb:d6:b2:b1:0e:12:6c:9a:19:
                    65:98:87:ca:e4:ee:24:ce:44:ac:90:8f:9d:1b:c5:
                    2a:9d
                Exponent: 65537 (0x10001)
        X509v3 extensions:
            X509v3 Key Usage: 
                Digital Signature, Key Encipherment
            X509v3 Basic Constraints: 
                CA:FALSE
            Netscape Cert Type: 
                SSL Server
            Netscape Comment: 
                OpenSSL Generated Server Certificate
            X509v3 Subject Key Identifier: 
                4D:07:90:AD:FF:1D:0D:E7:1A:DD:D6:2E:FA:BA:34:CB:AA:1F:24:C6
            X509v3 Authority Key Identifier: 
                keyid:F4:A7:C0:CC:91:46:AF:64:F3:91:F2:27:F8:C8:B2:6F:8A:87:32:73
                DirName:/C=DE/ST=Hessen/O=privacyidea/CN=CA001
                serial:FB:C8:EB:AC:83:CD:12:07

            X509v3 Extended Key Usage: 
                TLS Web Server Authentication
    Signature Algorithm: sha1WithRSAEncryption
         bb:13:76:15:b4:d1:82:44:de:8c:ac:7c:c7:52:69:8c:88:d3:
         76:98:bf:d4:e2:fc:20:2c:6f:d7:92:34:83:6a:04:0b:fd:a3:
         f9:9c:48:b7:f6:c1:c4:82:60:1f:79:67:9f:d2:43:ee:38:4b:
         7b:45:52:f8:39:f4:68:f0:dc:4a:78:6a:0d:1d:b7:4a:ea:04:
         8c:ca:b6:c2:f9:8f:41:d6:46:45:aa:08:f7:7d:73:ae:14:ad:
         a6:3a:fd:06:e5:d5:22:d3:b9:4f:2f:66:7e:d0:5c:c8:8d:dd:
         12:6b:12:b1:96:57:c9:85:53:68:a5:60:6e:64:58:6b:0a:fb:
         8c:5a:ec:04:d2:28:61:59:ce:07:a1:f7:06:ad:67:cb:33:91:
         34:b6:5f:35:ec:a2:73:cb:91:c2:02:cf:15:70:35:ec:e0:d6:
         4b:46:9a:fe:d0:d4:6d:07:50:7f:54:06:92:25:50:21:79:1f:
         05:a9:e7:6f:1d:a7:35:df:c4:7d:45:56:24:6a:57:0d:21:24:
         02:70:7a:67:d9:1d:66:f1:ac:69:fb:15:fd:99:df:65:1e:94:
         41:f8:36:20:4f:7b:74:14:d8:4c:99:5a:3a:3f:ed:35:82:d0:
         25:78:f7:18:e5:b1:fc:59:9b:ca:fa:87:5c:91:6c:aa:1e:3c:
         06:e4:d8:da
-----BEGIN CERTIFICATE-----
MIIEDzCCAvegAwIBAgIEEAAAzDANBgkqhkiG9w0BAQUFADBEMQswCQYDVQQGEwJE
RTEPMA0GA1UECAwGSGVzc2VuMRQwEgYDVQQKDAtwcml2YWN5aWRlYTEOMAwGA1UE
AwwFQ0EwMDEwHhcNMTUxMDMxMTkxODQ3WhcNMTYxMDMwMTkxODQ3WjA9MSUwIwYD
VQQDExxzZWxmc2VydmljZSxDTj11c2VyLE89cmVhbG0xMRQwEgYJKoZIhvcNAQkB
FgVtZWluZTCCASIwDQYJKoZIhvcNAQEBBQADggEPADCCAQoCggEBAM881DMOEsTm
2s22VqEcJrsmHIpKc6hYirYes4uZ0h0HwpKJecBp2MjfKGGYHrP+riu9eKn3bkfc
o6AWjIUCwU6S/XJu8MgDKZu4AG7Ag5XINCA2nLPl5OZ2c6MarUCW4FNUAOx2eZrG
DX62vSnsg/PLiaTLbAC6DMV4D/9puJT0BHBDP9ie16f7Xc51jtrnxAexnd5viEu2
TZrP+bz6n80ybfY6Cw0jQnjsl0K/Dk1gVuHTAvIZy4RXkOVwoaKDNYbi2oaf+YrE
ebNSKNrLuzTK09qRSs+NdqKya5v5lv0JKtoRI03wy9aysQ4SbJoZZZiHyuTuJM5E
rJCPnRvFKp0CAwEAAaOCAQ4wggEKMAsGA1UdDwQEAwIFoDAJBgNVHRMEAjAAMBEG
CWCGSAGG+EIBAQQEAwIGQDAzBglghkgBhvhCAQ0EJhYkT3BlblNTTCBHZW5lcmF0
ZWQgU2VydmVyIENlcnRpZmljYXRlMB0GA1UdDgQWBBRNB5Ct/x0N5xrd1i76ujTL
qh8kxjB0BgNVHSMEbTBrgBT0p8DMkUavZPOR8if4yLJviocyc6FIpEYwRDELMAkG
A1UEBhMCREUxDzANBgNVBAgMBkhlc3NlbjEUMBIGA1UECgwLcHJpdmFjeWlkZWEx
DjAMBgNVBAMMBUNBMDAxggkA+8jrrIPNEgcwEwYDVR0lBAwwCgYIKwYBBQUHAwEw
DQYJKoZIhvcNAQEFBQADggEBALsTdhW00YJE3oysfMdSaYyI03aYv9Ti/CAsb9eS
NINqBAv9o/mcSLf2wcSCYB95Z5/SQ+44S3tFUvg59Gjw3Ep4ag0dt0rqBIzKtsL5
j0HWRkWqCPd9c64UraY6/Qbl1SLTuU8vZn7QXMiN3RJrErGWV8mFU2ilYG5kWGsK
+4xa7ATSKGFZzgeh9watZ8szkTS2XzXsonPLkcICzxVwNezg1ktGmv7Q1G0HUH9U
BpIlUCF5HwWp528dpzXfxH1FViRqVw0hJAJwemfZHWbxrGn7Ff2Z32UelEH4NiBP
e3QU2EyZWjo/7TWC0CV49xjlsfxZm8r6h1yRbKoePAbk2No=
-----END CERTIFICATE-----
