Certificate:
    Data:
        Version: 3 (0x2)
        Serial Number: 268435638 (0x100000b6)
    Signature Algorithm: sha1WithRSAEncryption
        Issuer: C=DE, ST=Hessen, O=privacyidea, CN=CA001
        Validity
            Not Before: Nov 22 09:16:28 2015 GMT
            Not After : Nov 21 09:16:28 2016 GMT
        Subject: C=DE, ST=Hessen, O=privacyidea, CN=requester.localdomain
        Subject Public Key Info:
            Public Key Algorithm: rsaEncryption
                Public-Key: (2048 bit)
                Modulus:
                    00:cd:be:14:4f:fa:ce:01:3f:42:22:1b:1d:9c:af:
                    dd:92:d2:7f:db:6c:b7:3e:39:43:43:6b:13:03:f1:
                    05:f4:07:74:bc:76:69:28:0b:af:19:8e:d7:fc:e3:
                    cd:c6:58:f2:ca:7f:08:6d:53:fc:07:02:44:24:c6:
                    b4:34:4c:8c:04:fe:33:0e:40:e2:20:ba:02:73:5a:
                    f7:f5:4f:63:6e:cc:c6:b6:df:54:1d:37:39:7d:51:
                    36:26:5f:bd:dc:3f:a8:8b:6b:a2:ae:b6:9d:d6:21:
                    e7:df:41:b8:7a:28:2a:68:48:ca:a8:2d:ed:e1:e9:
                    46:5e:5a:72:6d:b4:84:38:87:91:fd:94:11:0b:28:
                    84:c6:c2:2f:2a:fb:01:f9:36:7a:09:75:d1:33:88:
                    3c:73:41:5b:c8:bf:94:89:70:a1:f0:c0:b9:2e:50:
                    53:1e:b1:17:64:69:f4:2d:81:e0:a9:0d:0e:32:e9:
                    ba:55:8a:85:f1:1b:6f:49:79:b4:7f:88:c3:0d:3e:
                    54:88:9b:3d:1f:38:8c:04:f3:ee:6a:63:2b:f5:c6:
                    db:b4:83:aa:c4:78:41:3a:7d:4b:e1:c8:3e:71:ca:
                    1b:61:59:ea:c6:c4:ca:32:5e:c9:e9:bf:12:29:e6:
                    c6:c3:63:fe:a0:55:da:7a:f1:60:98:4d:26:ed:fa:
                    70:2d
                Exponent: 65537 (0x10001)
        X509v3 extensions:
            X509v3 Key Usage: 
                Digital Signature, Key Encipherment
            X509v3 Basic Constraints: 
                CA:FALSE
            Netscape Cert Type: 
                SSL Server
            Netscape Comment: 
                OpenSSL Generated Server Certificate
            X509v3 Subject Key Identifier: 
                53:3F:ED:5D:09:07:B3:65:7B:AB:45:C9:24:5B:09:77:80:0A:96:ED
            X509v3 Authority Key Identifier: 
                keyid:F4:A7:C0:CC:91:46:AF:64:F3:91:F2:27:F8:C8:B2:6F:8A:87:32:73
                DirName:/C=DE/ST=Hessen/O=privacyidea/CN=CA001
                serial:FB:C8:EB:AC:83:CD:12:07

            X509v3 Extended Key Usage: 
                TLS Web Server Authentication
    Signature Algorithm: sha1WithRSAEncryption
         2d:be:26:4d:21:88:86:dd:77:c2:53:e4:d8:e7:40:56:3d:dc:
         96:04:21:6c:43:86:07:b1:c1:19:1a:03:d5:4c:f1:d7:56:61:
         60:57:46:6d:23:4c:a9:c1:e2:bc:73:26:31:32:51:35:83:71:
         8f:72:c8:b0:a9:3e:44:d5:7b:08:cc:93:82:1f:ee:c3:18:1b:
         7f:59:df:e1:18:92:5b:0a:16:bb:db:95:24:31:45:b2:c0:c0:
         6b:c8:bd:5b:6e:fc:3a:48:80:6b:60:b9:13:02:b1:0f:b9:e8:
         f5:8b:b4:66:0e:bf:67:ca:21:ff:f5:d4:dc:d4:5a:30:10:65:
         0c:ab:9a:6c:d8:13:3c:58:71:1f:db:80:34:0b:40:ac:38:9f:
         98:70:b7:6a:16:8e:e7:d4:56:f4:a2:cb:1d:21:27:84:8c:69:
         38:ea:4e:5c:0e:ac:c4:6c:4f:d6:97:dc:6b:f4:98:13:00:68:
         37:f9:60:4a:26:31:09:f0:d5:17:ce:f3:d4:1d:1c:d3:34:a5:
         4b:a7:04:94:3e:99:a6:2b:9d:a4:d8:a4:d3:0f:4e:04:db:24:
         0b:ad:0d:e0:e0:64:74:13:8a:e9:74:5f:c2:03:26:5a:4b:97:
         fd:04:b3:17:9b:15:47:7e:8e:28:a0:d2:14:4f:e4:d1:eb:25:
         84:df:70:41
-----BEGIN CERTIFICATE-----
MIIEJjCCAw6gAwIBAgIEEAAAtjANBgkqhkiG9w0BAQUFADBEMQswCQYDVQQGEwJE
RTEPMA0GA1UECAwGSGVzc2VuMRQwEgYDVQQKDAtwcml2YWN5aWRlYTEOMAwGA1UE
AwwFQ0EwMDEwHhcNMTUxMTIyMDkxNjI4WhcNMTYxMTIxMDkxNjI4WjBUMQswCQYD
VQQGEwJERTEPMA0GA1UECAwGSGVzc2VuMRQwEgYDVQQKDAtwcml2YWN5aWRlYTEe
MBwGA1UEAwwVcmVxdWVzdGVyLmxvY2FsZG9tYWluMIIBIjANBgkqhkiG9w0BAQEF
AAOCAQ8AMIIBCgKCAQEAzb4UT/rOAT9CIhsdnK/dktJ/22y3PjlDQ2sTA/EF9Ad0
vHZpKAuvGY7X/OPNxljyyn8IbVP8BwJEJMa0NEyMBP4zDkDiILoCc1r39U9jbszG
tt9UHTc5fVE2Jl+93D+oi2uirrad1iHn30G4eigqaEjKqC3t4elGXlpybbSEOIeR
/ZQRCyiExsIvKvsB+TZ6CXXRM4g8c0FbyL+UiXCh8MC5LlBTHrEXZGn0LYHgqQ0O
Mum6VYqF8RtvSXm0f4jDDT5UiJs9HziMBPPuamMr9cbbtIOqxHhBOn1L4cg+ccob
YVnqxsTKMl7J6b8SKebGw2P+oFXaevFgmE0m7fpwLQIDAQABo4IBDjCCAQowCwYD
VR0PBAQDAgWgMAkGA1UdEwQCMAAwEQYJYIZIAYb4QgEBBAQDAgZAMDMGCWCGSAGG
+EIBDQQmFiRPcGVuU1NMIEdlbmVyYXRlZCBTZXJ2ZXIgQ2VydGlmaWNhdGUwHQYD
VR0OBBYEFFM/7V0JB7Nle6tFySRbCXeACpbtMHQGA1UdIwRtMGuAFPSnwMyRRq9k
85HyJ/jIsm+KhzJzoUikRjBEMQswCQYDVQQGEwJERTEPMA0GA1UECAwGSGVzc2Vu
MRQwEgYDVQQKDAtwcml2YWN5aWRlYTEOMAwGA1UEAwwFQ0EwMDGCCQD7yOusg80S
BzATBgNVHSUEDDAKBggrBgEFBQcDATANBgkqhkiG9w0BAQUFAAOCAQEALb4mTSGI
ht13wlPk2OdAVj3clgQhbEOGB7HBGRoD1Uzx11ZhYFdGbSNMqcHivHMmMTJRNYNx
j3LIsKk+RNV7CMyTgh/uwxgbf1nf4RiSWwoWu9uVJDFFssDAa8i9W278OkiAa2C5
EwKxD7no9Yu0Zg6/Z8oh//XU3NRaMBBlDKuabNgTPFhxH9uANAtArDifmHC3ahaO
59RW9KLLHSEnhIxpOOpOXA6sxGxP1pfca/SYEwBoN/lgSiYxCfDVF87z1B0c0zSl
S6cElD6ZpiudpNik0w9OBNskC60N4OBkdBOK6XRfwgMmWkuX/QSzF5sVR36OKKDS
FE/k0eslhN9wQQ==
-----END CERTIFICATE-----
