Certificate:
    Data:
        Version: 3 (0x2)
        Serial Number: 268435643 (0x100000bb)
    Signature Algorithm: sha1WithRSAEncryption
        Issuer: C=DE, ST=Hessen, O=privacyidea, CN=CA001
        Validity
            Not Before: Nov 22 09:27:19 2015 GMT
            Not After : Nov 21 09:27:19 2016 GMT
        Subject: CN=selfservice,CN=user,O=realm1/emailAddress=meine
        Subject Public Key Info:
            Public Key Algorithm: rsaEncryption
                Public-Key: (2048 bit)
                Modulus:
                    00:cf:3c:d4:33:0e:12:c4:e6:da:cd:b6:56:a1:1c:
                    26:bb:26:1c:8a:4a:73:a8:58:8a:b6:1e:b3:8b:99:
                    d2:1d:07:c2:92:89:79:c0:69:d8:c8:df:28:61:98:
                    1e:b3:fe:ae:2b:bd:78:a9:f7:6e:47:dc:a3:a0:16:
                    8c:85:02:c1:4e:92:fd:72:6e:f0:c8:03:29:9b:b8:
                    00:6e:c0:83:95:c8:34:20:36:9c:b3:e5:e4:e6:76:
                    73:a3:1a:ad:40:96:e0:53:54:00:ec:76:79:9a:c6:
                    0d:7e:b6:bd:29:ec:83:f3:cb:89:a4:cb:6c:00:ba:
                    0c:c5:78:0f:ff:69:b8:94:f4:04:70:43:3f:d8:9e:
                    d7:a7:fb:5d:ce:75:8e:da:e7:c4:07:b1:9d:de:6f:
                    88:4b:b6:4d:9a:cf:f9:bc:fa:9f:cd:32:6d:f6:3a:
                    0b:0d:23:42:78:ec:97:42:bf:0e:4d:60:56:e1:d3:
                    02:f2:19:cb:84:57:90:e5:70:a1:a2:83:35:86:e2:
                    da:86:9f:f9:8a:c4:79:b3:52:28:da:cb:bb:34:ca:
                    d3:da:91:4a:cf:8d:76:a2:b2:6b:9b:f9:96:fd:09:
                    2a:da:11:23:4d:f0:cb:d6:b2:b1:0e:12:6c:9a:19:
                    65:98:87:ca:e4:ee:24:ce:44:ac:90:8f:9d:1b:c5:
                    2a:9d
                Exponent: 65537 (0x10001)
        X509v3 extensions:
            X509v3 Key Usage: 
                Digital Signature, Key Encipherment
            X509v3 Basic Constraints: 
                CA:FALSE
            Netscape Cert Type: 
                SSL Server
            Netscape Comment: 
                OpenSSL Generated Server Certificate
            X509v3 Subject Key Identifier: 
                4D:07:90:AD:FF:1D:0D:E7:1A:DD:D6:2E:FA:BA:34:CB:AA:1F:24:C6
            X509v3 Authority Key Identifier: 
                keyid:F4:A7:C0:CC:91:46:AF:64:F3:91:F2:27:F8:C8:B2:6F:8A:87:32:73
                DirName:/C=DE/ST=Hessen/O=privacyidea/CN=CA001
                serial:FB:C8:EB:AC:83:CD:12:07

            X509v3 Extended Key Usage: 
                TLS Web Server Authentication
    Signature Algorithm: sha1WithRSAEncryption
         b8:8f:fe:3f:10:36:52:87:a5:7f:70:5d:3d:cb:4a:7a:04:06:
         ea:33:e0:d8:8e:a7:bd:f3:21:ed:22:91:20:98:b5:5d:61:cf:
         df:02:e7:85:66:14:9d:29:56:64:87:48:4c:c1:39:01:cf:a9:
         14:0e:83:bf:83:25:28:c7:0f:e7:1e:3d:16:19:94:82:be:c2:
         c2:0e:5c:19:25:e8:28:e0:91:cf:0d:cc:62:82:7c:19:d8:4b:
         3a:b8:33:8c:27:bd:8e:1f:4c:5d:0e:ee:ad:4a:1e:8e:60:c7:
         b1:27:9b:5e:01:b7:34:c5:59:29:cd:ce:42:00:a8:91:5c:da:
         06:7f:f9:78:90:ee:5a:87:54:05:7d:59:71:40:93:f9:8e:ad:
         e4:97:58:55:23:03:8a:90:d1:a3:7e:49:32:cd:f0:52:42:4d:
         39:f6:c3:3d:09:6a:9e:52:5a:32:3e:72:0b:67:16:88:fa:f2:
         6d:65:ee:26:6c:8d:84:ca:c4:c5:7a:64:68:40:35:59:ae:ce:
         40:fa:d0:da:36:9d:0e:71:62:f8:09:e8:65:4e:83:08:4d:09:
         b4:33:ed:4a:6a:87:2f:46:6a:99:61:9a:1f:f6:3f:c4:c0:2b:
         8e:f2:87:04:b0:b4:68:4a:3f:05:27:9c:ef:9c:8a:f3:9c:cc:
         ad:8e:8c:5e
-----BEGIN CERTIFICATE-----
MIIEDzCCAvegAwIBAgIEEAAAuzANBgkqhkiG9w0BAQUFADBEMQswCQYDVQQGEwJE
RTEPMA0GA1UECAwGSGVzc2VuMRQwEgYDVQQKDAtwcml2YWN5aWRlYTEOMAwGA1UE
AwwFQ0EwMDEwHhcNMTUxMTIyMDkyNzE5WhcNMTYxMTIxMDkyNzE5WjA9MSUwIwYD
VQQDExxzZWxmc2VydmljZSxDTj11c2VyLE89cmVhbG0xMRQwEgYJKoZIhvcNAQkB
FgVtZWluZTCCASIwDQYJKoZIhvcNAQEBBQADggEPADCCAQoCggEBAM881DMOEsTm
2s22VqEcJrsmHIpKc6hYirYes4uZ0h0HwpKJecBp2MjfKGGYHrP+riu9eKn3bkfc
o6AWjIUCwU6S/XJu8MgDKZu4AG7Ag5XINCA2nLPl5OZ2c6MarUCW4FNUAOx2eZrG
DX62vSnsg/PLiaTLbAC6DMV4D/9puJT0BHBDP9ie16f7Xc51jtrnxAexnd5viEu2
TZrP+bz6n80ybfY6Cw0jQnjsl0K/Dk1gVuHTAvIZy4RXkOVwoaKDNYbi2oaf+YrE
ebNSKNrLuzTK09qRSs+NdqKya5v5lv0JKtoRI03wy9aysQ4SbJoZZZiHyuTuJM5E
rJCPnRvFKp0CAwEAAaOCAQ4wggEKMAsGA1UdDwQEAwIFoDAJBgNVHRMEAjAAMBEG
CWCGSAGG+EIBAQQEAwIGQDAzBglghkgBhvhCAQ0EJhYkT3BlblNTTCBHZW5lcmF0
ZWQgU2VydmVyIENlcnRpZmljYXRlMB0GA1UdDgQWBBRNB5Ct/x0N5xrd1i76ujTL
qh8kxjB0BgNVHSMEbTBrgBT0p8DMkUavZPOR8if4yLJviocyc6FIpEYwRDELMAkG
A1UEBhMCREUxDzANBgNVBAgMBkhlc3NlbjEUMBIGA1UECgwLcHJpdmFjeWlkZWEx
DjAMBgNVBAMMBUNBMDAxggkA+8jrrIPNEgcwEwYDVR0lBAwwCgYIKwYBBQUHAwEw
DQYJKoZIhvcNAQEFBQADggEBALiP/j8QNlKHpX9wXT3LSnoEBuoz4NiOp73zIe0i
kSCYtV1hz98C54VmFJ0pVmSHSEzBOQHPqRQOg7+DJSjHD+cePRYZlIK+wsIOXBkl
6Cjgkc8NzGKCfBnYSzq4M4wnvY4fTF0O7q1KHo5gx7Enm14BtzTFWSnNzkIAqJFc
2gZ/+XiQ7lqHVAV9WXFAk/mOreSXWFUjA4qQ0aN+STLN8FJCTTn2wz0Jap5SWjI+
cgtnFoj68m1l7iZsjYTKxMV6ZGhANVmuzkD60No2nQ5xYvgJ6GVOgwhNCbQz7Upq
hy9Gaplhmh/2P8TAK47yhwSwtGhKPwUnnO+civOczK2OjF4=
-----END CERTIFICATE-----
