Certificate:
    Data:
        Version: 3 (0x2)
        Serial Number: 268435646 (0x100000be)
    Signature Algorithm: sha1WithRSAEncryption
        Issuer: C=DE, ST=Hessen, O=privacyidea, CN=CA001
        Validity
            Not Before: Nov 22 09:40:26 2015 GMT
            Not After : Nov 21 09:40:26 2016 GMT
        Subject: C=DE, ST=Hessen, O=privacyidea, CN=usercert
        Subject Public Key Info:
            Public Key Algorithm: rsaEncryption
                Public-Key: (2048 bit)
                Modulus:
                    00:dc:2f:d1:5f:29:97:d4:7c:c3:53:c8:30:bd:4b:
                    67:70:2c:24:6b:b8:5e:eb:21:7a:48:12:56:7c:81:
                    5c:48:75:b6:68:eb:f6:f2:98:4e:50:51:d1:7f:6c:
                    73:f3:0a:a7:ae:be:48:5e:e5:d6:e1:d9:2a:7c:32:
                    6e:4e:fd:08:f6:5a:54:49:23:73:c3:b9:07:18:d1:
                    ef:b3:ac:f8:8a:dc:94:96:a4:90:3a:8e:74:df:e6:
                    0d:37:1b:bd:5b:b7:25:1a:56:39:da:6f:91:aa:5e:
                    1c:74:f3:f9:7c:14:01:83:12:65:76:c7:bb:fe:36:
                    5b:95:e9:72:65:83:ed:3e:98:30:71:fa:87:dd:a3:
                    36:5a:30:03:2e:26:e0:61:d1:bf:02:3f:b6:06:1f:
                    4a:89:28:1c:5c:a2:ff:4e:be:94:e6:8c:e0:da:82:
                    f1:9d:29:32:48:30:73:b4:04:f6:42:1e:be:f7:e2:
                    32:32:27:3c:9d:89:2f:70:3e:85:9a:6f:5c:c5:09:
                    c0:8c:32:2f:72:22:c9:d2:95:1f:b6:ac:72:60:72:
                    b7:82:4d:6b:ce:5b:e3:00:d0:d2:2f:58:c6:e0:10:
                    e5:51:ca:4d:3b:2e:e6:7e:ab:84:d6:56:f1:93:35:
                    a0:93:64:26:81:75:2f:91:b5:16:06:38:0b:db:cc:
                    2d:07
                Exponent: 65537 (0x10001)
        X509v3 extensions:
            X509v3 Key Usage: 
                Digital Signature, Key Encipherment
            X509v3 Basic Constraints: 
                CA:FALSE
            Netscape Cert Type: 
                SSL Server
            Netscape Comment: 
                OpenSSL Generated Server Certificate
            X509v3 Subject Key Identifier: 
                FC:14:D1:F0:4B:8D:00:90:F2:F5:B8:71:9E:4E:97:C3:92:54:AD:0B
            X509v3 Authority Key Identifier: 
                keyid:F4:A7:C0:CC:91:46:AF:64:F3:91:F2:27:F8:C8:B2:6F:8A:87:32:73
                DirName:/C=DE/ST=Hessen/O=privacyidea/CN=CA001
                serial:FB:C8:EB:AC:83:CD:12:07

            X509v3 Extended Key Usage: 
                TLS Web Server Authentication
    Signature Algorithm: sha1WithRSAEncryption
         6c:9b:28:c3:d2:c9:ce:ee:a1:c8:c9:b7:b4:62:ac:e9:c1:b0:
         20:a9:d6:13:90:e2:14:70:92:8e:48:a7:68:3a:6e:ae:f9:75:
         8c:cb:1e:40:11:23:4b:a6:12:59:db:2e:03:d7:f6:25:db:b0:
         cd:48:b6:00:bc:6f:98:b9:44:bf:7b:70:48:13:7c:62:f8:b1:
         ab:1d:95:42:87:8e:4b:4b:26:0b:4a:82:7c:0f:05:4e:ce:be:
         19:2b:55:b4:3c:a8:99:b0:af:dd:75:06:d8:71:21:67:1c:cd:
         64:50:e5:ca:d5:49:05:f1:40:ee:71:c5:b8:f1:3f:cf:cc:17:
         c3:e2:4c:8f:2a:16:1c:70:49:01:46:38:8a:4a:26:ee:33:4a:
         5d:49:e5:1b:ad:3e:28:2e:c1:0d:48:10:6c:da:1f:62:c1:8b:
         dc:54:51:cb:ea:36:5f:a9:da:8f:78:d2:2d:a5:68:bd:7b:77:
         52:cf:de:b8:6c:94:dd:76:e0:33:b3:83:18:dc:6d:9c:76:98:
         ea:0d:29:05:d3:2b:11:9e:a0:c3:3c:9a:12:9f:54:e8:99:df:
         35:ed:6d:93:0f:6d:48:08:54:2d:7d:94:7c:4c:82:2f:35:26:
         ca:5d:06:86:ab:c6:a6:6e:f9:f4:fe:49:56:16:45:12:e7:89:
         97:42:e9:00
-----BEGIN CERTIFICATE-----
MIIEGTCCAwGgAwIBAgIEEAAAvjANBgkqhkiG9w0BAQUFADBEMQswCQYDVQQGEwJE
RTEPMA0GA1UECAwGSGVzc2VuMRQwEgYDVQQKDAtwcml2YWN5aWRlYTEOMAwGA1UE
AwwFQ0EwMDEwHhcNMTUxMTIyMDk0MDI2WhcNMTYxMTIxMDk0MDI2WjBHMQswCQYD
VQQGEwJERTEPMA0GA1UECAwGSGVzc2VuMRQwEgYDVQQKDAtwcml2YWN5aWRlYTER
MA8GA1UEAwwIdXNlcmNlcnQwggEiMA0GCSqGSIb3DQEBAQUAA4IBDwAwggEKAoIB
AQDcL9FfKZfUfMNTyDC9S2dwLCRruF7rIXpIElZ8gVxIdbZo6/bymE5QUdF/bHPz
Cqeuvkhe5dbh2Sp8Mm5O/Qj2WlRJI3PDuQcY0e+zrPiK3JSWpJA6jnTf5g03G71b
tyUaVjnab5GqXhx08/l8FAGDEmV2x7v+NluV6XJlg+0+mDBx+ofdozZaMAMuJuBh
0b8CP7YGH0qJKBxcov9OvpTmjODagvGdKTJIMHO0BPZCHr734jIyJzydiS9wPoWa
b1zFCcCMMi9yIsnSlR+2rHJgcreCTWvOW+MA0NIvWMbgEOVRyk07LuZ+q4TWVvGT
NaCTZCaBdS+RtRYGOAvbzC0HAgMBAAGjggEOMIIBCjALBgNVHQ8EBAMCBaAwCQYD
VR0TBAIwADARBglghkgBhvhCAQEEBAMCBkAwMwYJYIZIAYb4QgENBCYWJE9wZW5T
U0wgR2VuZXJhdGVkIFNlcnZlciBDZXJ0aWZpY2F0ZTAdBgNVHQ4EFgQU/BTR8EuN
AJDy9bhxnk6Xw5JUrQswdAYDVR0jBG0wa4AU9KfAzJFGr2TzkfIn+Miyb4qHMnOh
SKRGMEQxCzAJBgNVBAYTAkRFMQ8wDQYDVQQIDAZIZXNzZW4xFDASBgNVBAoMC3By
aXZhY3lpZGVhMQ4wDAYDVQQDDAVDQTAwMYIJAPvI66yDzRIHMBMGA1UdJQQMMAoG
CCsGAQUFBwMBMA0GCSqGSIb3DQEBBQUAA4IBAQBsmyjD0snO7qHIybe0YqzpwbAg
qdYTkOIUcJKOSKdoOm6u+XWMyx5AESNLphJZ2y4D1/Yl27DNSLYAvG+YuUS/e3BI
E3xi+LGrHZVCh45LSyYLSoJ8DwVOzr4ZK1W0PKiZsK/ddQbYcSFnHM1kUOXK1UkF
8UDuccW48T/PzBfD4kyPKhYccEkBRjiKSibuM0pdSeUbrT4oLsENSBBs2h9iwYvc
VFHL6jZfqdqPeNItpWi9e3dSz964bJTdduAzs4MY3G2cdpjqDSkF0ysRnqDDPJoS
n1Tomd817W2TD21ICFQtfZR8TIIvNSbKXQaGq8ambvn0/klWFkUS54mXQukA
-----END CERTIFICATE-----
