Certificate:
    Data:
        Version: 3 (0x2)
        Serial Number: 268435655 (0x100000c7)
    Signature Algorithm: sha1WithRSAEncryption
        Issuer: C=DE, ST=Hessen, O=privacyidea, CN=CA001
        Validity
            Not Before: Oct 31 19:08:08 2015 GMT
            Not After : Oct 30 19:08:08 2016 GMT
        Subject: C=DE, ST=Hessen, O=privacyidea, CN=requester.localdomain
        Subject Public Key Info:
            Public Key Algorithm: rsaEncryption
                Public-Key: (2048 bit)
                Modulus:
                    00:cd:be:14:4f:fa:ce:01:3f:42:22:1b:1d:9c:af:
                    dd:92:d2:7f:db:6c:b7:3e:39:43:43:6b:13:03:f1:
                    05:f4:07:74:bc:76:69:28:0b:af:19:8e:d7:fc:e3:
                    cd:c6:58:f2:ca:7f:08:6d:53:fc:07:02:44:24:c6:
                    b4:34:4c:8c:04:fe:33:0e:40:e2:20:ba:02:73:5a:
                    f7:f5:4f:63:6e:cc:c6:b6:df:54:1d:37:39:7d:51:
                    36:26:5f:bd:dc:3f:a8:8b:6b:a2:ae:b6:9d:d6:21:
                    e7:df:41:b8:7a:28:2a:68:48:ca:a8:2d:ed:e1:e9:
                    46:5e:5a:72:6d:b4:84:38:87:91:fd:94:11:0b:28:
                    84:c6:c2:2f:2a:fb:01:f9:36:7a:09:75:d1:33:88:
                    3c:73:41:5b:c8:bf:94:89:70:a1:f0:c0:b9:2e:50:
                    53:1e:b1:17:64:69:f4:2d:81:e0:a9:0d:0e:32:e9:
                    ba:55:8a:85:f1:1b:6f:49:79:b4:7f:88:c3:0d:3e:
                    54:88:9b:3d:1f:38:8c:04:f3:ee:6a:63:2b:f5:c6:
                    db:b4:83:aa:c4:78:41:3a:7d:4b:e1:c8:3e:71:ca:
                    1b:61:59:ea:c6:c4:ca:32:5e:c9:e9:bf:12:29:e6:
                    c6:c3:63:fe:a0:55:da:7a:f1:60:98:4d:26:ed:fa:
                    70:2d
                Exponent: 65537 (0x10001)
        X509v3 extensions:
            X509v3 Key Usage: 
                Digital Signature, Key Encipherment
            X509v3 Basic Constraints: 
                CA:FALSE
            Netscape Cert Type: 
                SSL Server
            Netscape Comment: 
                OpenSSL Generated Server Certificate
            X509v3 Subject Key Identifier: 
                53:3F:ED:5D:09:07:B3:65:7B:AB:45:C9:24:5B:09:77:80:0A:96:ED
            X509v3 Authority Key Identifier: 
                keyid:F4:A7:C0:CC:91:46:AF:64:F3:91:F2:27:F8:C8:B2:6F:8A:87:32:73
                DirName:/C=DE/ST=Hessen/O=privacyidea/CN=CA001
                serial:FB:C8:EB:AC:83:CD:12:07

            X509v3 Extended Key Usage: 
                TLS Web Server Authentication
    Signature Algorithm: sha1WithRSAEncryption
         4b:15:e7:22:03:d0:cd:40:d4:d5:7c:4a:b8:0d:0f:e3:4a:53:
         d6:e1:f4:70:8a:d8:63:e9:a4:4f:e3:68:04:e8:c3:3d:c9:0b:
         97:96:07:b8:8f:a0:43:cc:e9:27:ea:75:a4:9d:b4:d9:6e:58:
         a9:0d:a6:85:36:98:92:89:1a:0e:16:64:6d:c9:c7:de:b5:4c:
         fb:a2:40:e6:9f:b8:9c:41:37:da:c6:17:3b:ae:a1:be:03:79:
         d1:b8:04:7b:e7:bd:f8:dc:a8:7b:0f:f6:a2:b0:24:0a:5e:b5:
         42:22:b3:9e:d8:f0:e7:9a:4b:2e:5e:bc:61:b5:50:79:9f:91:
         c0:e4:a4:2c:af:f0:12:ca:57:67:68:71:70:37:09:83:17:fd:
         f4:54:6f:0e:0b:15:2f:64:72:66:94:fb:63:d4:7d:c1:6c:8a:
         bb:a9:5f:e1:10:cb:45:a0:a3:3a:e0:6b:ce:71:b1:7d:6e:38:
         97:28:f6:1d:83:08:be:cf:af:60:a5:68:88:ff:69:04:38:c1:
         da:0c:f5:07:f6:f6:02:b9:38:88:aa:ff:f1:09:2a:ec:35:2f:
         f1:dc:1a:42:42:5f:af:e8:e4:10:89:39:0b:75:10:88:cb:d5:
         7e:8d:92:5f:bd:bb:33:6d:73:d2:92:3d:9c:1e:bf:fc:85:52:
         34:f3:b6:1a
-----BEGIN CERTIFICATE-----
MIIEJjCCAw6gAwIBAgIEEAAAxzANBgkqhkiG9w0BAQUFADBEMQswCQYDVQQGEwJE
RTEPMA0GA1UECAwGSGVzc2VuMRQwEgYDVQQKDAtwcml2YWN5aWRlYTEOMAwGA1UE
AwwFQ0EwMDEwHhcNMTUxMDMxMTkwODA4WhcNMTYxMDMwMTkwODA4WjBUMQswCQYD
VQQGEwJERTEPMA0GA1UECAwGSGVzc2VuMRQwEgYDVQQKDAtwcml2YWN5aWRlYTEe
MBwGA1UEAwwVcmVxdWVzdGVyLmxvY2FsZG9tYWluMIIBIjANBgkqhkiG9w0BAQEF
AAOCAQ8AMIIBCgKCAQEAzb4UT/rOAT9CIhsdnK/dktJ/22y3PjlDQ2sTA/EF9Ad0
vHZpKAuvGY7X/OPNxljyyn8IbVP8BwJEJMa0NEyMBP4zDkDiILoCc1r39U9jbszG
tt9UHTc5fVE2Jl+93D+oi2uirrad1iHn30G4eigqaEjKqC3t4elGXlpybbSEOIeR
/ZQRCyiExsIvKvsB+TZ6CXXRM4g8c0FbyL+UiXCh8MC5LlBTHrEXZGn0LYHgqQ0O
Mum6VYqF8RtvSXm0f4jDDT5UiJs9HziMBPPuamMr9cbbtIOqxHhBOn1L4cg+ccob
YVnqxsTKMl7J6b8SKebGw2P+oFXaevFgmE0m7fpwLQIDAQABo4IBDjCCAQowCwYD
VR0PBAQDAgWgMAkGA1UdEwQCMAAwEQYJYIZIAYb4QgEBBAQDAgZAMDMGCWCGSAGG
+EIBDQQmFiRPcGVuU1NMIEdlbmVyYXRlZCBTZXJ2ZXIgQ2VydGlmaWNhdGUwHQYD
VR0OBBYEFFM/7V0JB7Nle6tFySRbCXeACpbtMHQGA1UdIwRtMGuAFPSnwMyRRq9k
85HyJ/jIsm+KhzJzoUikRjBEMQswCQYDVQQGEwJERTEPMA0GA1UECAwGSGVzc2Vu
MRQwEgYDVQQKDAtwcml2YWN5aWRlYTEOMAwGA1UEAwwFQ0EwMDGCCQD7yOusg80S
BzATBgNVHSUEDDAKBggrBgEFBQcDATANBgkqhkiG9w0BAQUFAAOCAQEASxXnIgPQ
zUDU1XxKuA0P40pT1uH0cIrYY+mkT+NoBOjDPckLl5YHuI+gQ8zpJ+p1pJ202W5Y
qQ2mhTaYkokaDhZkbcnH3rVM+6JA5p+4nEE32sYXO66hvgN50bgEe+e9+Nyoew/2
orAkCl61QiKzntjw55pLLl68YbVQeZ+RwOSkLK/wEspXZ2hxcDcJgxf99FRvDgsV
L2RyZpT7Y9R9wWyKu6lf4RDLRaCjOuBrznGxfW44lyj2HYMIvs+vYKVoiP9pBDjB
2gz1B/b2Ark4iKr/8Qkq7DUv8dwaQkJfr+jkEIk5C3UQiMvVfo2SX727M21z0pI9
nB6//IVSNPO2Gg==
-----END CERTIFICATE-----
