Certificate:
    Data:
        Version: 3 (0x2)
        Serial Number: 268435657 (0x100000c9)
    Signature Algorithm: sha1WithRSAEncryption
        Issuer: C=DE, ST=Hessen, O=privacyidea, CN=CA001
        Validity
            Not Before: Oct 31 19:09:33 2015 GMT
            Not After : Oct 30 19:09:33 2016 GMT
        Subject: C=DE, ST=Hessen, O=privacyidea, CN=usercert
        Subject Public Key Info:
            Public Key Algorithm: rsaEncryption
                Public-Key: (2048 bit)
                Modulus:
                    00:dc:2f:d1:5f:29:97:d4:7c:c3:53:c8:30:bd:4b:
                    67:70:2c:24:6b:b8:5e:eb:21:7a:48:12:56:7c:81:
                    5c:48:75:b6:68:eb:f6:f2:98:4e:50:51:d1:7f:6c:
                    73:f3:0a:a7:ae:be:48:5e:e5:d6:e1:d9:2a:7c:32:
                    6e:4e:fd:08:f6:5a:54:49:23:73:c3:b9:07:18:d1:
                    ef:b3:ac:f8:8a:dc:94:96:a4:90:3a:8e:74:df:e6:
                    0d:37:1b:bd:5b:b7:25:1a:56:39:da:6f:91:aa:5e:
                    1c:74:f3:f9:7c:14:01:83:12:65:76:c7:bb:fe:36:
                    5b:95:e9:72:65:83:ed:3e:98:30:71:fa:87:dd:a3:
                    36:5a:30:03:2e:26:e0:61:d1:bf:02:3f:b6:06:1f:
                    4a:89:28:1c:5c:a2:ff:4e:be:94:e6:8c:e0:da:82:
                    f1:9d:29:32:48:30:73:b4:04:f6:42:1e:be:f7:e2:
                    32:32:27:3c:9d:89:2f:70:3e:85:9a:6f:5c:c5:09:
                    c0:8c:32:2f:72:22:c9:d2:95:1f:b6:ac:72:60:72:
                    b7:82:4d:6b:ce:5b:e3:00:d0:d2:2f:58:c6:e0:10:
                    e5:51:ca:4d:3b:2e:e6:7e:ab:84:d6:56:f1:93:35:
                    a0:93:64:26:81:75:2f:91:b5:16:06:38:0b:db:cc:
                    2d:07
                Exponent: 65537 (0x10001)
        X509v3 extensions:
            X509v3 Key Usage: 
                Digital Signature, Key Encipherment
            X509v3 Basic Constraints: 
                CA:FALSE
            Netscape Cert Type: 
                SSL Server
            Netscape Comment: 
                OpenSSL Generated Server Certificate
            X509v3 Subject Key Identifier: 
                FC:14:D1:F0:4B:8D:00:90:F2:F5:B8:71:9E:4E:97:C3:92:54:AD:0B
            X509v3 Authority Key Identifier: 
                keyid:F4:A7:C0:CC:91:46:AF:64:F3:91:F2:27:F8:C8:B2:6F:8A:87:32:73
                DirName:/C=DE/ST=Hessen/O=privacyidea/CN=CA001
                serial:FB:C8:EB:AC:83:CD:12:07

            X509v3 Extended Key Usage: 
                TLS Web Server Authentication
    Signature Algorithm: sha1WithRSAEncryption
         a0:36:f7:ec:d2:07:46:5e:d5:9e:cd:49:32:cb:be:92:04:f6:
         ab:73:52:18:4c:c5:de:9e:63:d6:ca:ff:aa:00:3b:07:b6:4c:
         8e:b3:9b:a2:32:c9:b6:8c:34:e4:2d:e2:ca:e6:85:a0:f8:46:
         94:6f:48:d6:fc:d1:b4:02:2c:ae:8f:6b:b2:64:3a:02:d2:93:
         2b:12:fb:7c:34:0c:aa:3e:e1:a8:39:e6:af:f5:3a:56:36:20:
         98:18:ed:6b:c9:3e:64:6f:7e:b2:e9:4c:b0:13:3b:ac:df:f0:
         19:00:f1:2b:73:2c:aa:13:fb:94:8c:9f:1a:ca:55:6c:7a:aa:
         c4:3c:c2:c5:95:ea:01:37:75:13:8e:80:8a:40:ac:17:53:f9:
         59:d9:37:6a:97:3a:13:14:36:66:6e:11:fc:ed:e3:fa:81:81:
         6c:c0:08:7a:41:eb:dd:31:f1:03:03:b0:4c:93:48:2b:42:08:
         90:ca:3d:f9:ab:ae:f5:0c:dd:7a:a8:6a:3e:4e:a3:50:74:18:
         71:33:c9:84:72:2b:b3:13:49:5f:d0:7f:8a:d5:fa:65:fc:ca:
         29:d2:0e:90:35:53:2e:4b:f4:e4:86:5a:4b:b1:d6:ca:11:92:
         8f:a6:9a:bb:ad:ed:13:52:0f:fa:28:33:49:88:cd:b0:7d:d0:
         e1:ef:15:ec
-----BEGIN CERTIFICATE-----
MIIEGTCCAwGgAwIBAgIEEAAAyTANBgkqhkiG9w0BAQUFADBEMQswCQYDVQQGEwJE
RTEPMA0GA1UECAwGSGVzc2VuMRQwEgYDVQQKDAtwcml2YWN5aWRlYTEOMAwGA1UE
AwwFQ0EwMDEwHhcNMTUxMDMxMTkwOTMzWhcNMTYxMDMwMTkwOTMzWjBHMQswCQYD
VQQGEwJERTEPMA0GA1UECAwGSGVzc2VuMRQwEgYDVQQKDAtwcml2YWN5aWRlYTER
MA8GA1UEAwwIdXNlcmNlcnQwggEiMA0GCSqGSIb3DQEBAQUAA4IBDwAwggEKAoIB
AQDcL9FfKZfUfMNTyDC9S2dwLCRruF7rIXpIElZ8gVxIdbZo6/bymE5QUdF/bHPz
Cqeuvkhe5dbh2Sp8Mm5O/Qj2WlRJI3PDuQcY0e+zrPiK3JSWpJA6jnTf5g03G71b
tyUaVjnab5GqXhx08/l8FAGDEmV2x7v+NluV6XJlg+0+mDBx+ofdozZaMAMuJuBh
0b8CP7YGH0qJKBxcov9OvpTmjODagvGdKTJIMHO0BPZCHr734jIyJzydiS9wPoWa
b1zFCcCMMi9yIsnSlR+2rHJgcreCTWvOW+MA0NIvWMbgEOVRyk07LuZ+q4TWVvGT
NaCTZCaBdS+RtRYGOAvbzC0HAgMBAAGjggEOMIIBCjALBgNVHQ8EBAMCBaAwCQYD
VR0TBAIwADARBglghkgBhvhCAQEEBAMCBkAwMwYJYIZIAYb4QgENBCYWJE9wZW5T
U0wgR2VuZXJhdGVkIFNlcnZlciBDZXJ0aWZpY2F0ZTAdBgNVHQ4EFgQU/BTR8EuN
AJDy9bhxnk6Xw5JUrQswdAYDVR0jBG0wa4AU9KfAzJFGr2TzkfIn+Miyb4qHMnOh
SKRGMEQxCzAJBgNVBAYTAkRFMQ8wDQYDVQQIDAZIZXNzZW4xFDASBgNVBAoMC3By
aXZhY3lpZGVhMQ4wDAYDVQQDDAVDQTAwMYIJAPvI66yDzRIHMBMGA1UdJQQMMAoG
CCsGAQUFBwMBMA0GCSqGSIb3DQEBBQUAA4IBAQCgNvfs0gdGXtWezUkyy76SBPar
c1IYTMXenmPWyv+qADsHtkyOs5uiMsm2jDTkLeLK5oWg+EaUb0jW/NG0Aiyuj2uy
ZDoC0pMrEvt8NAyqPuGoOeav9TpWNiCYGO1ryT5kb36y6UywEzus3/AZAPErcyyq
E/uUjJ8aylVseqrEPMLFleoBN3UTjoCKQKwXU/lZ2TdqlzoTFDZmbhH87eP6gYFs
wAh6QevdMfEDA7BMk0grQgiQyj35q671DN16qGo+TqNQdBhxM8mEciuzE0lf0H+K
1fpl/Mop0g6QNVMuS/TkhlpLsdbKEZKPppq7re0TUg/6KDNJiM2wfdDh7xXs
-----END CERTIFICATE-----
