Certificate:
    Data:
        Version: 3 (0x2)
        Serial Number: 268435649 (0x100000c1)
    Signature Algorithm: sha1WithRSAEncryption
        Issuer: C=DE, ST=Hessen, O=privacyidea, CN=CA001
        Validity
            Not Before: Nov 22 09:49:45 2015 GMT
            Not After : Nov 21 09:49:45 2016 GMT
        Subject: CN=selfservice,CN=user,O=realm1/emailAddress=meine
        Subject Public Key Info:
            Public Key Algorithm: rsaEncryption
                Public-Key: (2048 bit)
                Modulus:
                    00:cf:3c:d4:33:0e:12:c4:e6:da:cd:b6:56:a1:1c:
                    26:bb:26:1c:8a:4a:73:a8:58:8a:b6:1e:b3:8b:99:
                    d2:1d:07:c2:92:89:79:c0:69:d8:c8:df:28:61:98:
                    1e:b3:fe:ae:2b:bd:78:a9:f7:6e:47:dc:a3:a0:16:
                    8c:85:02:c1:4e:92:fd:72:6e:f0:c8:03:29:9b:b8:
                    00:6e:c0:83:95:c8:34:20:36:9c:b3:e5:e4:e6:76:
                    73:a3:1a:ad:40:96:e0:53:54:00:ec:76:79:9a:c6:
                    0d:7e:b6:bd:29:ec:83:f3:cb:89:a4:cb:6c:00:ba:
                    0c:c5:78:0f:ff:69:b8:94:f4:04:70:43:3f:d8:9e:
                    d7:a7:fb:5d:ce:75:8e:da:e7:c4:07:b1:9d:de:6f:
                    88:4b:b6:4d:9a:cf:f9:bc:fa:9f:cd:32:6d:f6:3a:
                    0b:0d:23:42:78:ec:97:42:bf:0e:4d:60:56:e1:d3:
                    02:f2:19:cb:84:57:90:e5:70:a1:a2:83:35:86:e2:
                    da:86:9f:f9:8a:c4:79:b3:52:28:da:cb:bb:34:ca:
                    d3:da:91:4a:cf:8d:76:a2:b2:6b:9b:f9:96:fd:09:
                    2a:da:11:23:4d:f0:cb:d6:b2:b1:0e:12:6c:9a:19:
                    65:98:87:ca:e4:ee:24:ce:44:ac:90:8f:9d:1b:c5:
                    2a:9d
                Exponent: 65537 (0x10001)
        X509v3 extensions:
            X509v3 Key Usage: 
                Digital Signature, Key Encipherment
            X509v3 Basic Constraints: 
                CA:FALSE
            Netscape Cert Type: 
                SSL Server
            Netscape Comment: 
                OpenSSL Generated Server Certificate
            X509v3 Subject Key Identifier: 
                4D:07:90:AD:FF:1D:0D:E7:1A:DD:D6:2E:FA:BA:34:CB:AA:1F:24:C6
            X509v3 Authority Key Identifier: 
                keyid:F4:A7:C0:CC:91:46:AF:64:F3:91:F2:27:F8:C8:B2:6F:8A:87:32:73
                DirName:/C=DE/ST=Hessen/O=privacyidea/CN=CA001
                serial:FB:C8:EB:AC:83:CD:12:07

            X509v3 Extended Key Usage: 
                TLS Web Server Authentication
    Signature Algorithm: sha1WithRSAEncryption
         9b:69:92:3d:5d:97:59:03:b6:12:54:75:a2:53:51:1e:92:7c:
         57:71:e8:ec:df:62:4c:1a:ef:0e:64:a5:19:d7:94:3e:be:9c:
         8e:d9:ec:b0:95:61:bf:db:b2:a5:97:ee:a6:da:09:1b:5e:07:
         69:80:7d:3b:ae:13:de:f5:f9:15:54:c0:fe:35:c7:dd:e4:aa:
         e4:f0:fb:70:1f:3f:87:9e:7e:e6:f5:29:e3:94:87:d2:22:7b:
         fb:11:61:5f:e1:81:f9:aa:95:8a:e8:ca:47:2c:37:0d:6c:36:
         9e:5b:e9:2a:5e:f3:e3:92:5b:3a:f4:d4:05:07:56:ff:0a:59:
         8f:69:0d:17:50:4b:d3:0c:1a:40:74:64:ec:ee:a1:15:db:fa:
         c6:60:26:63:00:76:aa:29:f0:3e:34:4d:3b:45:e1:e3:b6:85:
         75:1c:7f:fd:8b:28:f3:c6:ed:7b:4c:ed:47:3f:59:1d:19:1e:
         ee:06:1d:e0:4b:fa:e4:b6:0a:51:56:68:6a:77:05:38:cc:06:
         bf:86:ff:4a:55:8d:ec:14:72:39:14:45:db:15:80:64:a7:28:
         7f:dd:ea:29:2c:4f:94:9a:57:1e:82:25:7c:36:a7:a5:ae:84:
         55:b0:88:3a:23:25:ef:65:0f:a3:67:e7:c7:89:4f:47:65:d6:
         07:40:94:f4
-----BEGIN CERTIFICATE-----
MIIEDzCCAvegAwIBAgIEEAAAwTANBgkqhkiG9w0BAQUFADBEMQswCQYDVQQGEwJE
RTEPMA0GA1UECAwGSGVzc2VuMRQwEgYDVQQKDAtwcml2YWN5aWRlYTEOMAwGA1UE
AwwFQ0EwMDEwHhcNMTUxMTIyMDk0OTQ1WhcNMTYxMTIxMDk0OTQ1WjA9MSUwIwYD
VQQDExxzZWxmc2VydmljZSxDTj11c2VyLE89cmVhbG0xMRQwEgYJKoZIhvcNAQkB
FgVtZWluZTCCASIwDQYJKoZIhvcNAQEBBQADggEPADCCAQoCggEBAM881DMOEsTm
2s22VqEcJrsmHIpKc6hYirYes4uZ0h0HwpKJecBp2MjfKGGYHrP+riu9eKn3bkfc
o6AWjIUCwU6S/XJu8MgDKZu4AG7Ag5XINCA2nLPl5OZ2c6MarUCW4FNUAOx2eZrG
DX62vSnsg/PLiaTLbAC6DMV4D/9puJT0BHBDP9ie16f7Xc51jtrnxAexnd5viEu2
TZrP+bz6n80ybfY6Cw0jQnjsl0K/Dk1gVuHTAvIZy4RXkOVwoaKDNYbi2oaf+YrE
ebNSKNrLuzTK09qRSs+NdqKya5v5lv0JKtoRI03wy9aysQ4SbJoZZZiHyuTuJM5E
rJCPnRvFKp0CAwEAAaOCAQ4wggEKMAsGA1UdDwQEAwIFoDAJBgNVHRMEAjAAMBEG
CWCGSAGG+EIBAQQEAwIGQDAzBglghkgBhvhCAQ0EJhYkT3BlblNTTCBHZW5lcmF0
ZWQgU2VydmVyIENlcnRpZmljYXRlMB0GA1UdDgQWBBRNB5Ct/x0N5xrd1i76ujTL
qh8kxjB0BgNVHSMEbTBrgBT0p8DMkUavZPOR8if4yLJviocyc6FIpEYwRDELMAkG
A1UEBhMCREUxDzANBgNVBAgMBkhlc3NlbjEUMBIGA1UECgwLcHJpdmFjeWlkZWEx
DjAMBgNVBAMMBUNBMDAxggkA+8jrrIPNEgcwEwYDVR0lBAwwCgYIKwYBBQUHAwEw
DQYJKoZIhvcNAQEFBQADggEBAJtpkj1dl1kDthJUdaJTUR6SfFdx6OzfYkwa7w5k
pRnXlD6+nI7Z7LCVYb/bsqWX7qbaCRteB2mAfTuuE971+RVUwP41x93kquTw+3Af
P4eefub1KeOUh9Iie/sRYV/hgfmqlYroykcsNw1sNp5b6Spe8+OSWzr01AUHVv8K
WY9pDRdQS9MMGkB0ZOzuoRXb+sZgJmMAdqop8D40TTtF4eO2hXUcf/2LKPPG7XtM
7Uc/WR0ZHu4GHeBL+uS2ClFWaGp3BTjMBr+G/0pVjewUcjkURdsVgGSnKH/d6iks
T5SaVx6CJXw2p6WuhFWwiDojJe9lD6Nn58eJT0dl1gdAlPQ=
-----END CERTIFICATE-----
