Certificate:
    Data:
        Version: 3 (0x2)
        Serial Number: 268435641 (0x100000b9)
    Signature Algorithm: sha1WithRSAEncryption
        Issuer: C=DE, ST=Hessen, O=privacyidea, CN=CA001
        Validity
            Not Before: Nov 22 09:17:52 2015 GMT
            Not After : Nov 21 09:17:52 2016 GMT
        Subject: CN=Steve Test/emailAddress=steve@openssl.org
        Subject Public Key Info:
            Public Key Algorithm: rsaEncryption
                Public-Key: (2048 bit)
                Modulus:
                    00:d2:81:89:20:51:48:0f:73:f4:11:32:24:d5:1f:
                    1c:fd:5c:f5:b6:e6:c5:f0:52:81:dc:d2:af:66:4a:
                    7c:93:31:61:5c:af:d1:6d:06:70:03:60:7c:72:0c:
                    88:dd:49:cd:9e:02:6c:d2:5a:d7:53:0f:f3:da:be:
                    69:64:b5:0f:0c:00:e3:b3:50:47:a3:b3:9b:ba:13:
                    50:d6:58:5a:4b:ab:39:e0:11:ca:0a:27:67:03:78:
                    22:66:6d:92:1e:1b:5c:49:ae:e6:6b:d1:8e:3b:9d:
                    06:d3:c6:ac:4d:53:43:10:ab:e8:96:c1:87:82:97:
                    99:8f:20:d3:99:12:37:31:84:e1:8a:ff:29:03:5f:
                    22:90:3e:7f:9b:e0:20:c1:ad:dc:ae:4c:39:1a:31:
                    96:17:02:8c:b2:d9:b4:0d:20:12:9b:7d:86:54:fd:
                    33:fd:c1:2a:62:46:f8:60:96:cf:6e:01:6f:22:df:
                    13:47:e7:97:ec:05:72:23:a3:62:f8:fa:ef:ac:9c:
                    72:f0:37:cb:2f:37:cf:90:a8:27:51:86:c6:d7:78:
                    08:8f:7e:25:a2:15:70:a2:fb:1c:b6:15:5e:a0:97:
                    8b:81:4c:09:28:8a:27:3b:94:bc:71:db:5b:71:37:
                    9a:2b:16:e0:6f:b5:c9:f5:4b:4f:20:ba:65:cf:af:
                    ad:ad
                Exponent: 65537 (0x10001)
        X509v3 extensions:
            X509v3 Key Usage: 
                Digital Signature, Key Encipherment
            X509v3 Basic Constraints: 
                CA:FALSE
            Netscape Cert Type: 
                SSL Server
            Netscape Comment: 
                OpenSSL Generated Server Certificate
            X509v3 Subject Key Identifier: 
                E5:25:6D:3E:AF:0D:DD:3F:4C:F2:45:19:39:D5:14:DB:7E:9C:C0:AD
            X509v3 Authority Key Identifier: 
                keyid:F4:A7:C0:CC:91:46:AF:64:F3:91:F2:27:F8:C8:B2:6F:8A:87:32:73
                DirName:/C=DE/ST=Hessen/O=privacyidea/CN=CA001
                serial:FB:C8:EB:AC:83:CD:12:07

            X509v3 Extended Key Usage: 
                TLS Web Server Authentication
    Signature Algorithm: sha1WithRSAEncryption
         91:d8:eb:c3:da:f9:1d:e7:65:f8:82:47:a5:be:03:93:90:bb:
         c6:e6:29:2b:d6:c9:f4:87:ea:14:71:09:d2:b8:7d:35:b5:4f:
         f1:76:6b:b3:21:26:87:34:bd:2e:b1:54:6e:26:22:99:cd:ad:
         fb:91:88:0c:28:32:0a:f1:5e:31:58:dc:09:f8:e2:ca:a1:2d:
         00:6d:38:06:27:38:06:41:a2:d8:a7:8d:09:5e:6a:db:b5:ed:
         20:f4:b7:a4:63:6f:9f:0e:9f:4f:a4:19:bb:8d:fa:91:be:6d:
         06:ab:18:99:2b:4b:b5:5b:ce:e8:a3:a2:bc:fe:11:ce:ab:33:
         a1:cd:96:f4:d7:5f:4b:fe:62:1b:0c:7a:9f:01:d0:8f:29:d6:
         a1:1c:0a:4d:3c:ef:96:51:28:e6:6b:14:d4:cc:2e:83:b3:d9:
         af:8f:52:2f:4e:de:0f:99:3e:33:fc:2c:3f:d6:dc:4b:2e:67:
         99:f6:f1:a9:ba:6a:ef:f8:87:dd:b2:12:7d:04:ee:f7:b7:1d:
         98:1c:90:ad:a4:6f:27:ef:3d:94:b3:74:92:13:c7:b6:38:bc:
         4a:dc:96:c4:9a:75:15:89:9f:22:fd:da:c4:fb:9a:6e:4d:94:
         b5:c1:5a:6d:f8:70:b0:1c:6c:44:bf:00:91:62:67:15:c0:3d:
         61:5d:50:3d
-----BEGIN CERTIFICATE-----
MIIECTCCAvGgAwIBAgIEEAAAuTANBgkqhkiG9w0BAQUFADBEMQswCQYDVQQGEwJE
RTEPMA0GA1UECAwGSGVzc2VuMRQwEgYDVQQKDAtwcml2YWN5aWRlYTEOMAwGA1UE
AwwFQ0EwMDEwHhcNMTUxMTIyMDkxNzUyWhcNMTYxMTIxMDkxNzUyWjA3MRMwEQYD
VQQDEwpTdGV2ZSBUZXN0MSAwHgYJKoZIhvcNAQkBFhFzdGV2ZUBvcGVuc3NsLm9y
ZzCCASIwDQYJKoZIhvcNAQEBBQADggEPADCCAQoCggEBANKBiSBRSA9z9BEyJNUf
HP1c9bbmxfBSgdzSr2ZKfJMxYVyv0W0GcANgfHIMiN1JzZ4CbNJa11MP89q+aWS1
DwwA47NQR6Ozm7oTUNZYWkurOeARygonZwN4ImZtkh4bXEmu5mvRjjudBtPGrE1T
QxCr6JbBh4KXmY8g05kSNzGE4Yr/KQNfIpA+f5vgIMGt3K5MORoxlhcCjLLZtA0g
Ept9hlT9M/3BKmJG+GCWz24BbyLfE0fnl+wFciOjYvj676yccvA3yy83z5CoJ1GG
xtd4CI9+JaIVcKL7HLYVXqCXi4FMCSiKJzuUvHHbW3E3misW4G+1yfVLTyC6Zc+v
ra0CAwEAAaOCAQ4wggEKMAsGA1UdDwQEAwIFoDAJBgNVHRMEAjAAMBEGCWCGSAGG
+EIBAQQEAwIGQDAzBglghkgBhvhCAQ0EJhYkT3BlblNTTCBHZW5lcmF0ZWQgU2Vy
dmVyIENlcnRpZmljYXRlMB0GA1UdDgQWBBTlJW0+rw3dP0zyRRk51RTbfpzArTB0
BgNVHSMEbTBrgBT0p8DMkUavZPOR8if4yLJviocyc6FIpEYwRDELMAkGA1UEBhMC
REUxDzANBgNVBAgMBkhlc3NlbjEUMBIGA1UECgwLcHJpdmFjeWlkZWExDjAMBgNV
BAMMBUNBMDAxggkA+8jrrIPNEgcwEwYDVR0lBAwwCgYIKwYBBQUHAwEwDQYJKoZI
hvcNAQEFBQADggEBAJHY68Pa+R3nZfiCR6W+A5OQu8bmKSvWyfSH6hRxCdK4fTW1
T/F2a7MhJoc0vS6xVG4mIpnNrfuRiAwoMgrxXjFY3An44sqhLQBtOAYnOAZBotin
jQleatu17SD0t6Rjb58On0+kGbuN+pG+bQarGJkrS7Vbzuijorz+Ec6rM6HNlvTX
X0v+YhsMep8B0I8p1qEcCk0875ZRKOZrFNTMLoOz2a+PUi9O3g+ZPjP8LD/W3Esu
Z5n28am6au/4h92yEn0E7ve3HZgckK2kbyfvPZSzdJITx7Y4vErclsSadRWJnyL9
2sT7mm5NlLXBWm34cLAcbES/AJFiZxXAPWFdUD0=
-----END CERTIFICATE-----
