Certificate:
    Data:
        Version: 3 (0x2)
        Serial Number: 268435648 (0x100000c0)
    Signature Algorithm: sha1WithRSAEncryption
        Issuer: C=DE, ST=Hessen, O=privacyidea, CN=CA001
        Validity
            Not Before: Nov 22 09:42:32 2015 GMT
            Not After : Nov 21 09:42:32 2016 GMT
        Subject: C=DE, ST=Hessen, O=privacyidea, CN=requester.localdomain
        Subject Public Key Info:
            Public Key Algorithm: rsaEncryption
                Public-Key: (2048 bit)
                Modulus:
                    00:cd:be:14:4f:fa:ce:01:3f:42:22:1b:1d:9c:af:
                    dd:92:d2:7f:db:6c:b7:3e:39:43:43:6b:13:03:f1:
                    05:f4:07:74:bc:76:69:28:0b:af:19:8e:d7:fc:e3:
                    cd:c6:58:f2:ca:7f:08:6d:53:fc:07:02:44:24:c6:
                    b4:34:4c:8c:04:fe:33:0e:40:e2:20:ba:02:73:5a:
                    f7:f5:4f:63:6e:cc:c6:b6:df:54:1d:37:39:7d:51:
                    36:26:5f:bd:dc:3f:a8:8b:6b:a2:ae:b6:9d:d6:21:
                    e7:df:41:b8:7a:28:2a:68:48:ca:a8:2d:ed:e1:e9:
                    46:5e:5a:72:6d:b4:84:38:87:91:fd:94:11:0b:28:
                    84:c6:c2:2f:2a:fb:01:f9:36:7a:09:75:d1:33:88:
                    3c:73:41:5b:c8:bf:94:89:70:a1:f0:c0:b9:2e:50:
                    53:1e:b1:17:64:69:f4:2d:81:e0:a9:0d:0e:32:e9:
                    ba:55:8a:85:f1:1b:6f:49:79:b4:7f:88:c3:0d:3e:
                    54:88:9b:3d:1f:38:8c:04:f3:ee:6a:63:2b:f5:c6:
                    db:b4:83:aa:c4:78:41:3a:7d:4b:e1:c8:3e:71:ca:
                    1b:61:59:ea:c6:c4:ca:32:5e:c9:e9:bf:12:29:e6:
                    c6:c3:63:fe:a0:55:da:7a:f1:60:98:4d:26:ed:fa:
                    70:2d
                Exponent: 65537 (0x10001)
        X509v3 extensions:
            X509v3 Key Usage: 
                Digital Signature, Key Encipherment
            X509v3 Basic Constraints: 
                CA:FALSE
            Netscape Cert Type: 
                SSL Server
            Netscape Comment: 
                OpenSSL Generated Server Certificate
            X509v3 Subject Key Identifier: 
                53:3F:ED:5D:09:07:B3:65:7B:AB:45:C9:24:5B:09:77:80:0A:96:ED
            X509v3 Authority Key Identifier: 
                keyid:F4:A7:C0:CC:91:46:AF:64:F3:91:F2:27:F8:C8:B2:6F:8A:87:32:73
                DirName:/C=DE/ST=Hessen/O=privacyidea/CN=CA001
                serial:FB:C8:EB:AC:83:CD:12:07

            X509v3 Extended Key Usage: 
                TLS Web Server Authentication
    Signature Algorithm: sha1WithRSAEncryption
         04:30:25:29:ee:49:3b:a0:80:31:08:ac:4b:cc:b6:95:22:b5:
         39:61:b9:62:32:3e:84:db:98:16:7e:55:b3:10:be:52:a9:92:
         39:8d:d1:97:cf:f8:9d:5f:f2:1d:29:e2:31:49:74:21:b0:fa:
         df:f9:c2:08:5c:41:e5:2a:e9:a9:09:c7:b3:9d:a5:22:df:53:
         bc:ca:8d:a5:ec:1d:ed:55:5c:cb:26:ee:ae:d3:a5:2b:29:9c:
         c1:f1:30:be:6c:de:8b:6e:96:62:6a:3a:be:ec:7b:2a:f5:34:
         27:c5:0a:1d:9e:93:96:5e:c8:67:61:e6:dc:21:39:b7:59:24:
         29:e6:78:6d:81:55:e7:95:d2:47:d5:72:8c:9b:7f:71:f5:44:
         bf:0c:a1:0b:9c:b6:ce:80:f8:f4:9f:6d:85:4b:61:d1:4c:1f:
         e3:3a:f4:f1:9f:ce:af:cc:36:2e:df:47:38:d3:24:dc:c4:29:
         d3:bf:a9:32:20:4b:b2:b0:8b:13:41:67:4d:66:5d:6a:7e:54:
         da:42:32:47:ea:c2:1e:d8:d8:7a:1b:dd:d7:77:b2:56:5e:d6:
         3d:89:fb:80:d8:f7:fe:99:ca:cc:25:f0:ab:22:eb:14:dc:19:
         41:8a:a3:08:15:cd:72:96:d0:bf:f4:36:73:6b:2b:9c:50:70:
         af:45:ff:82
-----BEGIN CERTIFICATE-----
MIIEJjCCAw6gAwIBAgIEEAAAwDANBgkqhkiG9w0BAQUFADBEMQswCQYDVQQGEwJE
RTEPMA0GA1UECAwGSGVzc2VuMRQwEgYDVQQKDAtwcml2YWN5aWRlYTEOMAwGA1UE
AwwFQ0EwMDEwHhcNMTUxMTIyMDk0MjMyWhcNMTYxMTIxMDk0MjMyWjBUMQswCQYD
VQQGEwJERTEPMA0GA1UECAwGSGVzc2VuMRQwEgYDVQQKDAtwcml2YWN5aWRlYTEe
MBwGA1UEAwwVcmVxdWVzdGVyLmxvY2FsZG9tYWluMIIBIjANBgkqhkiG9w0BAQEF
AAOCAQ8AMIIBCgKCAQEAzb4UT/rOAT9CIhsdnK/dktJ/22y3PjlDQ2sTA/EF9Ad0
vHZpKAuvGY7X/OPNxljyyn8IbVP8BwJEJMa0NEyMBP4zDkDiILoCc1r39U9jbszG
tt9UHTc5fVE2Jl+93D+oi2uirrad1iHn30G4eigqaEjKqC3t4elGXlpybbSEOIeR
/ZQRCyiExsIvKvsB+TZ6CXXRM4g8c0FbyL+UiXCh8MC5LlBTHrEXZGn0LYHgqQ0O
Mum6VYqF8RtvSXm0f4jDDT5UiJs9HziMBPPuamMr9cbbtIOqxHhBOn1L4cg+ccob
YVnqxsTKMl7J6b8SKebGw2P+oFXaevFgmE0m7fpwLQIDAQABo4IBDjCCAQowCwYD
VR0PBAQDAgWgMAkGA1UdEwQCMAAwEQYJYIZIAYb4QgEBBAQDAgZAMDMGCWCGSAGG
+EIBDQQmFiRPcGVuU1NMIEdlbmVyYXRlZCBTZXJ2ZXIgQ2VydGlmaWNhdGUwHQYD
VR0OBBYEFFM/7V0JB7Nle6tFySRbCXeACpbtMHQGA1UdIwRtMGuAFPSnwMyRRq9k
85HyJ/jIsm+KhzJzoUikRjBEMQswCQYDVQQGEwJERTEPMA0GA1UECAwGSGVzc2Vu
MRQwEgYDVQQKDAtwcml2YWN5aWRlYTEOMAwGA1UEAwwFQ0EwMDGCCQD7yOusg80S
BzATBgNVHSUEDDAKBggrBgEFBQcDATANBgkqhkiG9w0BAQUFAAOCAQEABDAlKe5J
O6CAMQisS8y2lSK1OWG5YjI+hNuYFn5VsxC+UqmSOY3Rl8/4nV/yHSniMUl0IbD6
3/nCCFxB5SrpqQnHs52lIt9TvMqNpewd7VVcyyburtOlKymcwfEwvmzei26WYmo6
vux7KvU0J8UKHZ6Tll7IZ2Hm3CE5t1kkKeZ4bYFV55XSR9VyjJt/cfVEvwyhC5y2
zoD49J9thUth0Uwf4zr08Z/Or8w2Lt9HONMk3MQp07+pMiBLsrCLE0FnTWZdan5U
2kIyR+rCHtjYehvd13eyVl7WPYn7gNj3/pnKzCXwqyLrFNwZQYqjCBXNcpbQv/Q2
c2srnFBwr0X/gg==
-----END CERTIFICATE-----
