Certificate:
    Data:
        Version: 3 (0x2)
        Serial Number: 268435652 (0x100000c4)
    Signature Algorithm: sha1WithRSAEncryption
        Issuer: C=DE, ST=Hessen, O=privacyidea, CN=CA001
        Validity
            Not Before: Oct 31 17:49:47 2015 GMT
            Not After : Oct 30 17:49:47 2016 GMT
        Subject: CN=Steve Test/emailAddress=steve@openssl.org
        Subject Public Key Info:
            Public Key Algorithm: rsaEncryption
                Public-Key: (2048 bit)
                Modulus:
                    00:d2:81:89:20:51:48:0f:73:f4:11:32:24:d5:1f:
                    1c:fd:5c:f5:b6:e6:c5:f0:52:81:dc:d2:af:66:4a:
                    7c:93:31:61:5c:af:d1:6d:06:70:03:60:7c:72:0c:
                    88:dd:49:cd:9e:02:6c:d2:5a:d7:53:0f:f3:da:be:
                    69:64:b5:0f:0c:00:e3:b3:50:47:a3:b3:9b:ba:13:
                    50:d6:58:5a:4b:ab:39:e0:11:ca:0a:27:67:03:78:
                    22:66:6d:92:1e:1b:5c:49:ae:e6:6b:d1:8e:3b:9d:
                    06:d3:c6:ac:4d:53:43:10:ab:e8:96:c1:87:82:97:
                    99:8f:20:d3:99:12:37:31:84:e1:8a:ff:29:03:5f:
                    22:90:3e:7f:9b:e0:20:c1:ad:dc:ae:4c:39:1a:31:
                    96:17:02:8c:b2:d9:b4:0d:20:12:9b:7d:86:54:fd:
                    33:fd:c1:2a:62:46:f8:60:96:cf:6e:01:6f:22:df:
                    13:47:e7:97:ec:05:72:23:a3:62:f8:fa:ef:ac:9c:
                    72:f0:37:cb:2f:37:cf:90:a8:27:51:86:c6:d7:78:
                    08:8f:7e:25:a2:15:70:a2:fb:1c:b6:15:5e:a0:97:
                    8b:81:4c:09:28:8a:27:3b:94:bc:71:db:5b:71:37:
                    9a:2b:16:e0:6f:b5:c9:f5:4b:4f:20:ba:65:cf:af:
                    ad:ad
                Exponent: 65537 (0x10001)
        X509v3 extensions:
            X509v3 Key Usage: 
                Digital Signature, Key Encipherment
            X509v3 Basic Constraints: 
                CA:FALSE
            Netscape Cert Type: 
                SSL Server
            Netscape Comment: 
                OpenSSL Generated Server Certificate
            X509v3 Subject Key Identifier: 
                E5:25:6D:3E:AF:0D:DD:3F:4C:F2:45:19:39:D5:14:DB:7E:9C:C0:AD
            X509v3 Authority Key Identifier: 
                keyid:F4:A7:C0:CC:91:46:AF:64:F3:91:F2:27:F8:C8:B2:6F:8A:87:32:73
                DirName:/C=DE/ST=Hessen/O=privacyidea/CN=CA001
                serial:FB:C8:EB:AC:83:CD:12:07

            X509v3 Extended Key Usage: 
                TLS Web Server Authentication
    Signature Algorithm: sha1WithRSAEncryption
         3b:fe:c9:f3:c5:3d:c2:7e:8b:3d:71:59:38:97:ae:3c:1c:92:
         9d:a2:82:b4:75:f7:29:51:c0:d5:64:12:6b:a5:92:f7:9e:36:
         f3:f8:63:7c:eb:b0:0f:ad:db:02:ca:fd:29:be:16:c8:87:4b:
         b8:05:ea:ad:65:78:07:e3:5c:32:4e:51:19:8f:47:50:cb:c4:
         cc:64:0a:dd:b3:2e:80:d2:e3:90:c7:5d:68:2a:e0:87:d2:fe:
         ff:5a:1f:9a:1f:53:32:06:44:04:7e:e2:d7:ab:2b:ea:48:93:
         b5:03:00:a0:30:75:ac:e0:e1:6d:62:28:61:da:11:8c:40:fd:
         4e:3f:8b:99:f2:b0:b0:79:26:34:64:50:c0:57:f3:27:1f:41:
         13:93:e6:e2:94:8e:8e:63:2f:5d:7c:42:79:00:84:9a:b4:b7:
         d7:53:72:13:30:cb:60:36:24:04:a0:14:35:33:e6:46:be:24:
         59:c4:93:c9:ba:d7:05:17:64:19:c9:8b:4e:0b:11:70:15:c9:
         e2:34:e9:d4:e9:36:0b:ba:7d:75:e9:f6:2b:8c:42:17:5d:17:
         64:64:80:d3:e1:ee:00:fd:88:00:9f:be:7c:8b:59:45:b2:e9:
         5e:ed:6b:b7:0f:37:e9:ad:d7:20:93:d5:43:08:09:04:be:51:
         cd:99:ef:2a
-----BEGIN CERTIFICATE-----
MIIECTCCAvGgAwIBAgIEEAAAxDANBgkqhkiG9w0BAQUFADBEMQswCQYDVQQGEwJE
RTEPMA0GA1UECAwGSGVzc2VuMRQwEgYDVQQKDAtwcml2YWN5aWRlYTEOMAwGA1UE
AwwFQ0EwMDEwHhcNMTUxMDMxMTc0OTQ3WhcNMTYxMDMwMTc0OTQ3WjA3MRMwEQYD
VQQDEwpTdGV2ZSBUZXN0MSAwHgYJKoZIhvcNAQkBFhFzdGV2ZUBvcGVuc3NsLm9y
ZzCCASIwDQYJKoZIhvcNAQEBBQADggEPADCCAQoCggEBANKBiSBRSA9z9BEyJNUf
HP1c9bbmxfBSgdzSr2ZKfJMxYVyv0W0GcANgfHIMiN1JzZ4CbNJa11MP89q+aWS1
DwwA47NQR6Ozm7oTUNZYWkurOeARygonZwN4ImZtkh4bXEmu5mvRjjudBtPGrE1T
QxCr6JbBh4KXmY8g05kSNzGE4Yr/KQNfIpA+f5vgIMGt3K5MORoxlhcCjLLZtA0g
Ept9hlT9M/3BKmJG+GCWz24BbyLfE0fnl+wFciOjYvj676yccvA3yy83z5CoJ1GG
xtd4CI9+JaIVcKL7HLYVXqCXi4FMCSiKJzuUvHHbW3E3misW4G+1yfVLTyC6Zc+v
ra0CAwEAAaOCAQ4wggEKMAsGA1UdDwQEAwIFoDAJBgNVHRMEAjAAMBEGCWCGSAGG
+EIBAQQEAwIGQDAzBglghkgBhvhCAQ0EJhYkT3BlblNTTCBHZW5lcmF0ZWQgU2Vy
dmVyIENlcnRpZmljYXRlMB0GA1UdDgQWBBTlJW0+rw3dP0zyRRk51RTbfpzArTB0
BgNVHSMEbTBrgBT0p8DMkUavZPOR8if4yLJviocyc6FIpEYwRDELMAkGA1UEBhMC
REUxDzANBgNVBAgMBkhlc3NlbjEUMBIGA1UECgwLcHJpdmFjeWlkZWExDjAMBgNV
BAMMBUNBMDAxggkA+8jrrIPNEgcwEwYDVR0lBAwwCgYIKwYBBQUHAwEwDQYJKoZI
hvcNAQEFBQADggEBADv+yfPFPcJ+iz1xWTiXrjwckp2igrR19ylRwNVkEmulkvee
NvP4Y3zrsA+t2wLK/Sm+FsiHS7gF6q1leAfjXDJOURmPR1DLxMxkCt2zLoDS45DH
XWgq4IfS/v9aH5ofUzIGRAR+4terK+pIk7UDAKAwdazg4W1iKGHaEYxA/U4/i5ny
sLB5JjRkUMBX8ycfQROT5uKUjo5jL118QnkAhJq0t9dTchMwy2A2JASgFDUz5ka+
JFnEk8m61wUXZBnJi04LEXAVyeI06dTpNgu6fXXp9iuMQhddF2RkgNPh7gD9iACf
vnyLWUWy6V7ta7cPN+mt1yCT1UMICQS+Uc2Z7yo=
-----END CERTIFICATE-----
