Certificate:
    Data:
        Version: 3 (0x2)
        Serial Number: 268435648 (0x100000c0)
    Signature Algorithm: sha1WithRSAEncryption
        Issuer: C=DE, ST=Hessen, O=privacyidea, CN=CA001
        Validity
            Not Before: Nov 24 15:35:22 2015 GMT
            Not After : Nov 23 15:35:22 2016 GMT
        Subject: C=DE, ST=Hessen, O=privacyidea, CN=requester.localdomain
        Subject Public Key Info:
            Public Key Algorithm: rsaEncryption
                Public-Key: (2048 bit)
                Modulus:
                    00:cd:be:14:4f:fa:ce:01:3f:42:22:1b:1d:9c:af:
                    dd:92:d2:7f:db:6c:b7:3e:39:43:43:6b:13:03:f1:
                    05:f4:07:74:bc:76:69:28:0b:af:19:8e:d7:fc:e3:
                    cd:c6:58:f2:ca:7f:08:6d:53:fc:07:02:44:24:c6:
                    b4:34:4c:8c:04:fe:33:0e:40:e2:20:ba:02:73:5a:
                    f7:f5:4f:63:6e:cc:c6:b6:df:54:1d:37:39:7d:51:
                    36:26:5f:bd:dc:3f:a8:8b:6b:a2:ae:b6:9d:d6:21:
                    e7:df:41:b8:7a:28:2a:68:48:ca:a8:2d:ed:e1:e9:
                    46:5e:5a:72:6d:b4:84:38:87:91:fd:94:11:0b:28:
                    84:c6:c2:2f:2a:fb:01:f9:36:7a:09:75:d1:33:88:
                    3c:73:41:5b:c8:bf:94:89:70:a1:f0:c0:b9:2e:50:
                    53:1e:b1:17:64:69:f4:2d:81:e0:a9:0d:0e:32:e9:
                    ba:55:8a:85:f1:1b:6f:49:79:b4:7f:88:c3:0d:3e:
                    54:88:9b:3d:1f:38:8c:04:f3:ee:6a:63:2b:f5:c6:
                    db:b4:83:aa:c4:78:41:3a:7d:4b:e1:c8:3e:71:ca:
                    1b:61:59:ea:c6:c4:ca:32:5e:c9:e9:bf:12:29:e6:
                    c6:c3:63:fe:a0:55:da:7a:f1:60:98:4d:26:ed:fa:
                    70:2d
                Exponent: 65537 (0x10001)
        X509v3 extensions:
            X509v3 Key Usage: 
                Digital Signature, Key Encipherment
            X509v3 Basic Constraints: 
                CA:FALSE
            Netscape Cert Type: 
                SSL Server
            Netscape Comment: 
                OpenSSL Generated Server Certificate
            X509v3 Subject Key Identifier: 
                53:3F:ED:5D:09:07:B3:65:7B:AB:45:C9:24:5B:09:77:80:0A:96:ED
            X509v3 Authority Key Identifier: 
                keyid:F4:A7:C0:CC:91:46:AF:64:F3:91:F2:27:F8:C8:B2:6F:8A:87:32:73
                DirName:/C=DE/ST=Hessen/O=privacyidea/CN=CA001
                serial:FB:C8:EB:AC:83:CD:12:07

            X509v3 Extended Key Usage: 
                TLS Web Server Authentication
    Signature Algorithm: sha1WithRSAEncryption
         21:fb:7a:cb:13:47:22:78:f2:ee:5b:35:b8:e0:75:59:cd:02:
         07:1a:2a:81:8a:2e:32:cb:28:74:00:5c:0d:e3:3d:5c:d3:23:
         b2:de:7b:92:f4:9d:a2:2b:55:12:de:f5:d9:c5:50:f8:10:af:
         6d:37:33:0f:1f:62:1c:e9:ed:c0:fc:10:ea:0d:60:1a:d7:2c:
         15:cf:e6:62:e3:46:86:a6:97:04:24:72:9d:e9:37:1a:1f:4f:
         ce:d5:fd:dd:15:9d:47:7a:71:c0:7b:15:68:60:ad:dc:62:9f:
         a9:74:13:74:49:60:eb:15:91:57:dc:1c:96:97:aa:b1:3b:3f:
         31:29:81:9b:82:79:07:33:b3:ef:5f:65:85:d9:ff:15:17:1c:
         7e:e6:78:09:e1:59:02:5a:df:49:09:2a:61:25:14:59:e5:10:
         bd:9b:f2:e6:12:ec:21:f6:5c:04:3c:d2:30:1a:d0:aa:37:59:
         6a:09:f4:2c:66:07:6c:46:b1:88:86:42:ce:bd:90:d0:38:72:
         79:9a:00:9c:0c:6b:ce:6a:2f:c3:93:b2:ec:6c:49:5d:2f:a1:
         f7:bb:d9:d4:36:a7:29:1f:6b:0a:87:89:ee:af:b9:e3:bb:c6:
         36:9a:67:51:23:de:a7:50:86:9a:b6:84:07:47:e1:f2:50:e7:
         1b:15:ba:7a
-----BEGIN CERTIFICATE-----
MIIEJjCCAw6gAwIBAgIEEAAAwDANBgkqhkiG9w0BAQUFADBEMQswCQYDVQQGEwJE
RTEPMA0GA1UECAwGSGVzc2VuMRQwEgYDVQQKDAtwcml2YWN5aWRlYTEOMAwGA1UE
AwwFQ0EwMDEwHhcNMTUxMTI0MTUzNTIyWhcNMTYxMTIzMTUzNTIyWjBUMQswCQYD
VQQGEwJERTEPMA0GA1UECAwGSGVzc2VuMRQwEgYDVQQKDAtwcml2YWN5aWRlYTEe
MBwGA1UEAwwVcmVxdWVzdGVyLmxvY2FsZG9tYWluMIIBIjANBgkqhkiG9w0BAQEF
AAOCAQ8AMIIBCgKCAQEAzb4UT/rOAT9CIhsdnK/dktJ/22y3PjlDQ2sTA/EF9Ad0
vHZpKAuvGY7X/OPNxljyyn8IbVP8BwJEJMa0NEyMBP4zDkDiILoCc1r39U9jbszG
tt9UHTc5fVE2Jl+93D+oi2uirrad1iHn30G4eigqaEjKqC3t4elGXlpybbSEOIeR
/ZQRCyiExsIvKvsB+TZ6CXXRM4g8c0FbyL+UiXCh8MC5LlBTHrEXZGn0LYHgqQ0O
Mum6VYqF8RtvSXm0f4jDDT5UiJs9HziMBPPuamMr9cbbtIOqxHhBOn1L4cg+ccob
YVnqxsTKMl7J6b8SKebGw2P+oFXaevFgmE0m7fpwLQIDAQABo4IBDjCCAQowCwYD
VR0PBAQDAgWgMAkGA1UdEwQCMAAwEQYJYIZIAYb4QgEBBAQDAgZAMDMGCWCGSAGG
+EIBDQQmFiRPcGVuU1NMIEdlbmVyYXRlZCBTZXJ2ZXIgQ2VydGlmaWNhdGUwHQYD
VR0OBBYEFFM/7V0JB7Nle6tFySRbCXeACpbtMHQGA1UdIwRtMGuAFPSnwMyRRq9k
85HyJ/jIsm+KhzJzoUikRjBEMQswCQYDVQQGEwJERTEPMA0GA1UECAwGSGVzc2Vu
MRQwEgYDVQQKDAtwcml2YWN5aWRlYTEOMAwGA1UEAwwFQ0EwMDGCCQD7yOusg80S
BzATBgNVHSUEDDAKBggrBgEFBQcDATANBgkqhkiG9w0BAQUFAAOCAQEAIft6yxNH
Injy7ls1uOB1Wc0CBxoqgYouMssodABcDeM9XNMjst57kvSdoitVEt712cVQ+BCv
bTczDx9iHOntwPwQ6g1gGtcsFc/mYuNGhqaXBCRynek3Gh9PztX93RWdR3pxwHsV
aGCt3GKfqXQTdElg6xWRV9wclpeqsTs/MSmBm4J5BzOz719lhdn/FRccfuZ4CeFZ
AlrfSQkqYSUUWeUQvZvy5hLsIfZcBDzSMBrQqjdZagn0LGYHbEaxiIZCzr2Q0Dhy
eZoAnAxrzmovw5Oy7GxJXS+h97vZ1DanKR9rCoeJ7q+547vGNppnUSPep1CGmraE
B0fh8lDnGxW6eg==
-----END CERTIFICATE-----
