Certificate:
    Data:
        Version: 3 (0x2)
        Serial Number: 268435649 (0x100000c1)
    Signature Algorithm: sha1WithRSAEncryption
        Issuer: C=DE, ST=Hessen, O=privacyidea, CN=CA001
        Validity
            Not Before: Nov 24 15:42:43 2015 GMT
            Not After : Nov 23 15:42:43 2016 GMT
        Subject: CN=selfservice,CN=user,O=realm1/emailAddress=meine
        Subject Public Key Info:
            Public Key Algorithm: rsaEncryption
                Public-Key: (2048 bit)
                Modulus:
                    00:cf:3c:d4:33:0e:12:c4:e6:da:cd:b6:56:a1:1c:
                    26:bb:26:1c:8a:4a:73:a8:58:8a:b6:1e:b3:8b:99:
                    d2:1d:07:c2:92:89:79:c0:69:d8:c8:df:28:61:98:
                    1e:b3:fe:ae:2b:bd:78:a9:f7:6e:47:dc:a3:a0:16:
                    8c:85:02:c1:4e:92:fd:72:6e:f0:c8:03:29:9b:b8:
                    00:6e:c0:83:95:c8:34:20:36:9c:b3:e5:e4:e6:76:
                    73:a3:1a:ad:40:96:e0:53:54:00:ec:76:79:9a:c6:
                    0d:7e:b6:bd:29:ec:83:f3:cb:89:a4:cb:6c:00:ba:
                    0c:c5:78:0f:ff:69:b8:94:f4:04:70:43:3f:d8:9e:
                    d7:a7:fb:5d:ce:75:8e:da:e7:c4:07:b1:9d:de:6f:
                    88:4b:b6:4d:9a:cf:f9:bc:fa:9f:cd:32:6d:f6:3a:
                    0b:0d:23:42:78:ec:97:42:bf:0e:4d:60:56:e1:d3:
                    02:f2:19:cb:84:57:90:e5:70:a1:a2:83:35:86:e2:
                    da:86:9f:f9:8a:c4:79:b3:52:28:da:cb:bb:34:ca:
                    d3:da:91:4a:cf:8d:76:a2:b2:6b:9b:f9:96:fd:09:
                    2a:da:11:23:4d:f0:cb:d6:b2:b1:0e:12:6c:9a:19:
                    65:98:87:ca:e4:ee:24:ce:44:ac:90:8f:9d:1b:c5:
                    2a:9d
                Exponent: 65537 (0x10001)
        X509v3 extensions:
            X509v3 Key Usage: 
                Digital Signature, Key Encipherment
            X509v3 Basic Constraints: 
                CA:FALSE
            Netscape Cert Type: 
                SSL Server
            Netscape Comment: 
                OpenSSL Generated Server Certificate
            X509v3 Subject Key Identifier: 
                4D:07:90:AD:FF:1D:0D:E7:1A:DD:D6:2E:FA:BA:34:CB:AA:1F:24:C6
            X509v3 Authority Key Identifier: 
                keyid:F4:A7:C0:CC:91:46:AF:64:F3:91:F2:27:F8:C8:B2:6F:8A:87:32:73
                DirName:/C=DE/ST=Hessen/O=privacyidea/CN=CA001
                serial:FB:C8:EB:AC:83:CD:12:07

            X509v3 Extended Key Usage: 
                TLS Web Server Authentication
    Signature Algorithm: sha1WithRSAEncryption
         0f:0a:ea:50:a7:ec:1d:2d:0e:f5:9e:d6:c7:90:81:5b:66:a7:
         e3:1a:4e:40:fc:99:f7:d6:12:a8:62:07:07:1b:b3:d0:b5:9c:
         29:e5:ee:9f:1e:b4:b5:62:ea:ae:d8:44:ad:87:d4:ae:0b:36:
         bd:70:a9:5f:4b:0b:05:ed:65:f6:b2:41:78:8c:71:a3:90:06:
         67:20:0f:34:15:95:65:86:fc:0c:27:23:fb:a4:a1:2d:4d:c6:
         fc:5b:c7:cf:8f:f0:da:b9:4d:9d:3b:09:0d:42:d0:f5:08:a0:
         66:bb:ea:db:dc:41:57:55:84:28:90:ac:60:4a:b3:0c:ec:cf:
         f8:47:46:e0:e4:c4:e4:ca:33:66:b2:ed:a9:74:fb:bc:b4:00:
         e0:55:66:d6:f4:5e:7c:18:7b:89:37:04:61:7e:98:09:6f:86:
         ff:c2:38:25:87:d1:02:a8:b8:04:25:97:8b:4f:cb:f2:a9:6b:
         91:be:32:c7:44:4a:3b:13:c5:e5:cd:74:ca:ef:53:8e:7e:43:
         8f:a6:c1:99:7c:39:dd:f1:5f:58:79:cb:f8:a8:fd:72:52:0b:
         72:0b:cc:d2:16:d2:30:da:12:dc:aa:d0:95:2d:ba:7b:11:43:
         7e:ce:e5:80:c2:ca:74:c4:7c:3e:68:c6:f2:17:86:04:19:60:
         02:fa:c5:0b
-----BEGIN CERTIFICATE-----
MIIEDzCCAvegAwIBAgIEEAAAwTANBgkqhkiG9w0BAQUFADBEMQswCQYDVQQGEwJE
RTEPMA0GA1UECAwGSGVzc2VuMRQwEgYDVQQKDAtwcml2YWN5aWRlYTEOMAwGA1UE
AwwFQ0EwMDEwHhcNMTUxMTI0MTU0MjQzWhcNMTYxMTIzMTU0MjQzWjA9MSUwIwYD
VQQDExxzZWxmc2VydmljZSxDTj11c2VyLE89cmVhbG0xMRQwEgYJKoZIhvcNAQkB
FgVtZWluZTCCASIwDQYJKoZIhvcNAQEBBQADggEPADCCAQoCggEBAM881DMOEsTm
2s22VqEcJrsmHIpKc6hYirYes4uZ0h0HwpKJecBp2MjfKGGYHrP+riu9eKn3bkfc
o6AWjIUCwU6S/XJu8MgDKZu4AG7Ag5XINCA2nLPl5OZ2c6MarUCW4FNUAOx2eZrG
DX62vSnsg/PLiaTLbAC6DMV4D/9puJT0BHBDP9ie16f7Xc51jtrnxAexnd5viEu2
TZrP+bz6n80ybfY6Cw0jQnjsl0K/Dk1gVuHTAvIZy4RXkOVwoaKDNYbi2oaf+YrE
ebNSKNrLuzTK09qRSs+NdqKya5v5lv0JKtoRI03wy9aysQ4SbJoZZZiHyuTuJM5E
rJCPnRvFKp0CAwEAAaOCAQ4wggEKMAsGA1UdDwQEAwIFoDAJBgNVHRMEAjAAMBEG
CWCGSAGG+EIBAQQEAwIGQDAzBglghkgBhvhCAQ0EJhYkT3BlblNTTCBHZW5lcmF0
ZWQgU2VydmVyIENlcnRpZmljYXRlMB0GA1UdDgQWBBRNB5Ct/x0N5xrd1i76ujTL
qh8kxjB0BgNVHSMEbTBrgBT0p8DMkUavZPOR8if4yLJviocyc6FIpEYwRDELMAkG
A1UEBhMCREUxDzANBgNVBAgMBkhlc3NlbjEUMBIGA1UECgwLcHJpdmFjeWlkZWEx
DjAMBgNVBAMMBUNBMDAxggkA+8jrrIPNEgcwEwYDVR0lBAwwCgYIKwYBBQUHAwEw
DQYJKoZIhvcNAQEFBQADggEBAA8K6lCn7B0tDvWe1seQgVtmp+MaTkD8mffWEqhi
Bwcbs9C1nCnl7p8etLVi6q7YRK2H1K4LNr1wqV9LCwXtZfayQXiMcaOQBmcgDzQV
lWWG/AwnI/ukoS1Nxvxbx8+P8Nq5TZ07CQ1C0PUIoGa76tvcQVdVhCiQrGBKswzs
z/hHRuDkxOTKM2ay7al0+7y0AOBVZtb0XnwYe4k3BGF+mAlvhv/COCWH0QKouAQl
l4tPy/Kpa5G+MsdESjsTxeXNdMrvU45+Q4+mwZl8Od3xX1h5y/io/XJSC3ILzNIW
0jDaEtyq0JUtunsRQ37O5YDCynTEfD5oxvIXhgQZYAL6xQs=
-----END CERTIFICATE-----
