Certificate:
    Data:
        Version: 3 (0x2)
        Serial Number: 268435646 (0x100000be)
    Signature Algorithm: sha1WithRSAEncryption
        Issuer: C=DE, ST=Hessen, O=privacyidea, CN=CA001
        Validity
            Not Before: Nov 24 15:33:00 2015 GMT
            Not After : Nov 23 15:33:00 2016 GMT
        Subject: C=DE, ST=Hessen, O=privacyidea, CN=usercert
        Subject Public Key Info:
            Public Key Algorithm: rsaEncryption
                Public-Key: (2048 bit)
                Modulus:
                    00:dc:2f:d1:5f:29:97:d4:7c:c3:53:c8:30:bd:4b:
                    67:70:2c:24:6b:b8:5e:eb:21:7a:48:12:56:7c:81:
                    5c:48:75:b6:68:eb:f6:f2:98:4e:50:51:d1:7f:6c:
                    73:f3:0a:a7:ae:be:48:5e:e5:d6:e1:d9:2a:7c:32:
                    6e:4e:fd:08:f6:5a:54:49:23:73:c3:b9:07:18:d1:
                    ef:b3:ac:f8:8a:dc:94:96:a4:90:3a:8e:74:df:e6:
                    0d:37:1b:bd:5b:b7:25:1a:56:39:da:6f:91:aa:5e:
                    1c:74:f3:f9:7c:14:01:83:12:65:76:c7:bb:fe:36:
                    5b:95:e9:72:65:83:ed:3e:98:30:71:fa:87:dd:a3:
                    36:5a:30:03:2e:26:e0:61:d1:bf:02:3f:b6:06:1f:
                    4a:89:28:1c:5c:a2:ff:4e:be:94:e6:8c:e0:da:82:
                    f1:9d:29:32:48:30:73:b4:04:f6:42:1e:be:f7:e2:
                    32:32:27:3c:9d:89:2f:70:3e:85:9a:6f:5c:c5:09:
                    c0:8c:32:2f:72:22:c9:d2:95:1f:b6:ac:72:60:72:
                    b7:82:4d:6b:ce:5b:e3:00:d0:d2:2f:58:c6:e0:10:
                    e5:51:ca:4d:3b:2e:e6:7e:ab:84:d6:56:f1:93:35:
                    a0:93:64:26:81:75:2f:91:b5:16:06:38:0b:db:cc:
                    2d:07
                Exponent: 65537 (0x10001)
        X509v3 extensions:
            X509v3 Key Usage: 
                Digital Signature, Key Encipherment
            X509v3 Basic Constraints: 
                CA:FALSE
            Netscape Cert Type: 
                SSL Server
            Netscape Comment: 
                OpenSSL Generated Server Certificate
            X509v3 Subject Key Identifier: 
                FC:14:D1:F0:4B:8D:00:90:F2:F5:B8:71:9E:4E:97:C3:92:54:AD:0B
            X509v3 Authority Key Identifier: 
                keyid:F4:A7:C0:CC:91:46:AF:64:F3:91:F2:27:F8:C8:B2:6F:8A:87:32:73
                DirName:/C=DE/ST=Hessen/O=privacyidea/CN=CA001
                serial:FB:C8:EB:AC:83:CD:12:07

            X509v3 Extended Key Usage: 
                TLS Web Server Authentication
    Signature Algorithm: sha1WithRSAEncryption
         50:d9:38:f6:e7:f3:59:4c:cf:a0:5b:68:b7:46:36:5f:3d:1d:
         08:04:05:7c:68:28:26:c0:bc:d2:63:49:9a:6a:da:fe:5e:b2:
         0d:aa:61:a1:54:37:b8:b8:16:3c:50:97:18:4a:66:ef:3e:2c:
         97:50:89:3e:2e:68:a7:bf:c5:94:13:e9:fc:b0:23:f7:c9:99:
         44:9b:0a:93:49:a4:d3:c2:d1:a2:17:4e:83:14:02:16:76:05:
         43:96:58:d1:8e:56:ad:dc:c2:f9:97:19:9a:c1:89:8b:08:39:
         0c:5b:f5:13:5a:44:93:af:ad:0e:9c:53:ef:ca:dd:6f:7b:ca:
         a7:25:57:ae:ce:6d:65:d8:3b:3e:c6:ad:4a:48:29:39:63:ce:
         fc:47:ab:94:00:ee:a4:54:cf:d1:62:b9:16:05:f1:33:fc:07:
         e5:dd:62:23:a8:94:33:0d:d4:21:74:56:fd:79:79:c5:8b:d1:
         52:51:6a:7c:bb:00:03:84:43:26:53:5c:47:dc:3e:cf:e0:15:
         05:7d:36:9b:67:d0:31:5e:c7:c9:99:73:79:55:f7:bf:ed:61:
         a3:e5:c8:ef:4a:2b:94:d0:2e:d7:bd:99:48:31:43:6d:3f:b4:
         61:5c:d6:d0:2d:92:f5:74:3c:72:b4:1a:da:a2:f5:04:51:a3:
         27:90:b7:28
-----BEGIN CERTIFICATE-----
MIIEGTCCAwGgAwIBAgIEEAAAvjANBgkqhkiG9w0BAQUFADBEMQswCQYDVQQGEwJE
RTEPMA0GA1UECAwGSGVzc2VuMRQwEgYDVQQKDAtwcml2YWN5aWRlYTEOMAwGA1UE
AwwFQ0EwMDEwHhcNMTUxMTI0MTUzMzAwWhcNMTYxMTIzMTUzMzAwWjBHMQswCQYD
VQQGEwJERTEPMA0GA1UECAwGSGVzc2VuMRQwEgYDVQQKDAtwcml2YWN5aWRlYTER
MA8GA1UEAwwIdXNlcmNlcnQwggEiMA0GCSqGSIb3DQEBAQUAA4IBDwAwggEKAoIB
AQDcL9FfKZfUfMNTyDC9S2dwLCRruF7rIXpIElZ8gVxIdbZo6/bymE5QUdF/bHPz
Cqeuvkhe5dbh2Sp8Mm5O/Qj2WlRJI3PDuQcY0e+zrPiK3JSWpJA6jnTf5g03G71b
tyUaVjnab5GqXhx08/l8FAGDEmV2x7v+NluV6XJlg+0+mDBx+ofdozZaMAMuJuBh
0b8CP7YGH0qJKBxcov9OvpTmjODagvGdKTJIMHO0BPZCHr734jIyJzydiS9wPoWa
b1zFCcCMMi9yIsnSlR+2rHJgcreCTWvOW+MA0NIvWMbgEOVRyk07LuZ+q4TWVvGT
NaCTZCaBdS+RtRYGOAvbzC0HAgMBAAGjggEOMIIBCjALBgNVHQ8EBAMCBaAwCQYD
VR0TBAIwADARBglghkgBhvhCAQEEBAMCBkAwMwYJYIZIAYb4QgENBCYWJE9wZW5T
U0wgR2VuZXJhdGVkIFNlcnZlciBDZXJ0aWZpY2F0ZTAdBgNVHQ4EFgQU/BTR8EuN
AJDy9bhxnk6Xw5JUrQswdAYDVR0jBG0wa4AU9KfAzJFGr2TzkfIn+Miyb4qHMnOh
SKRGMEQxCzAJBgNVBAYTAkRFMQ8wDQYDVQQIDAZIZXNzZW4xFDASBgNVBAoMC3By
aXZhY3lpZGVhMQ4wDAYDVQQDDAVDQTAwMYIJAPvI66yDzRIHMBMGA1UdJQQMMAoG
CCsGAQUFBwMBMA0GCSqGSIb3DQEBBQUAA4IBAQBQ2Tj25/NZTM+gW2i3RjZfPR0I
BAV8aCgmwLzSY0maatr+XrINqmGhVDe4uBY8UJcYSmbvPiyXUIk+Lminv8WUE+n8
sCP3yZlEmwqTSaTTwtGiF06DFAIWdgVDlljRjlat3ML5lxmawYmLCDkMW/UTWkST
r60OnFPvyt1ve8qnJVeuzm1l2Ds+xq1KSCk5Y878R6uUAO6kVM/RYrkWBfEz/Afl
3WIjqJQzDdQhdFb9eXnFi9FSUWp8uwADhEMmU1xH3D7P4BUFfTabZ9AxXsfJmXN5
Vfe/7WGj5cjvSiuU0C7XvZlIMUNtP7RhXNbQLZL1dDxytBraovUEUaMnkLco
-----END CERTIFICATE-----
