Certificate:
    Data:
        Version: 3 (0x2)
        Serial Number: 268435645 (0x100000bd)
    Signature Algorithm: sha1WithRSAEncryption
        Issuer: C=DE, ST=Hessen, O=privacyidea, CN=CA001
        Validity
            Not Before: Nov 24 15:33:00 2015 GMT
            Not After : Nov 23 15:33:00 2016 GMT
        Subject: C=DE, ST=Hessen, O=privacyidea, CN=requester.localdomain
        Subject Public Key Info:
            Public Key Algorithm: rsaEncryption
                Public-Key: (2048 bit)
                Modulus:
                    00:cd:be:14:4f:fa:ce:01:3f:42:22:1b:1d:9c:af:
                    dd:92:d2:7f:db:6c:b7:3e:39:43:43:6b:13:03:f1:
                    05:f4:07:74:bc:76:69:28:0b:af:19:8e:d7:fc:e3:
                    cd:c6:58:f2:ca:7f:08:6d:53:fc:07:02:44:24:c6:
                    b4:34:4c:8c:04:fe:33:0e:40:e2:20:ba:02:73:5a:
                    f7:f5:4f:63:6e:cc:c6:b6:df:54:1d:37:39:7d:51:
                    36:26:5f:bd:dc:3f:a8:8b:6b:a2:ae:b6:9d:d6:21:
                    e7:df:41:b8:7a:28:2a:68:48:ca:a8:2d:ed:e1:e9:
                    46:5e:5a:72:6d:b4:84:38:87:91:fd:94:11:0b:28:
                    84:c6:c2:2f:2a:fb:01:f9:36:7a:09:75:d1:33:88:
                    3c:73:41:5b:c8:bf:94:89:70:a1:f0:c0:b9:2e:50:
                    53:1e:b1:17:64:69:f4:2d:81:e0:a9:0d:0e:32:e9:
                    ba:55:8a:85:f1:1b:6f:49:79:b4:7f:88:c3:0d:3e:
                    54:88:9b:3d:1f:38:8c:04:f3:ee:6a:63:2b:f5:c6:
                    db:b4:83:aa:c4:78:41:3a:7d:4b:e1:c8:3e:71:ca:
                    1b:61:59:ea:c6:c4:ca:32:5e:c9:e9:bf:12:29:e6:
                    c6:c3:63:fe:a0:55:da:7a:f1:60:98:4d:26:ed:fa:
                    70:2d
                Exponent: 65537 (0x10001)
        X509v3 extensions:
            X509v3 Key Usage: 
                Digital Signature, Key Encipherment
            X509v3 Basic Constraints: 
                CA:FALSE
            Netscape Cert Type: 
                SSL Server
            Netscape Comment: 
                OpenSSL Generated Server Certificate
            X509v3 Subject Key Identifier: 
                53:3F:ED:5D:09:07:B3:65:7B:AB:45:C9:24:5B:09:77:80:0A:96:ED
            X509v3 Authority Key Identifier: 
                keyid:F4:A7:C0:CC:91:46:AF:64:F3:91:F2:27:F8:C8:B2:6F:8A:87:32:73
                DirName:/C=DE/ST=Hessen/O=privacyidea/CN=CA001
                serial:FB:C8:EB:AC:83:CD:12:07

            X509v3 Extended Key Usage: 
                TLS Web Server Authentication
    Signature Algorithm: sha1WithRSAEncryption
         46:77:6b:9f:d9:30:87:68:55:4c:95:f5:9d:6e:86:fa:c2:06:
         89:e2:1e:2e:14:bd:89:35:7b:37:22:85:2d:3e:b2:63:79:c8:
         d4:56:81:45:f5:42:6b:28:26:ad:32:55:bb:f9:64:4c:7b:a0:
         a7:4b:e2:27:b8:f2:f2:1c:ea:d8:9a:00:fd:79:f6:b2:f9:4c:
         71:47:d6:66:86:8b:4c:7e:be:a8:e6:ac:a8:1e:38:1b:66:7d:
         c9:bd:c4:c2:36:8e:67:aa:81:3f:32:b2:42:1e:bb:66:67:f0:
         2c:75:fe:34:c4:3f:39:8a:aa:ca:db:59:85:b6:be:ab:19:6a:
         40:75:a2:a4:3f:eb:3a:60:41:79:67:ca:d1:ea:a2:6d:3d:80:
         de:3d:70:c8:30:fd:f2:75:70:6b:c8:8a:b6:15:db:f4:9f:13:
         c1:8c:f3:7e:5e:55:b0:65:d6:70:0b:a2:18:fe:d2:7c:ab:50:
         28:7f:71:9a:52:5f:34:ba:d7:3a:56:aa:50:7d:76:e1:5d:b1:
         27:7d:fd:28:de:e2:6a:c6:a1:d2:7e:c8:a1:5a:81:6c:44:27:
         ce:4f:72:02:9a:a1:da:52:ca:ba:a4:df:b9:4f:53:18:8d:42:
         64:c3:a7:55:f1:14:29:ae:77:4c:d7:04:ca:8c:ba:3e:ae:58:
         6e:98:4f:6f
-----BEGIN CERTIFICATE-----
MIIEJjCCAw6gAwIBAgIEEAAAvTANBgkqhkiG9w0BAQUFADBEMQswCQYDVQQGEwJE
RTEPMA0GA1UECAwGSGVzc2VuMRQwEgYDVQQKDAtwcml2YWN5aWRlYTEOMAwGA1UE
AwwFQ0EwMDEwHhcNMTUxMTI0MTUzMzAwWhcNMTYxMTIzMTUzMzAwWjBUMQswCQYD
VQQGEwJERTEPMA0GA1UECAwGSGVzc2VuMRQwEgYDVQQKDAtwcml2YWN5aWRlYTEe
MBwGA1UEAwwVcmVxdWVzdGVyLmxvY2FsZG9tYWluMIIBIjANBgkqhkiG9w0BAQEF
AAOCAQ8AMIIBCgKCAQEAzb4UT/rOAT9CIhsdnK/dktJ/22y3PjlDQ2sTA/EF9Ad0
vHZpKAuvGY7X/OPNxljyyn8IbVP8BwJEJMa0NEyMBP4zDkDiILoCc1r39U9jbszG
tt9UHTc5fVE2Jl+93D+oi2uirrad1iHn30G4eigqaEjKqC3t4elGXlpybbSEOIeR
/ZQRCyiExsIvKvsB+TZ6CXXRM4g8c0FbyL+UiXCh8MC5LlBTHrEXZGn0LYHgqQ0O
Mum6VYqF8RtvSXm0f4jDDT5UiJs9HziMBPPuamMr9cbbtIOqxHhBOn1L4cg+ccob
YVnqxsTKMl7J6b8SKebGw2P+oFXaevFgmE0m7fpwLQIDAQABo4IBDjCCAQowCwYD
VR0PBAQDAgWgMAkGA1UdEwQCMAAwEQYJYIZIAYb4QgEBBAQDAgZAMDMGCWCGSAGG
+EIBDQQmFiRPcGVuU1NMIEdlbmVyYXRlZCBTZXJ2ZXIgQ2VydGlmaWNhdGUwHQYD
VR0OBBYEFFM/7V0JB7Nle6tFySRbCXeACpbtMHQGA1UdIwRtMGuAFPSnwMyRRq9k
85HyJ/jIsm+KhzJzoUikRjBEMQswCQYDVQQGEwJERTEPMA0GA1UECAwGSGVzc2Vu
MRQwEgYDVQQKDAtwcml2YWN5aWRlYTEOMAwGA1UEAwwFQ0EwMDGCCQD7yOusg80S
BzATBgNVHSUEDDAKBggrBgEFBQcDATANBgkqhkiG9w0BAQUFAAOCAQEARndrn9kw
h2hVTJX1nW6G+sIGieIeLhS9iTV7NyKFLT6yY3nI1FaBRfVCaygmrTJVu/lkTHug
p0viJ7jy8hzq2JoA/Xn2svlMcUfWZoaLTH6+qOasqB44G2Z9yb3EwjaOZ6qBPzKy
Qh67ZmfwLHX+NMQ/OYqqyttZhba+qxlqQHWipD/rOmBBeWfK0eqibT2A3j1wyDD9
8nVwa8iKthXb9J8TwYzzfl5VsGXWcAuiGP7SfKtQKH9xmlJfNLrXOlaqUH124V2x
J339KN7iasah0n7IoVqBbEQnzk9yApqh2lLKuqTfuU9TGI1CZMOnVfEUKa53TNcE
yoy6Pq5YbphPbw==
-----END CERTIFICATE-----
