Certificate:
    Data:
        Version: 3 (0x2)
        Serial Number: 268435647 (0x100000bf)
    Signature Algorithm: sha1WithRSAEncryption
        Issuer: C=DE, ST=Hessen, O=privacyidea, CN=CA001
        Validity
            Not Before: Nov 24 15:33:00 2015 GMT
            Not After : Nov 23 15:33:00 2016 GMT
        Subject: CN=Steve Test/emailAddress=steve@openssl.org
        Subject Public Key Info:
            Public Key Algorithm: rsaEncryption
                Public-Key: (2048 bit)
                Modulus:
                    00:d2:81:89:20:51:48:0f:73:f4:11:32:24:d5:1f:
                    1c:fd:5c:f5:b6:e6:c5:f0:52:81:dc:d2:af:66:4a:
                    7c:93:31:61:5c:af:d1:6d:06:70:03:60:7c:72:0c:
                    88:dd:49:cd:9e:02:6c:d2:5a:d7:53:0f:f3:da:be:
                    69:64:b5:0f:0c:00:e3:b3:50:47:a3:b3:9b:ba:13:
                    50:d6:58:5a:4b:ab:39:e0:11:ca:0a:27:67:03:78:
                    22:66:6d:92:1e:1b:5c:49:ae:e6:6b:d1:8e:3b:9d:
                    06:d3:c6:ac:4d:53:43:10:ab:e8:96:c1:87:82:97:
                    99:8f:20:d3:99:12:37:31:84:e1:8a:ff:29:03:5f:
                    22:90:3e:7f:9b:e0:20:c1:ad:dc:ae:4c:39:1a:31:
                    96:17:02:8c:b2:d9:b4:0d:20:12:9b:7d:86:54:fd:
                    33:fd:c1:2a:62:46:f8:60:96:cf:6e:01:6f:22:df:
                    13:47:e7:97:ec:05:72:23:a3:62:f8:fa:ef:ac:9c:
                    72:f0:37:cb:2f:37:cf:90:a8:27:51:86:c6:d7:78:
                    08:8f:7e:25:a2:15:70:a2:fb:1c:b6:15:5e:a0:97:
                    8b:81:4c:09:28:8a:27:3b:94:bc:71:db:5b:71:37:
                    9a:2b:16:e0:6f:b5:c9:f5:4b:4f:20:ba:65:cf:af:
                    ad:ad
                Exponent: 65537 (0x10001)
        X509v3 extensions:
            X509v3 Key Usage: 
                Digital Signature, Key Encipherment
            X509v3 Basic Constraints: 
                CA:FALSE
            Netscape Cert Type: 
                SSL Server
            Netscape Comment: 
                OpenSSL Generated Server Certificate
            X509v3 Subject Key Identifier: 
                E5:25:6D:3E:AF:0D:DD:3F:4C:F2:45:19:39:D5:14:DB:7E:9C:C0:AD
            X509v3 Authority Key Identifier: 
                keyid:F4:A7:C0:CC:91:46:AF:64:F3:91:F2:27:F8:C8:B2:6F:8A:87:32:73
                DirName:/C=DE/ST=Hessen/O=privacyidea/CN=CA001
                serial:FB:C8:EB:AC:83:CD:12:07

            X509v3 Extended Key Usage: 
                TLS Web Server Authentication
    Signature Algorithm: sha1WithRSAEncryption
         2d:af:4c:4d:1b:ed:4c:1d:2e:f9:53:bd:76:d6:4a:90:fb:8f:
         07:74:b7:55:c8:34:e9:52:77:f7:cd:7d:79:a8:d4:5a:71:c2:
         6b:33:f7:7c:b2:85:46:cc:9e:16:cf:f8:08:58:1f:e5:b3:84:
         57:d7:ed:79:77:24:a4:2a:a5:f5:79:b3:7e:d1:bb:e7:6a:d2:
         22:54:e4:36:38:5e:88:46:5c:8b:9b:e4:18:b1:24:32:cc:7d:
         a5:a4:28:38:ce:ad:9e:2b:0c:1d:0d:14:f7:67:45:0c:b3:4d:
         f3:fa:b6:be:ab:81:87:43:90:a0:bf:98:a1:3b:86:06:85:78:
         73:75:4f:88:36:a7:7c:d9:9a:11:a1:b8:79:3e:e1:6f:e2:f7:
         84:2e:5b:a8:e8:0b:e3:61:15:16:6c:5c:81:59:86:ac:7f:09:
         de:fe:6f:3e:c8:e6:a7:7e:8f:fc:d3:61:af:74:5d:6b:f3:e6:
         71:63:f8:37:5b:19:e1:84:51:b6:d2:90:01:d6:09:a7:99:fe:
         43:25:bf:fa:db:62:1b:ed:0a:54:30:54:b5:6b:53:bf:ee:78:
         f1:94:bf:49:c7:c3:03:ca:da:c7:e7:d9:29:54:18:03:12:cc:
         39:d7:f7:85:a2:1b:08:ad:73:1d:7e:8b:82:14:2e:46:aa:3b:
         2b:31:89:81
-----BEGIN CERTIFICATE-----
MIIECTCCAvGgAwIBAgIEEAAAvzANBgkqhkiG9w0BAQUFADBEMQswCQYDVQQGEwJE
RTEPMA0GA1UECAwGSGVzc2VuMRQwEgYDVQQKDAtwcml2YWN5aWRlYTEOMAwGA1UE
AwwFQ0EwMDEwHhcNMTUxMTI0MTUzMzAwWhcNMTYxMTIzMTUzMzAwWjA3MRMwEQYD
VQQDEwpTdGV2ZSBUZXN0MSAwHgYJKoZIhvcNAQkBFhFzdGV2ZUBvcGVuc3NsLm9y
ZzCCASIwDQYJKoZIhvcNAQEBBQADggEPADCCAQoCggEBANKBiSBRSA9z9BEyJNUf
HP1c9bbmxfBSgdzSr2ZKfJMxYVyv0W0GcANgfHIMiN1JzZ4CbNJa11MP89q+aWS1
DwwA47NQR6Ozm7oTUNZYWkurOeARygonZwN4ImZtkh4bXEmu5mvRjjudBtPGrE1T
QxCr6JbBh4KXmY8g05kSNzGE4Yr/KQNfIpA+f5vgIMGt3K5MORoxlhcCjLLZtA0g
Ept9hlT9M/3BKmJG+GCWz24BbyLfE0fnl+wFciOjYvj676yccvA3yy83z5CoJ1GG
xtd4CI9+JaIVcKL7HLYVXqCXi4FMCSiKJzuUvHHbW3E3misW4G+1yfVLTyC6Zc+v
ra0CAwEAAaOCAQ4wggEKMAsGA1UdDwQEAwIFoDAJBgNVHRMEAjAAMBEGCWCGSAGG
+EIBAQQEAwIGQDAzBglghkgBhvhCAQ0EJhYkT3BlblNTTCBHZW5lcmF0ZWQgU2Vy
dmVyIENlcnRpZmljYXRlMB0GA1UdDgQWBBTlJW0+rw3dP0zyRRk51RTbfpzArTB0
BgNVHSMEbTBrgBT0p8DMkUavZPOR8if4yLJviocyc6FIpEYwRDELMAkGA1UEBhMC
REUxDzANBgNVBAgMBkhlc3NlbjEUMBIGA1UECgwLcHJpdmFjeWlkZWExDjAMBgNV
BAMMBUNBMDAxggkA+8jrrIPNEgcwEwYDVR0lBAwwCgYIKwYBBQUHAwEwDQYJKoZI
hvcNAQEFBQADggEBAC2vTE0b7UwdLvlTvXbWSpD7jwd0t1XINOlSd/fNfXmo1Fpx
wmsz93yyhUbMnhbP+AhYH+WzhFfX7Xl3JKQqpfV5s37Ru+dq0iJU5DY4XohGXIub
5BixJDLMfaWkKDjOrZ4rDB0NFPdnRQyzTfP6tr6rgYdDkKC/mKE7hgaFeHN1T4g2
p3zZmhGhuHk+4W/i94QuW6joC+NhFRZsXIFZhqx/Cd7+bz7I5qd+j/zTYa90XWvz
5nFj+DdbGeGEUbbSkAHWCaeZ/kMlv/rbYhvtClQwVLVrU7/uePGUv0nHwwPK2sfn
2SlUGAMSzDnX94WiGwitcx1+i4IULkaqOysxiYE=
-----END CERTIFICATE-----
