Certificate:
    Data:
        Version: 3 (0x2)
        Serial Number: 268435662 (0x100000ce)
    Signature Algorithm: sha1WithRSAEncryption
        Issuer: C=DE, ST=Hessen, O=privacyidea, CN=CA001
        Validity
            Not Before: Sep 26 14:28:45 2015 GMT
            Not After : Sep 25 14:28:45 2016 GMT
        Subject: C=DE, ST=Hessen, O=privacyidea, CN=requester.localdomain
        Subject Public Key Info:
            Public Key Algorithm: rsaEncryption
                Public-Key: (2048 bit)
                Modulus:
                    00:cd:be:14:4f:fa:ce:01:3f:42:22:1b:1d:9c:af:
                    dd:92:d2:7f:db:6c:b7:3e:39:43:43:6b:13:03:f1:
                    05:f4:07:74:bc:76:69:28:0b:af:19:8e:d7:fc:e3:
                    cd:c6:58:f2:ca:7f:08:6d:53:fc:07:02:44:24:c6:
                    b4:34:4c:8c:04:fe:33:0e:40:e2:20:ba:02:73:5a:
                    f7:f5:4f:63:6e:cc:c6:b6:df:54:1d:37:39:7d:51:
                    36:26:5f:bd:dc:3f:a8:8b:6b:a2:ae:b6:9d:d6:21:
                    e7:df:41:b8:7a:28:2a:68:48:ca:a8:2d:ed:e1:e9:
                    46:5e:5a:72:6d:b4:84:38:87:91:fd:94:11:0b:28:
                    84:c6:c2:2f:2a:fb:01:f9:36:7a:09:75:d1:33:88:
                    3c:73:41:5b:c8:bf:94:89:70:a1:f0:c0:b9:2e:50:
                    53:1e:b1:17:64:69:f4:2d:81:e0:a9:0d:0e:32:e9:
                    ba:55:8a:85:f1:1b:6f:49:79:b4:7f:88:c3:0d:3e:
                    54:88:9b:3d:1f:38:8c:04:f3:ee:6a:63:2b:f5:c6:
                    db:b4:83:aa:c4:78:41:3a:7d:4b:e1:c8:3e:71:ca:
                    1b:61:59:ea:c6:c4:ca:32:5e:c9:e9:bf:12:29:e6:
                    c6:c3:63:fe:a0:55:da:7a:f1:60:98:4d:26:ed:fa:
                    70:2d
                Exponent: 65537 (0x10001)
        X509v3 extensions:
            X509v3 Key Usage: 
                Digital Signature, Key Encipherment
            X509v3 Basic Constraints: 
                CA:FALSE
            Netscape Cert Type: 
                SSL Server
            Netscape Comment: 
                OpenSSL Generated Server Certificate
            X509v3 Subject Key Identifier: 
                53:3F:ED:5D:09:07:B3:65:7B:AB:45:C9:24:5B:09:77:80:0A:96:ED
            X509v3 Authority Key Identifier: 
                keyid:F4:A7:C0:CC:91:46:AF:64:F3:91:F2:27:F8:C8:B2:6F:8A:87:32:73
                DirName:/C=DE/ST=Hessen/O=privacyidea/CN=CA001
                serial:FB:C8:EB:AC:83:CD:12:07

            X509v3 Extended Key Usage: 
                TLS Web Server Authentication
    Signature Algorithm: sha1WithRSAEncryption
         bd:e5:9c:22:9e:c0:ea:5e:b6:f7:f7:20:3e:c5:10:03:a0:a2:
         92:29:c8:be:c7:a1:ad:81:46:bb:a1:f7:cd:f7:e0:e8:0a:24:
         05:41:2d:f2:08:a9:d7:11:01:ce:6d:39:20:ae:ad:bb:17:f2:
         d9:fd:6d:fa:3c:62:be:07:58:9c:1a:36:e8:19:ac:97:67:70:
         a8:89:8c:d0:3d:27:e1:33:07:45:83:7a:86:e8:00:c0:ff:0f:
         54:9e:aa:d4:c3:07:b0:d3:44:4f:c5:b5:f8:57:32:78:38:ae:
         22:44:26:aa:32:f6:5d:7f:32:6f:9b:0f:af:c4:81:ef:1b:5b:
         be:25:0c:2b:d6:5f:af:b9:52:fc:80:4a:cd:d6:4d:be:f2:c2:
         9d:1e:0f:7b:9f:83:9a:d1:10:2f:2f:d5:20:3c:cf:f4:19:d4:
         2f:86:4f:8c:78:fa:63:e6:28:37:61:9a:07:a6:0d:d3:1b:f5:
         09:fc:5f:b6:35:3d:5b:53:a8:b6:e0:c8:63:a9:c3:61:c8:f5:
         e8:b5:aa:5f:5c:f6:7f:86:af:28:dc:f8:a3:da:ee:7f:01:a1:
         f2:6c:b8:68:3c:23:49:97:88:c6:ec:e6:d3:be:29:13:d1:5e:
         84:db:b1:3a:40:44:7f:e6:39:98:f4:45:f8:8f:8f:26:fd:d3:
         0d:8c:58:d0
-----BEGIN CERTIFICATE-----
MIIEJjCCAw6gAwIBAgIEEAAAzjANBgkqhkiG9w0BAQUFADBEMQswCQYDVQQGEwJE
RTEPMA0GA1UECAwGSGVzc2VuMRQwEgYDVQQKDAtwcml2YWN5aWRlYTEOMAwGA1UE
AwwFQ0EwMDEwHhcNMTUwOTI2MTQyODQ1WhcNMTYwOTI1MTQyODQ1WjBUMQswCQYD
VQQGEwJERTEPMA0GA1UECAwGSGVzc2VuMRQwEgYDVQQKDAtwcml2YWN5aWRlYTEe
MBwGA1UEAwwVcmVxdWVzdGVyLmxvY2FsZG9tYWluMIIBIjANBgkqhkiG9w0BAQEF
AAOCAQ8AMIIBCgKCAQEAzb4UT/rOAT9CIhsdnK/dktJ/22y3PjlDQ2sTA/EF9Ad0
vHZpKAuvGY7X/OPNxljyyn8IbVP8BwJEJMa0NEyMBP4zDkDiILoCc1r39U9jbszG
tt9UHTc5fVE2Jl+93D+oi2uirrad1iHn30G4eigqaEjKqC3t4elGXlpybbSEOIeR
/ZQRCyiExsIvKvsB+TZ6CXXRM4g8c0FbyL+UiXCh8MC5LlBTHrEXZGn0LYHgqQ0O
Mum6VYqF8RtvSXm0f4jDDT5UiJs9HziMBPPuamMr9cbbtIOqxHhBOn1L4cg+ccob
YVnqxsTKMl7J6b8SKebGw2P+oFXaevFgmE0m7fpwLQIDAQABo4IBDjCCAQowCwYD
VR0PBAQDAgWgMAkGA1UdEwQCMAAwEQYJYIZIAYb4QgEBBAQDAgZAMDMGCWCGSAGG
+EIBDQQmFiRPcGVuU1NMIEdlbmVyYXRlZCBTZXJ2ZXIgQ2VydGlmaWNhdGUwHQYD
VR0OBBYEFFM/7V0JB7Nle6tFySRbCXeACpbtMHQGA1UdIwRtMGuAFPSnwMyRRq9k
85HyJ/jIsm+KhzJzoUikRjBEMQswCQYDVQQGEwJERTEPMA0GA1UECAwGSGVzc2Vu
MRQwEgYDVQQKDAtwcml2YWN5aWRlYTEOMAwGA1UEAwwFQ0EwMDGCCQD7yOusg80S
BzATBgNVHSUEDDAKBggrBgEFBQcDATANBgkqhkiG9w0BAQUFAAOCAQEAveWcIp7A
6l629/cgPsUQA6CikinIvsehrYFGu6H3zffg6AokBUEt8gip1xEBzm05IK6tuxfy
2f1t+jxivgdYnBo26Bmsl2dwqImM0D0n4TMHRYN6hugAwP8PVJ6q1MMHsNNET8W1
+FcyeDiuIkQmqjL2XX8yb5sPr8SB7xtbviUMK9Zfr7lS/IBKzdZNvvLCnR4Pe5+D
mtEQLy/VIDzP9BnUL4ZPjHj6Y+YoN2GaB6YN0xv1CfxftjU9W1OotuDIY6nDYcj1
6LWqX1z2f4avKNz4o9rufwGh8my4aDwjSZeIxuzm074pE9FehNuxOkBEf+Y5mPRF
+I+PJv3TDYxY0A==
-----END CERTIFICATE-----
