V3.8
p0
.VLALR
p0
.VAA72963C489F62E391C7D93746423457
p0
.(dp0
L0L
(dp1
VBANG
p2
L1L
sVIF
p3
L29L
sVCASE
p4
L6L
sVGREATER_BAR
p5
L3L
sVREDIR_WORD
p6
L4L
sVAND_GREATER_GREATER
p7
L46L
sV>
p8
L47L
sVAND_GREATER
p9
L5L
sVLESS_LESS
p10
L19L
sVWORD
p11
L24L
sVUNTIL
p12
L31L
sVLESS_AND
p13
L27L
sVLESS_GREATER
p14
L7L
sVNUMBER
p15
L54L
sVGREATER_AND
p16
L8L
sVARITH_CMD
p17
L22L
sVTIME
p18
L50L
sVWHILE
p19
L10L
sVLBRACE
p20
L34L
sV(
p21
L23L
sVLESS_LESS_MINUS
p22
L17L
sVCOPROC
p23
L26L
sV<
p24
L37L
sVCOND_START
p25
L52L
sVNEWLINE
p26
L36L
sVSELECT
p27
L41L
sVGREATER_GREATER
p28
L12L
sVFUNCTION
p29
L11L
sVLESS_LESS_LESS
p30
L15L
sVFOR
p31
L53L
ssL1L
(dp32
g2
L1L
sV;
p33
L57L
sg4
L6L
sg5
L3L
sg6
L4L
sg7
L46L
sg8
L47L
sg9
L5L
sg3
L29L
sg10
L19L
sg11
L24L
sg12
L31L
sg13
L27L
sg14
L7L
sg15
L54L
sg16
L8L
sg17
L22L
sg18
L50L
sg19
L10L
sg20
L34L
sg21
L23L
sg22
L17L
sg23
L26L
sg24
L37L
sg25
L52L
sVNEWLINE
p34
L55L
sg27
L41L
sg28
L12L
sg29
L11L
sg30
L15L
sg31
L53L
ssL2L
(dp35
g33
L-59L
sVOR_OR
p36
L-59L
sg6
L4L
sg7
L46L
sV&
p37
L-59L
sVESAC
p38
L-59L
sg8
L47L
sg9
L5L
sVELSE
p39
L-59L
sVBAR_AND
p40
L-59L
sg10
L19L
sVFI
p41
L-59L
sg13
L27L
sVAND_AND
p42
L-59L
sg14
L7L
sg16
L8L
sg5
L3L
sVSEMI_SEMI
p43
L-59L
sVSEMI_SEMI_AND
p44
L-59L
sVTHEN
p45
L-59L
sg22
L17L
sVELIF
p46
L-59L
sg24
L37L
sV|
p47
L-59L
sV)
p48
L-59L
sVNEWLINE
p49
L-59L
sVDONE
p50
L-59L
sV}
p51
L-59L
sVNUMBER
p52
L61L
sVDO
p53
L-59L
sg30
L15L
sVSEMI_AND
p54
L-59L
sg28
L12L
ssL3L
(dp55
VWORD
p56
L62L
ssL4L
(dp57
VLESS_LESS_MINUS
p58
L64L
sVGREATER_BAR
p59
L63L
sVGREATER_GREATER
p60
L68L
sVLESS_GREATER
p61
L69L
sg24
L65L
sVGREATER_AND
p62
L70L
sg8
L66L
sVLESS_LESS_LESS
p63
L71L
sVLESS_AND
p64
L72L
sVLESS_LESS
p65
L67L
ssL5L
(dp66
VWORD
p67
L73L
ssL6L
(dp68
VWORD
p69
L74L
ssL7L
(dp70
VWORD
p71
L75L
ssL8L
(dp72
VNUMBER
p73
L78L
sV-
p74
L76L
sVWORD
p75
L77L
ssL9L
(dp76
g2
L1L
sg3
L29L
sg4
L6L
sg5
L3L
sg6
L4L
sg7
L46L
sg8
L47L
sg9
L5L
sg10
L19L
sg11
L24L
sg12
L31L
sg13
L27L
sg14
L7L
sg15
L54L
sg16
L8L
sg17
L22L
sg18
L50L
sg19
L10L
sg20
L34L
sg21
L23L
sg22
L17L
sg23
L26L
sg24
L37L
sg25
L52L
sg26
L36L
sg27
L41L
sV$end
p77
L0L
sg29
L11L
sg30
L15L
sg31
L53L
sg28
L12L
ssL10L
(dp78
g2
L-146L
sg3
L-146L
sg4
L-146L
sg5
L-146L
sg6
L-146L
sg7
L-146L
sg8
L-146L
sg9
L-146L
sg10
L-146L
sg11
L-146L
sg12
L-146L
sg13
L-146L
sg14
L-146L
sg15
L-146L
sg16
L-146L
sg17
L-146L
sg18
L-146L
sg19
L-146L
sg20
L-146L
sg21
L-146L
sg22
L-146L
sg23
L-146L
sg24
L-146L
sg25
L-146L
sVNEWLINE
p79
L-146L
sg27
L-146L
sg28
L-146L
sg29
L-146L
sg30
L-146L
sg31
L-146L
ssL11L
(dp80
VWORD
p81
L83L
ssL12L
(dp82
VWORD
p83
L84L
ssL13L
(dp84
g33
L-63L
sg5
L-63L
sg6
L-63L
sg37
L-63L
sg7
L-63L
sg8
L-63L
sg9
L-63L
sg39
L-63L
sg40
L-63L
sg10
L-63L
sg41
L-63L
sVAND_AND
p85
L-63L
sg14
L-63L
sg16
L-63L
sg54
L-63L
sVOR_OR
p86
L-63L
sg43
L-63L
sg44
L-63L
sg45
L-63L
sg22
L-63L
sg46
L-63L
sg24
L-63L
sg47
L-63L
sg48
L-63L
sVNEWLINE
p87
L-63L
sg50
L-63L
sg28
L-63L
sg52
L-63L
sg38
L-63L
sg51
L-63L
sg53
L-63L
sg30
L-63L
sg13
L-63L
ssL14L
(dp88
g87
L-148L
sg33
L85L
sg86
L86L
sg85
L87L
sg37
L88L
ssL15L
(dp89
VWORD
p90
L89L
ssL16L
(dp91
g33
L-67L
sg5
L-67L
sg6
L-67L
sg37
L-67L
sg7
L-67L
sg8
L-67L
sg9
L-67L
sg39
L-67L
sg40
L-67L
sg10
L-67L
sg41
L-67L
sg85
L-67L
sg14
L-67L
sg16
L-67L
sg54
L-67L
sg86
L-67L
sg43
L-67L
sg44
L-67L
sg45
L-67L
sg22
L-67L
sg46
L-67L
sg24
L-67L
sg47
L-67L
sg48
L-67L
sg87
L-67L
sg50
L-67L
sg28
L-67L
sg52
L-67L
sg38
L-67L
sg51
L-67L
sg53
L-67L
sg30
L-67L
sg13
L-67L
ssL17L
(dp92
VWORD
p93
L90L
ssL18L
(dp94
g87
L-155L
sg33
L-155L
sg86
L-155L
sg85
L-155L
sg37
L-155L
ssL19L
(dp95
VWORD
p96
L91L
ssL20L
(dp97
g33
L-71L
sg5
L-71L
sg6
L-71L
sg37
L-71L
sg7
L-71L
sg8
L-71L
sg9
L-71L
sg39
L-71L
sg40
L-71L
sg10
L-71L
sg41
L-71L
sg85
L-71L
sg14
L-71L
sg16
L-71L
sg54
L-71L
sg86
L-71L
sg43
L-71L
sg44
L-71L
sg45
L-71L
sg22
L-71L
sg46
L-71L
sg24
L-71L
sg47
L-71L
sg48
L-71L
sg87
L-71L
sg50
L-71L
sg28
L-71L
sg52
L-71L
sg38
L-71L
sg51
L-71L
sg53
L-71L
sg30
L-71L
sg13
L-71L
ssL21L
(dp98
g33
L-56L
sg5
L-56L
sg6
L-56L
sg37
L-56L
sg7
L-56L
sg8
L-56L
sg9
L-56L
sg39
L-56L
sg40
L-56L
sg10
L-56L
sVWORD
p99
L-56L
sg42
L-56L
sg14
L-56L
sg16
L-56L
sg54
L-56L
sg36
L-56L
sg43
L-56L
sg44
L-56L
sg45
L-56L
sg22
L-56L
sg41
L-56L
sg24
L-56L
sg46
L-56L
sg47
L-56L
sg48
L-56L
sg49
L-56L
sg50
L-56L
sg28
L-56L
sg15
L-56L
sg38
L-56L
sg51
L-56L
sg53
L-56L
sg30
L-56L
sg13
L-56L
ssL22L
(dp100
g33
L-112L
sg5
L-112L
sg6
L-112L
sg37
L-112L
sg7
L-112L
sg8
L-112L
sg9
L-112L
sg39
L-112L
sg40
L-112L
sg10
L-112L
sg41
L-112L
sg85
L-112L
sg14
L-112L
sg16
L-112L
sg54
L-112L
sg86
L-112L
sg43
L-112L
sg44
L-112L
sg45
L-112L
sg22
L-112L
sg46
L-112L
sg24
L-112L
sg47
L-112L
sg48
L-112L
sg87
L-112L
sg50
L-112L
sg28
L-112L
sg52
L-112L
sg38
L-112L
sg51
L-112L
sg53
L-112L
sg30
L-112L
sg13
L-112L
ssL23L
(dp101
g2
L-146L
sg3
L-146L
sg4
L-146L
sg5
L-146L
sg6
L-146L
sg7
L-146L
sg8
L-146L
sg9
L-146L
sg10
L-146L
sg11
L-146L
sg12
L-146L
sg13
L-146L
sg14
L-146L
sg15
L-146L
sg16
L-146L
sg17
L-146L
sg18
L-146L
sg19
L-146L
sg20
L-146L
sg21
L-146L
sg22
L-146L
sg23
L-146L
sg24
L-146L
sg25
L-146L
sg79
L-146L
sg27
L-146L
sg28
L-146L
sg29
L-146L
sg30
L-146L
sg31
L-146L
ssL24L
(dp102
g33
L-51L
sg39
L-51L
sg86
L-51L
sg6
L-51L
sg5
L-51L
sg37
L-51L
sg7
L-51L
sg8
L-51L
sg9
L-51L
sg45
L-51L
sg40
L-51L
sg10
L-51L
sg99
L-51L
sg85
L-51L
sg14
L-51L
sV=
p103
L94L
sg54
L-51L
sg16
L-51L
sg43
L-51L
sg44
L-51L
sg21
L93L
sg22
L-51L
sg41
L-51L
sg24
L-51L
sg46
L-51L
sg47
L-51L
sg48
L-51L
sg87
L-51L
sg50
L-51L
sg28
L-51L
sg15
L-51L
sg38
L-51L
sg51
L-51L
sg53
L-51L
sg30
L-51L
sg13
L-51L
ssL25L
(dp104
g44
L-156L
sg33
L-156L
sg36
L-156L
sg40
L96L
sg37
L-156L
sg47
L95L
sg38
L-156L
sg46
L-156L
sg39
L-156L
sg48
L-156L
sg42
L-156L
sg49
L-156L
sg50
L-156L
sg51
L-156L
sg41
L-156L
sg45
L-156L
sg43
L-156L
sg53
L-156L
sg54
L-156L
ssL26L
(dp105
g3
L29L
sg4
L6L
sg5
L3L
sg6
L4L
sg7
L46L
sg8
L47L
sg9
L5L
sg10
L19L
sVWORD
p106
L98L
sg12
L31L
sg13
L27L
sg14
L7L
sg16
L8L
sg17
L22L
sg19
L10L
sg20
L34L
sg21
L23L
sg22
L17L
sg24
L37L
sg25
L52L
sg27
L41L
sg28
L12L
sg15
L54L
sg30
L15L
sg31
L53L
ssL27L
(dp107
VNUMBER
p108
L100L
sg74
L101L
sVWORD
p109
L102L
ssL28L
(dp110
g33
L-69L
sg5
L-69L
sg6
L-69L
sg37
L-69L
sg7
L-69L
sg8
L-69L
sg9
L-69L
sg39
L-69L
sg40
L-69L
sg10
L-69L
sg41
L-69L
sg85
L-69L
sg14
L-69L
sg16
L-69L
sg54
L-69L
sg86
L-69L
sg43
L-69L
sg44
L-69L
sg45
L-69L
sg22
L-69L
sg46
L-69L
sg24
L-69L
sg47
L-69L
sg48
L-69L
sg87
L-69L
sg50
L-69L
sg28
L-69L
sg52
L-69L
sg38
L-69L
sg51
L-69L
sg53
L-69L
sg30
L-69L
sg13
L-69L
ssL29L
(dp111
g2
L-146L
sg3
L-146L
sg4
L-146L
sg5
L-146L
sg6
L-146L
sg7
L-146L
sg8
L-146L
sg9
L-146L
sg10
L-146L
sg11
L-146L
sg12
L-146L
sg13
L-146L
sg14
L-146L
sg15
L-146L
sg16
L-146L
sg17
L-146L
sg18
L-146L
sg19
L-146L
sg20
L-146L
sg21
L-146L
sg22
L-146L
sg23
L-146L
sg24
L-146L
sg25
L-146L
sg79
L-146L
sg27
L-146L
sg28
L-146L
sg29
L-146L
sg30
L-146L
sg31
L-146L
ssL30L
(dp112
g54
L-62L
sg44
L-62L
sg33
L-62L
sg39
L-62L
sg36
L-62L
sg37
L-62L
sg38
L-62L
sg46
L-62L
sg47
L-62L
sg48
L-62L
sg40
L-62L
sg49
L-62L
sg50
L-62L
sg42
L-62L
sg41
L-62L
sg45
L-62L
sg43
L-62L
sg53
L-62L
sg51
L-62L
ssL31L
(dp113
g2
L-146L
sg3
L-146L
sg4
L-146L
sg5
L-146L
sg6
L-146L
sg7
L-146L
sg8
L-146L
sg9
L-146L
sg10
L-146L
sg11
L-146L
sg12
L-146L
sg13
L-146L
sg14
L-146L
sg15
L-146L
sg16
L-146L
sg17
L-146L
sg18
L-146L
sg19
L-146L
sg20
L-146L
sg21
L-146L
sg22
L-146L
sg23
L-146L
sg24
L-146L
sg25
L-146L
sg79
L-146L
sg27
L-146L
sg28
L-146L
sg29
L-146L
sg30
L-146L
sg31
L-146L
ssL32L
(dp114
g54
L-61L
sg44
L-61L
sg33
L-61L
sg39
L-61L
sg36
L-61L
sg37
L-61L
sg38
L-61L
sg46
L-61L
sg47
L-61L
sg48
L-61L
sg40
L-61L
sg49
L-61L
sg50
L-61L
sg42
L-61L
sg41
L-61L
sg45
L-61L
sg43
L-61L
sg53
L-61L
sg51
L-61L
ssL33L
(dp115
g33
L-53L
sg5
L-53L
sg6
L-53L
sg37
L-53L
sg7
L-53L
sg8
L-53L
sg9
L-53L
sg39
L-53L
sg40
L-53L
sg10
L-53L
sg99
L-53L
sg85
L-53L
sg14
L-53L
sg16
L-53L
sg54
L-53L
sg86
L-53L
sg43
L-53L
sg44
L-53L
sg45
L-53L
sg22
L-53L
sg41
L-53L
sg24
L-53L
sg46
L-53L
sg47
L-53L
sg48
L-53L
sg87
L-53L
sg50
L-53L
sg28
L-53L
sg15
L-53L
sg38
L-53L
sg51
L-53L
sg53
L-53L
sg30
L-53L
sg13
L-53L
ssL34L
(dp116
g2
L-146L
sg3
L-146L
sg4
L-146L
sg5
L-146L
sg6
L-146L
sg7
L-146L
sg8
L-146L
sg9
L-146L
sg10
L-146L
sg11
L-146L
sg12
L-146L
sg13
L-146L
sg14
L-146L
sg15
L-146L
sg16
L-146L
sg17
L-146L
sg18
L-146L
sg19
L-146L
sg20
L-146L
sg21
L-146L
sg22
L-146L
sg23
L-146L
sg24
L-146L
sg25
L-146L
sg79
L-146L
sg27
L-146L
sg28
L-146L
sg29
L-146L
sg30
L-146L
sg31
L-146L
ssL35L
(dp117
g33
L-64L
sg5
L-64L
sg6
L-64L
sg37
L-64L
sg7
L-64L
sg8
L-64L
sg9
L-64L
sg39
L-64L
sg40
L-64L
sg10
L-64L
sg41
L-64L
sg85
L-64L
sg14
L-64L
sg16
L-64L
sg54
L-64L
sg86
L-64L
sg43
L-64L
sg44
L-64L
sg45
L-64L
sg22
L-64L
sg46
L-64L
sg24
L-64L
sg47
L-64L
sg48
L-64L
sg87
L-64L
sg50
L-64L
sg28
L-64L
sg52
L-64L
sg38
L-64L
sg51
L-64L
sg53
L-64L
sg30
L-64L
sg13
L-64L
ssL36L
(dp118
g2
L-4L
sg3
L-4L
sg4
L-4L
sg5
L-4L
sg6
L-4L
sg7
L-4L
sg8
L-4L
sg9
L-4L
sg10
L-4L
sg11
L-4L
sg12
L-4L
sg13
L-4L
sg14
L-4L
sg15
L-4L
sg16
L-4L
sg17
L-4L
sg18
L-4L
sg19
L-4L
sg20
L-4L
sg21
L-4L
sg22
L-4L
sg23
L-4L
sg24
L-4L
sg25
L-4L
sg26
L-4L
sg27
L-4L
sg28
L-4L
sg29
L-4L
sg30
L-4L
sg31
L-4L
sV$end
p119
L-4L
ssL37L
(dp120
VWORD
p121
L106L
ssL38L
(dp122
g33
L-72L
sg5
L-72L
sg6
L-72L
sg37
L-72L
sg7
L-72L
sg8
L-72L
sg9
L-72L
sg39
L-72L
sg40
L-72L
sg10
L-72L
sg41
L-72L
sg85
L-72L
sg14
L-72L
sg16
L-72L
sg54
L-72L
sg86
L-72L
sg43
L-72L
sg44
L-72L
sg45
L-72L
sg22
L-72L
sg46
L-72L
sg24
L-72L
sg47
L-72L
sg48
L-72L
sg87
L-72L
sg50
L-72L
sg28
L-72L
sg52
L-72L
sg38
L-72L
sg51
L-72L
sg53
L-72L
sg30
L-72L
sg13
L-72L
ssL39L
(dp123
g2
L-1L
sg3
L-1L
sg4
L-1L
sg5
L-1L
sg6
L-1L
sg7
L-1L
sg8
L-1L
sg9
L-1L
sg10
L-1L
sg11
L-1L
sg12
L-1L
sg13
L-1L
sg14
L-1L
sg15
L-1L
sg16
L-1L
sg17
L-1L
sg18
L-1L
sg19
L-1L
sg20
L-1L
sg21
L-1L
sg22
L-1L
sg23
L-1L
sg24
L-1L
sg25
L-1L
sg26
L-1L
sg27
L-1L
sg28
L-1L
sg29
L-1L
sg30
L-1L
sg31
L-1L
sg119
L-1L
ssL40L
(dp124
g33
L-176L
sg86
L-176L
sg6
L-175L
sg7
L-175L
sg37
L-176L
sg38
L-176L
sg8
L-175L
sg9
L-175L
sg39
L-176L
sg40
L-176L
sg10
L-175L
sg99
L-175L
sg13
L-175L
sg85
L-176L
sg14
L-175L
sg16
L-175L
sg5
L-175L
sg43
L-176L
sg44
L-176L
sg45
L-176L
sg22
L-175L
sg46
L-176L
sg24
L-175L
sg47
L-176L
sg48
L-176L
sg87
L-176L
sg50
L-176L
sg51
L-176L
sg41
L-176L
sg15
L-175L
sg53
L-176L
sg30
L-175L
sg54
L-176L
sg28
L-175L
ssL41L
(dp125
VWORD
p126
L109L
ssL42L
(dp127
g33
L-73L
sg5
L-73L
sg6
L-73L
sg37
L-73L
sg7
L-73L
sg8
L-73L
sg9
L-73L
sg39
L-73L
sg40
L-73L
sg10
L-73L
sg41
L-73L
sg85
L-73L
sg14
L-73L
sg16
L-73L
sg54
L-73L
sg86
L-73L
sg43
L-73L
sg44
L-73L
sg45
L-73L
sg22
L-73L
sg46
L-73L
sg24
L-73L
sg47
L-73L
sg48
L-73L
sg87
L-73L
sg50
L-73L
sg28
L-73L
sg52
L-73L
sg38
L-73L
sg51
L-73L
sg53
L-73L
sg30
L-73L
sg13
L-73L
ssL43L
(dp128
g2
L1L
sg33
L57L
sg4
L6L
sg5
L3L
sg6
L4L
sg7
L46L
sg8
L47L
sg9
L5L
sg3
L29L
sg10
L19L
sg11
L24L
sg12
L31L
sg13
L27L
sg14
L7L
sg15
L54L
sg16
L8L
sg17
L22L
sg18
L50L
sg19
L10L
sg20
L34L
sg21
L23L
sg22
L17L
sg23
L26L
sg24
L37L
sg25
L52L
sg34
L55L
sg27
L41L
sg28
L12L
sg29
L11L
sg30
L15L
sg31
L53L
ssL44L
(dp129
g33
L-68L
sg5
L-68L
sg6
L-68L
sg37
L-68L
sg7
L-68L
sg8
L-68L
sg9
L-68L
sg39
L-68L
sg40
L-68L
sg10
L-68L
sg41
L-68L
sg85
L-68L
sg14
L-68L
sg16
L-68L
sg54
L-68L
sg86
L-68L
sg43
L-68L
sg44
L-68L
sg45
L-68L
sg22
L-68L
sg46
L-68L
sg24
L-68L
sg47
L-68L
sg48
L-68L
sg87
L-68L
sg50
L-68L
sg28
L-68L
sg52
L-68L
sg38
L-68L
sg51
L-68L
sg53
L-68L
sg30
L-68L
sg13
L-68L
ssL45L
(dp130
g33
L-70L
sg5
L-70L
sg6
L-70L
sg37
L-70L
sg7
L-70L
sg8
L-70L
sg9
L-70L
sg39
L-70L
sg40
L-70L
sg10
L-70L
sg41
L-70L
sg85
L-70L
sg14
L-70L
sg16
L-70L
sg54
L-70L
sg86
L-70L
sg43
L-70L
sg44
L-70L
sg45
L-70L
sg22
L-70L
sg46
L-70L
sg24
L-70L
sg47
L-70L
sg48
L-70L
sg87
L-70L
sg50
L-70L
sg28
L-70L
sg52
L-70L
sg38
L-70L
sg51
L-70L
sg53
L-70L
sg30
L-70L
sg13
L-70L
ssL46L
(dp131
VWORD
p132
L112L
ssL47L
(dp133
VWORD
p134
L113L
ssL48L
(dp135
g87
L114L
ssL49L
(dp136
g54
L-163L
sg44
L-163L
sg33
L-163L
sg39
L-163L
sg86
L-163L
sg37
L-163L
sg38
L-163L
sg46
L-163L
sg47
L-163L
sg48
L-163L
sg40
L-163L
sg87
L-163L
sg50
L-163L
sg85
L-163L
sg41
L-163L
sg45
L-163L
sg43
L-163L
sg53
L-163L
sg51
L-163L
ssL50L
(dp137
g2
L-164L
sg33
L-164L
sg4
L-164L
sg5
L-164L
sg6
L-164L
sg7
L-164L
sg8
L-164L
sg9
L-164L
sg3
L-164L
sVTIMEOPT
p138
L116L
sg10
L-164L
sg11
L-164L
sg12
L-164L
sg13
L-164L
sg14
L-164L
sg15
L-164L
sg16
L-164L
sg17
L-164L
sg18
L-164L
sg19
L-164L
sg20
L-164L
sg21
L-164L
sg22
L-164L
sg23
L-164L
sg24
L-164L
sg25
L-164L
sg34
L-164L
sg27
L-164L
sg28
L-164L
sg29
L-164L
sg30
L-164L
sg31
L-164L
ssL51L
(dp139
g33
L-52L
sg5
L-52L
sg6
L-52L
sg37
L-52L
sg7
L-52L
sg8
L-52L
sg9
L-52L
sg39
L-52L
sg40
L-52L
sg10
L-52L
sg99
L-52L
sg85
L-52L
sg14
L-52L
sg16
L-52L
sg54
L-52L
sg86
L-52L
sg43
L-52L
sg44
L-52L
sg45
L-52L
sg22
L-52L
sg41
L-52L
sg24
L-52L
sg46
L-52L
sg47
L-52L
sg48
L-52L
sg87
L-52L
sg50
L-52L
sg28
L-52L
sg15
L-52L
sg38
L-52L
sg51
L-52L
sg53
L-52L
sg30
L-52L
sg13
L-52L
ssL52L
(dp140
VCOND_CMD
p141
L117L
ssL53L
(dp142
VWORD
p143
L119L
sVARITH_FOR_EXPRS
p144
L118L
ssL54L
(dp145
g33
L-174L
sg5
L120L
sg6
L-174L
sg37
L-174L
sg7
L-174L
sg8
L123L
sg9
L-174L
sg39
L-174L
sg40
L-174L
sg10
L124L
sg99
L-174L
sg85
L-174L
sg14
L126L
sg16
L127L
sg54
L-174L
sg86
L-174L
sg43
L-174L
sg44
L-174L
sg45
L-174L
sg22
L121L
sg41
L-174L
sg24
L122L
sg46
L-174L
sg47
L-174L
sg48
L-174L
sg87
L-174L
sg50
L-174L
sg28
L125L
sg15
L-174L
sg38
L-174L
sg51
L-174L
sg53
L-174L
sg30
L128L
sg13
L129L
ssL55L
(dp146
g44
L-144L
sg33
L-144L
sg86
L-144L
sg37
L-144L
sg38
L-144L
sg46
L-144L
sg39
L-144L
sg48
L-144L
sg85
L-144L
sg87
L-144L
sg50
L-144L
sg54
L-144L
sg41
L-144L
sg45
L-144L
sg43
L-144L
sg53
L-144L
sg51
L-144L
sVLBRACE
p147
L-144L
ssL56L
(dp148
g44
L-157L
sg33
L-157L
sg36
L-157L
sg37
L-157L
sg38
L-157L
sg46
L-157L
sg39
L-157L
sg48
L-157L
sg42
L-157L
sg49
L-157L
sg50
L-157L
sg51
L-157L
sg41
L-157L
sg45
L-157L
sg43
L-157L
sg53
L-157L
sg54
L-157L
ssL57L
(dp149
g44
L-145L
sg33
L-145L
sg86
L-145L
sg37
L-145L
sg38
L-145L
sg46
L-145L
sg39
L-145L
sg48
L-145L
sg85
L-145L
sg87
L-145L
sg50
L-145L
sg54
L-145L
sg41
L-145L
sg45
L-145L
sg43
L-145L
sg53
L-145L
sg51
L-145L
sg147
L-145L
ssL58L
(dp150
g44
L-160L
sg33
L-160L
sg36
L-160L
sg37
L-160L
sg38
L-160L
sg46
L-160L
sg39
L-160L
sg48
L-160L
sg42
L-160L
sg49
L-160L
sg50
L-160L
sg51
L-160L
sg41
L-160L
sg45
L-160L
sg43
L-160L
sg53
L-160L
sg54
L-160L
ssL59L
(dp151
g33
L-54L
sg5
L-54L
sg6
L-54L
sg37
L-54L
sg7
L-54L
sg8
L-54L
sg9
L-54L
sg39
L-54L
sg40
L-54L
sg10
L-54L
sg41
L-54L
sg85
L-54L
sg14
L-54L
sg16
L-54L
sg54
L-54L
sg86
L-54L
sg43
L-54L
sg44
L-54L
sg45
L-54L
sg22
L-54L
sg46
L-54L
sg24
L-54L
sg47
L-54L
sg48
L-54L
sg87
L-54L
sg50
L-54L
sg28
L-54L
sg52
L-54L
sg38
L-54L
sg51
L-54L
sg53
L-54L
sg30
L-54L
sg13
L-54L
ssL60L
(dp152
g33
L-60L
sg36
L-60L
sg6
L4L
sg7
L46L
sg37
L-60L
sg38
L-60L
sg8
L47L
sg9
L5L
sg39
L-60L
sg40
L-60L
sg10
L19L
sg41
L-60L
sg13
L27L
sg42
L-60L
sg14
L7L
sg16
L8L
sg5
L3L
sg43
L-60L
sg44
L-60L
sg45
L-60L
sg22
L17L
sg46
L-60L
sg24
L37L
sg47
L-60L
sg48
L-60L
sg49
L-60L
sg50
L-60L
sg51
L-60L
sg52
L61L
sg53
L-60L
sg30
L15L
sg54
L-60L
sg28
L12L
ssL61L
(dp153
VLESS_LESS_MINUS
p154
L121L
sVGREATER_BAR
p155
L120L
sVGREATER_GREATER
p156
L125L
sVLESS_GREATER
p157
L126L
sg24
L122L
sVGREATER_AND
p158
L127L
sg8
L123L
sVLESS_LESS_LESS
p159
L128L
sVLESS_AND
p160
L129L
sVLESS_LESS
p161
L124L
ssL62L
(dp162
g33
L-16L
sg5
L-16L
sg6
L-16L
sg37
L-16L
sg7
L-16L
sg8
L-16L
sg9
L-16L
sg39
L-16L
sg40
L-16L
sg10
L-16L
sg99
L-16L
sg42
L-16L
sg14
L-16L
sg16
L-16L
sg54
L-16L
sg36
L-16L
sg43
L-16L
sg44
L-16L
sg45
L-16L
sg22
L-16L
sg41
L-16L
sg24
L-16L
sg46
L-16L
sg47
L-16L
sg48
L-16L
sg49
L-16L
sg50
L-16L
sg28
L-16L
sg15
L-16L
sg38
L-16L
sg51
L-16L
sg53
L-16L
sg30
L-16L
sg13
L-16L
ssL63L
(dp163
VWORD
p164
L131L
ssL64L
(dp165
VWORD
p166
L132L
ssL65L
(dp167
VWORD
p168
L133L
ssL66L
(dp169
VWORD
p170
L134L
ssL67L
(dp171
VWORD
p172
L135L
ssL68L
(dp173
VWORD
p174
L136L
ssL69L
(dp175
VWORD
p176
L137L
ssL70L
(dp177
VNUMBER
p178
L140L
sg74
L138L
sVWORD
p179
L139L
ssL71L
(dp180
VWORD
p181
L141L
ssL72L
(dp182
VNUMBER
p183
L142L
sg74
L143L
sVWORD
p184
L144L
ssL73L
(dp185
g33
L-49L
sg5
L-49L
sg6
L-49L
sg37
L-49L
sg7
L-49L
sg8
L-49L
sg9
L-49L
sg39
L-49L
sg40
L-49L
sg10
L-49L
sg99
L-49L
sg42
L-49L
sg14
L-49L
sg16
L-49L
sg54
L-49L
sg36
L-49L
sg43
L-49L
sg44
L-49L
sg45
L-49L
sg22
L-49L
sg41
L-49L
sg24
L-49L
sg46
L-49L
sg47
L-49L
sg48
L-49L
sg49
L-49L
sg50
L-49L
sg28
L-49L
sg15
L-49L
sg38
L-49L
sg51
L-49L
sg53
L-49L
sg30
L-49L
sg13
L-49L
ssL74L
(dp186
g79
L-146L
sVIN
p187
L-146L
ssL75L
(dp188
g33
L-19L
sg5
L-19L
sg6
L-19L
sg37
L-19L
sg7
L-19L
sg8
L-19L
sg9
L-19L
sg39
L-19L
sg40
L-19L
sg10
L-19L
sg99
L-19L
sg42
L-19L
sg14
L-19L
sg16
L-19L
sg54
L-19L
sg36
L-19L
sg43
L-19L
sg44
L-19L
sg45
L-19L
sg22
L-19L
sg41
L-19L
sg24
L-19L
sg46
L-19L
sg47
L-19L
sg48
L-19L
sg49
L-19L
sg50
L-19L
sg28
L-19L
sg15
L-19L
sg38
L-19L
sg51
L-19L
sg53
L-19L
sg30
L-19L
sg13
L-19L
ssL76L
(dp189
g33
L-43L
sg5
L-43L
sg6
L-43L
sg37
L-43L
sg7
L-43L
sg8
L-43L
sg9
L-43L
sg39
L-43L
sg40
L-43L
sg10
L-43L
sg99
L-43L
sg42
L-43L
sg14
L-43L
sg16
L-43L
sg54
L-43L
sg36
L-43L
sg43
L-43L
sg44
L-43L
sg45
L-43L
sg22
L-43L
sg41
L-43L
sg24
L-43L
sg46
L-43L
sg47
L-43L
sg48
L-43L
sg49
L-43L
sg50
L-43L
sg28
L-43L
sg15
L-43L
sg38
L-43L
sg51
L-43L
sg53
L-43L
sg30
L-43L
sg13
L-43L
ssL77L
(dp190
g33
L-40L
sg5
L-40L
sg6
L-40L
sg37
L-40L
sg7
L-40L
sg8
L-40L
sg9
L-40L
sg39
L-40L
sg40
L-40L
sg10
L-40L
sg99
L-40L
sg42
L-40L
sg14
L-40L
sg16
L-40L
sg54
L-40L
sg36
L-40L
sg43
L-40L
sg44
L-40L
sg45
L-40L
sg22
L-40L
sg41
L-40L
sg24
L-40L
sg46
L-40L
sg47
L-40L
sg48
L-40L
sg49
L-40L
sg50
L-40L
sg28
L-40L
sg15
L-40L
sg38
L-40L
sg51
L-40L
sg53
L-40L
sg30
L-40L
sg13
L-40L
ssL78L
(dp191
g33
L-34L
sg5
L-34L
sg6
L-34L
sg37
L-34L
sg7
L-34L
sg8
L-34L
sg9
L-34L
sg39
L-34L
sg40
L-34L
sg10
L-34L
sg99
L-34L
sg42
L-34L
sg14
L-34L
sg16
L-34L
sg54
L-34L
sg36
L-34L
sg43
L-34L
sg44
L-34L
sg45
L-34L
sg22
L-34L
sg41
L-34L
sg24
L-34L
sg46
L-34L
sg47
L-34L
sg48
L-34L
sg49
L-34L
sg50
L-34L
sg28
L-34L
sg15
L-34L
sg38
L-34L
sg51
L-34L
sg53
L-34L
sg30
L-34L
sg13
L-34L
ssL79L
(dp192
g2
L-2L
sg3
L-2L
sg4
L-2L
sg5
L-2L
sg6
L-2L
sg7
L-2L
sg8
L-2L
sg9
L-2L
sg10
L-2L
sg11
L-2L
sg12
L-2L
sg13
L-2L
sg14
L-2L
sg15
L-2L
sg16
L-2L
sg17
L-2L
sg18
L-2L
sg19
L-2L
sg20
L-2L
sg21
L-2L
sg22
L-2L
sg23
L-2L
sg24
L-2L
sg25
L-2L
sg26
L-2L
sg27
L-2L
sg28
L-2L
sg29
L-2L
sg30
L-2L
sg31
L-2L
sg119
L-2L
ssL80L
(dp193
g44
L-132L
sVELSE
p194
L-132L
sVTHEN
p195
L-132L
sg46
L-132L
sg38
L-132L
sg48
L-132L
sVFI
p196
L-132L
sVDONE
p197
L-132L
sg51
L-132L
sg43
L-132L
sVDO
p198
L-132L
sg54
L-132L
ssL81L
(dp199
g2
L1L
sg3
L29L
sg4
L6L
sg5
L3L
sg6
L4L
sg7
L46L
sg8
L47L
sg9
L5L
sg10
L19L
sg11
L24L
sg12
L31L
sg13
L27L
sg14
L7L
sg15
L54L
sg16
L8L
sg17
L22L
sg18
L50L
sg19
L10L
sg20
L34L
sg21
L23L
sg22
L17L
sg23
L26L
sg24
L37L
sg25
L52L
sg79
L147L
sg27
L41L
sg28
L12L
sg29
L11L
sg30
L15L
sg31
L53L
ssL82L
(dp200
g53
L150L
ssL83L
(dp201
g79
L-146L
sg12
L-146L
sg4
L-146L
sg21
L151L
sg19
L-146L
sg27
L-146L
sg25
L-146L
sg17
L-146L
sg3
L-146L
sg31
L-146L
sg20
L-146L
ssL84L
(dp202
g33
L-13L
sg5
L-13L
sg6
L-13L
sg37
L-13L
sg7
L-13L
sg8
L-13L
sg9
L-13L
sg39
L-13L
sg40
L-13L
sg10
L-13L
sg99
L-13L
sg42
L-13L
sg14
L-13L
sg16
L-13L
sg54
L-13L
sg36
L-13L
sg43
L-13L
sg44
L-13L
sg45
L-13L
sg22
L-13L
sg41
L-13L
sg24
L-13L
sg46
L-13L
sg47
L-13L
sg48
L-13L
sg49
L-13L
sg50
L-13L
sg28
L-13L
sg15
L-13L
sg38
L-13L
sg51
L-13L
sg53
L-13L
sg30
L-13L
sg13
L-13L
ssL85L
(dp203
g2
L1L
sg3
L29L
sg4
L6L
sg5
L3L
sg6
L4L
sg7
L46L
sg8
L47L
sg9
L5L
sg10
L19L
sg11
L24L
sg12
L31L
sg13
L27L
sg14
L7L
sg15
L54L
sg16
L8L
sg17
L22L
sg18
L50L
sg19
L10L
sg20
L34L
sg21
L23L
sg22
L17L
sg23
L26L
sg24
L37L
sg25
L52L
sg87
L-150L
sg27
L41L
sg28
L12L
sg29
L11L
sg30
L15L
sg31
L53L
ssL86L
(dp204
g2
L-146L
sg3
L-146L
sg4
L-146L
sg5
L-146L
sg6
L-146L
sg7
L-146L
sg8
L-146L
sg9
L-146L
sg10
L-146L
sg11
L-146L
sg12
L-146L
sg13
L-146L
sg14
L-146L
sg15
L-146L
sg16
L-146L
sg17
L-146L
sg18
L-146L
sg19
L-146L
sg20
L-146L
sg21
L-146L
sg22
L-146L
sg23
L-146L
sg24
L-146L
sg25
L-146L
sg79
L-146L
sg27
L-146L
sg28
L-146L
sg29
L-146L
sg30
L-146L
sg31
L-146L
ssL87L
(dp205
g2
L-146L
sg3
L-146L
sg4
L-146L
sg5
L-146L
sg6
L-146L
sg7
L-146L
sg8
L-146L
sg9
L-146L
sg10
L-146L
sg11
L-146L
sg12
L-146L
sg13
L-146L
sg14
L-146L
sg15
L-146L
sg16
L-146L
sg17
L-146L
sg18
L-146L
sg19
L-146L
sg20
L-146L
sg21
L-146L
sg22
L-146L
sg23
L-146L
sg24
L-146L
sg25
L-146L
sg79
L-146L
sg27
L-146L
sg28
L-146L
sg29
L-146L
sg30
L-146L
sg31
L-146L
ssL88L
(dp206
g2
L1L
sg3
L29L
sg4
L6L
sg5
L3L
sg6
L4L
sg7
L46L
sg8
L47L
sg9
L5L
sg10
L19L
sg11
L24L
sg12
L31L
sg13
L27L
sg14
L7L
sg15
L54L
sg16
L8L
sg17
L22L
sg18
L50L
sg19
L10L
sg20
L34L
sg21
L23L
sg22
L17L
sg23
L26L
sg24
L37L
sg25
L52L
sg87
L-149L
sg27
L41L
sg28
L12L
sg29
L11L
sg30
L15L
sg31
L53L
ssL89L
(dp207
g33
L-28L
sg5
L-28L
sg6
L-28L
sg37
L-28L
sg7
L-28L
sg8
L-28L
sg9
L-28L
sg39
L-28L
sg40
L-28L
sg10
L-28L
sg99
L-28L
sg42
L-28L
sg14
L-28L
sg16
L-28L
sg54
L-28L
sg36
L-28L
sg43
L-28L
sg44
L-28L
sg45
L-28L
sg22
L-28L
sg41
L-28L
sg24
L-28L
sg46
L-28L
sg47
L-28L
sg48
L-28L
sg49
L-28L
sg50
L-28L
sg28
L-28L
sg15
L-28L
sg38
L-28L
sg51
L-28L
sg53
L-28L
sg30
L-28L
sg13
L-28L
ssL90L
(dp208
g33
L-25L
sg5
L-25L
sg6
L-25L
sg37
L-25L
sg7
L-25L
sg8
L-25L
sg9
L-25L
sg39
L-25L
sg40
L-25L
sg10
L-25L
sg99
L-25L
sg42
L-25L
sg14
L-25L
sg16
L-25L
sg54
L-25L
sg36
L-25L
sg43
L-25L
sg44
L-25L
sg45
L-25L
sg22
L-25L
sg41
L-25L
sg24
L-25L
sg46
L-25L
sg47
L-25L
sg48
L-25L
sg49
L-25L
sg50
L-25L
sg28
L-25L
sg15
L-25L
sg38
L-25L
sg51
L-25L
sg53
L-25L
sg30
L-25L
sg13
L-25L
ssL91L
(dp209
g33
L-22L
sg5
L-22L
sg6
L-22L
sg37
L-22L
sg7
L-22L
sg8
L-22L
sg9
L-22L
sg39
L-22L
sg40
L-22L
sg10
L-22L
sg99
L-22L
sg42
L-22L
sg14
L-22L
sg16
L-22L
sg54
L-22L
sg36
L-22L
sg43
L-22L
sg44
L-22L
sg45
L-22L
sg22
L-22L
sg41
L-22L
sg24
L-22L
sg46
L-22L
sg47
L-22L
sg48
L-22L
sg49
L-22L
sg50
L-22L
sg28
L-22L
sg15
L-22L
sg38
L-22L
sg51
L-22L
sg53
L-22L
sg30
L-22L
sg13
L-22L
ssL92L
(dp210
g48
L157L
ssL93L
(dp211
g48
L158L
ssL94L
(dp212
VNUMBER
p213
L160L
sg21
L-172L
sVWORD
p214
L-172L
ssL95L
(dp215
g3
L-146L
sg4
L-146L
sg5
L-146L
sg6
L-146L
sg29
L-146L
sg7
L-146L
sg8
L-146L
sg9
L-146L
sg10
L-146L
sg11
L-146L
sg12
L-146L
sg13
L-146L
sg14
L-146L
sg16
L-146L
sg17
L-146L
sg19
L-146L
sg20
L-146L
sg21
L-146L
sg22
L-146L
sg23
L-146L
sg24
L-146L
sg25
L-146L
sg79
L-146L
sg27
L-146L
sg28
L-146L
sg15
L-146L
sg30
L-146L
sg31
L-146L
ssL96L
(dp216
g3
L-146L
sg4
L-146L
sg5
L-146L
sg6
L-146L
sg29
L-146L
sg7
L-146L
sg8
L-146L
sg9
L-146L
sg10
L-146L
sg11
L-146L
sg12
L-146L
sg13
L-146L
sg14
L-146L
sg16
L-146L
sg17
L-146L
sg19
L-146L
sg20
L-146L
sg21
L-146L
sg22
L-146L
sg23
L-146L
sg24
L-146L
sg25
L-146L
sg79
L-146L
sg27
L-146L
sg28
L-146L
sg15
L-146L
sg30
L-146L
sg31
L-146L
ssL97L
(dp217
g33
L-103L
sg36
L-103L
sg6
L4L
sg7
L46L
sg37
L-103L
sg38
L-103L
sg8
L47L
sg9
L5L
sg39
L-103L
sg40
L-103L
sg10
L19L
sg41
L-103L
sg13
L27L
sg42
L-103L
sg14
L7L
sg16
L8L
sg5
L3L
sg43
L-103L
sg44
L-103L
sg45
L-103L
sg22
L17L
sg46
L-103L
sg24
L37L
sg47
L-103L
sg48
L-103L
sg49
L-103L
sg50
L-103L
sg51
L-103L
sg52
L61L
sg53
L-103L
sg30
L15L
sg54
L-103L
sg28
L12L
ssL98L
(dp218
g3
L29L
sg4
L6L
sg5
L-51L
sg6
L-51L
sg38
L-51L
sg9
L-51L
sg39
L-51L
sg99
L-51L
sg12
L31L
sg14
L-51L
sg44
L-51L
sg19
L10L
sg20
L34L
sg45
L-51L
sg24
L-51L
sg27
L41L
sg28
L-51L
sg30
L-51L
sg54
L-51L
sg33
L-51L
sg86
L-51L
sg37
L-51L
sg7
L-51L
sg8
L-51L
sg40
L-51L
sg10
L-51L
sg13
L-51L
sg85
L-51L
sg103
L94L
sg16
L-51L
sg43
L-51L
sg17
L22L
sg21
L23L
sg22
L-51L
sg41
L-51L
sg25
L52L
sg46
L-51L
sg47
L-51L
sg48
L-51L
sg87
L-51L
sg50
L-51L
sg51
L-51L
sg15
L-51L
sg53
L-51L
sg31
L53L
ssL99L
(dp219
g33
L-107L
sg36
L-107L
sg6
L-175L
sg7
L-175L
sg37
L-107L
sg38
L-107L
sg8
L-175L
sg9
L-175L
sg39
L-107L
sg40
L-107L
sg10
L-175L
sg99
L-175L
sg13
L-175L
sg42
L-107L
sg14
L-175L
sg16
L-175L
sg5
L-175L
sg43
L-107L
sg44
L-107L
sg45
L-107L
sg22
L-175L
sg46
L-107L
sg24
L-175L
sg47
L-107L
sg48
L-107L
sg49
L-107L
sg50
L-107L
sg51
L-107L
sg41
L-107L
sg15
L-175L
sg53
L-107L
sg30
L-175L
sg54
L-107L
sg28
L-175L
ssL100L
(dp220
g33
L-31L
sg5
L-31L
sg6
L-31L
sg37
L-31L
sg7
L-31L
sg8
L-31L
sg9
L-31L
sg39
L-31L
sg40
L-31L
sg10
L-31L
sg99
L-31L
sg42
L-31L
sg14
L-31L
sg16
L-31L
sg54
L-31L
sg36
L-31L
sg43
L-31L
sg44
L-31L
sg45
L-31L
sg22
L-31L
sg41
L-31L
sg24
L-31L
sg46
L-31L
sg47
L-31L
sg48
L-31L
sg49
L-31L
sg50
L-31L
sg28
L-31L
sg15
L-31L
sg38
L-31L
sg51
L-31L
sg53
L-31L
sg30
L-31L
sg13
L-31L
ssL101L
(dp221
g33
L-46L
sg5
L-46L
sg6
L-46L
sg37
L-46L
sg7
L-46L
sg8
L-46L
sg9
L-46L
sg39
L-46L
sg40
L-46L
sg10
L-46L
sg99
L-46L
sg42
L-46L
sg14
L-46L
sg16
L-46L
sg54
L-46L
sg36
L-46L
sg43
L-46L
sg44
L-46L
sg45
L-46L
sg22
L-46L
sg41
L-46L
sg24
L-46L
sg46
L-46L
sg47
L-46L
sg48
L-46L
sg49
L-46L
sg50
L-46L
sg28
L-46L
sg15
L-46L
sg38
L-46L
sg51
L-46L
sg53
L-46L
sg30
L-46L
sg13
L-46L
ssL102L
(dp222
g33
L-37L
sg5
L-37L
sg6
L-37L
sg37
L-37L
sg7
L-37L
sg8
L-37L
sg9
L-37L
sg39
L-37L
sg40
L-37L
sg10
L-37L
sg99
L-37L
sg42
L-37L
sg14
L-37L
sg16
L-37L
sg54
L-37L
sg36
L-37L
sg43
L-37L
sg44
L-37L
sg45
L-37L
sg22
L-37L
sg41
L-37L
sg24
L-37L
sg46
L-37L
sg47
L-37L
sg48
L-37L
sg49
L-37L
sg50
L-37L
sg28
L-37L
sg15
L-37L
sg38
L-37L
sg51
L-37L
sg53
L-37L
sg30
L-37L
sg13
L-37L
ssL103L
(dp223
g45
L165L
ssL104L
(dp224
g198
L166L
ssL105L
(dp225
g51
L167L
ssL106L
(dp226
g33
L-8L
sg5
L-8L
sg6
L-8L
sg37
L-8L
sg7
L-8L
sg8
L-8L
sg9
L-8L
sg39
L-8L
sg40
L-8L
sg10
L-8L
sg99
L-8L
sg42
L-8L
sg14
L-8L
sg16
L-8L
sg54
L-8L
sg36
L-8L
sg43
L-8L
sg44
L-8L
sg45
L-8L
sg22
L-8L
sg41
L-8L
sg24
L-8L
sg46
L-8L
sg47
L-8L
sg48
L-8L
sg49
L-8L
sg50
L-8L
sg28
L-8L
sg15
L-8L
sg38
L-8L
sg51
L-8L
sg53
L-8L
sg30
L-8L
sg13
L-8L
ssL107L
(dp227
g5
L3L
sg22
L17L
sg24
L37L
sg7
L46L
sg8
L47L
sg9
L5L
sg10
L19L
sg99
L168L
sg28
L12L
sg14
L7L
sg16
L8L
sg15
L54L
sg30
L15L
sg13
L27L
sg6
L4L
ssL108L
(dp228
g54
L-58L
sg44
L-58L
sg33
L-58L
sg39
L-58L
sg36
L-58L
sg37
L-58L
sg38
L-58L
sg46
L-58L
sg47
L-58L
sg48
L-58L
sg40
L-58L
sg49
L-58L
sg50
L-58L
sg42
L-58L
sg41
L-58L
sg45
L-58L
sg43
L-58L
sg53
L-58L
sg51
L-58L
ssL109L
(dp229
VIN
p230
L-146L
sg33
L170L
sVDO
p231
L-146L
sVLBRACE
p232
L-146L
sg79
L-146L
ssL110L
(dp233
g44
L-158L
sg33
L-158L
sg36
L-158L
sg37
L-158L
sg38
L-158L
sg46
L-158L
sg39
L-158L
sg48
L-158L
sg42
L-158L
sg49
L-158L
sg50
L-158L
sg51
L-158L
sg41
L-158L
sg45
L-158L
sg43
L-158L
sg53
L-158L
sg54
L-158L
ssL111L
(dp234
g44
L-159L
sg33
L-159L
sg36
L-159L
sg37
L-159L
sg38
L-159L
sg46
L-159L
sg39
L-159L
sg48
L-159L
sg42
L-159L
sg49
L-159L
sg50
L-159L
sg51
L-159L
sg41
L-159L
sg45
L-159L
sg43
L-159L
sg53
L-159L
sg54
L-159L
ssL112L
(dp235
g33
L-50L
sg5
L-50L
sg6
L-50L
sg37
L-50L
sg7
L-50L
sg8
L-50L
sg9
L-50L
sg39
L-50L
sg40
L-50L
sg10
L-50L
sg99
L-50L
sg42
L-50L
sg14
L-50L
sg16
L-50L
sg54
L-50L
sg36
L-50L
sg43
L-50L
sg44
L-50L
sg45
L-50L
sg22
L-50L
sg41
L-50L
sg24
L-50L
sg46
L-50L
sg47
L-50L
sg48
L-50L
sg49
L-50L
sg50
L-50L
sg28
L-50L
sg15
L-50L
sg38
L-50L
sg51
L-50L
sg53
L-50L
sg30
L-50L
sg13
L-50L
ssL113L
(dp236
g33
L-7L
sg5
L-7L
sg6
L-7L
sg37
L-7L
sg7
L-7L
sg8
L-7L
sg9
L-7L
sg39
L-7L
sg40
L-7L
sg10
L-7L
sg99
L-7L
sg42
L-7L
sg14
L-7L
sg16
L-7L
sg54
L-7L
sg36
L-7L
sg43
L-7L
sg44
L-7L
sg45
L-7L
sg22
L-7L
sg41
L-7L
sg24
L-7L
sg46
L-7L
sg47
L-7L
sg48
L-7L
sg49
L-7L
sg50
L-7L
sg28
L-7L
sg15
L-7L
sg38
L-7L
sg51
L-7L
sg53
L-7L
sg30
L-7L
sg13
L-7L
ssL114L
(dp237
g2
L-143L
sg3
L-143L
sg4
L-143L
sg5
L-143L
sg6
L-143L
sg7
L-143L
sg8
L-143L
sg9
L-143L
sg10
L-143L
sg11
L-143L
sg12
L-143L
sg13
L-143L
sg14
L-143L
sg15
L-143L
sg16
L-143L
sg17
L-143L
sg18
L-143L
sg19
L-143L
sg20
L-143L
sg21
L-143L
sg22
L-143L
sg23
L-143L
sg24
L-143L
sg25
L-143L
sg26
L-143L
sg27
L-143L
sg28
L-143L
sg29
L-143L
sg30
L-143L
sg31
L-143L
sg119
L-143L
ssL115L
(dp238
g2
L-3L
sg3
L-3L
sg4
L-3L
sg5
L-3L
sg6
L-3L
sg7
L-3L
sg8
L-3L
sg9
L-3L
sg10
L-3L
sg11
L-3L
sg12
L-3L
sg13
L-3L
sg14
L-3L
sg15
L-3L
sg16
L-3L
sg17
L-3L
sg18
L-3L
sg19
L-3L
sg20
L-3L
sg21
L-3L
sg22
L-3L
sg23
L-3L
sg24
L-3L
sg25
L-3L
sg26
L-3L
sg27
L-3L
sg28
L-3L
sg29
L-3L
sg30
L-3L
sg31
L-3L
sg119
L-3L
ssL116L
(dp239
g2
L-165L
sg33
L-165L
sg4
L-165L
sg5
L-165L
sg6
L-165L
sg7
L-165L
sg8
L-165L
sg9
L-165L
sg3
L-165L
sg10
L-165L
sg11
L-165L
sg12
L-165L
sg13
L-165L
sg14
L-165L
sg15
L-165L
sg16
L-165L
sg17
L-165L
sg18
L-165L
sg19
L-165L
sg20
L-165L
sg21
L-165L
sg22
L-165L
sg23
L-165L
sg24
L-165L
sg25
L-165L
sg34
L-165L
sg27
L-165L
sg28
L-165L
sVTIMEIGN
p240
L172L
sg29
L-165L
sg30
L-165L
sg31
L-165L
ssL117L
(dp241
VCOND_END
p242
L173L
ssL118L
(dp243
g34
L55L
sVLBRACE
p244
L174L
sVDO
p245
L176L
sg33
L57L
ssL119L
(dp246
VIN
p247
L-146L
sg33
L177L
sVDO
p248
L-146L
sVLBRACE
p249
L-146L
sg79
L-146L
ssL120L
(dp250
VWORD
p251
L179L
ssL121L
(dp252
VWORD
p253
L180L
ssL122L
(dp254
VWORD
p255
L181L
ssL123L
(dp256
VWORD
p257
L182L
ssL124L
(dp258
VWORD
p259
L183L
ssL125L
(dp260
VWORD
p261
L184L
ssL126L
(dp262
VWORD
p263
L185L
ssL127L
(dp264
VNUMBER
p265
L186L
sg74
L187L
sVWORD
p266
L188L
ssL128L
(dp267
VWORD
p268
L189L
ssL129L
(dp269
VNUMBER
p270
L190L
sg74
L191L
sVWORD
p271
L192L
ssL130L
(dp272
g33
L-55L
sg5
L-55L
sg6
L-55L
sg37
L-55L
sg7
L-55L
sg8
L-55L
sg9
L-55L
sg39
L-55L
sg40
L-55L
sg10
L-55L
sg41
L-55L
sg85
L-55L
sg14
L-55L
sg16
L-55L
sg54
L-55L
sg86
L-55L
sg43
L-55L
sg44
L-55L
sg45
L-55L
sg22
L-55L
sg46
L-55L
sg24
L-55L
sg47
L-55L
sg48
L-55L
sg87
L-55L
sg50
L-55L
sg28
L-55L
sg52
L-55L
sg38
L-55L
sg51
L-55L
sg53
L-55L
sg30
L-55L
sg13
L-55L
ssL131L
(dp273
g33
L-18L
sg5
L-18L
sg6
L-18L
sg37
L-18L
sg7
L-18L
sg8
L-18L
sg9
L-18L
sg39
L-18L
sg40
L-18L
sg10
L-18L
sg99
L-18L
sg42
L-18L
sg14
L-18L
sg16
L-18L
sg54
L-18L
sg36
L-18L
sg43
L-18L
sg44
L-18L
sg45
L-18L
sg22
L-18L
sg41
L-18L
sg24
L-18L
sg46
L-18L
sg47
L-18L
sg48
L-18L
sg49
L-18L
sg50
L-18L
sg28
L-18L
sg15
L-18L
sg38
L-18L
sg51
L-18L
sg53
L-18L
sg30
L-18L
sg13
L-18L
ssL132L
(dp274
g33
L-27L
sg5
L-27L
sg6
L-27L
sg37
L-27L
sg7
L-27L
sg8
L-27L
sg9
L-27L
sg39
L-27L
sg40
L-27L
sg10
L-27L
sg99
L-27L
sg42
L-27L
sg14
L-27L
sg16
L-27L
sg54
L-27L
sg36
L-27L
sg43
L-27L
sg44
L-27L
sg45
L-27L
sg22
L-27L
sg41
L-27L
sg24
L-27L
sg46
L-27L
sg47
L-27L
sg48
L-27L
sg49
L-27L
sg50
L-27L
sg28
L-27L
sg15
L-27L
sg38
L-27L
sg51
L-27L
sg53
L-27L
sg30
L-27L
sg13
L-27L
ssL133L
(dp275
g33
L-12L
sg5
L-12L
sg6
L-12L
sg37
L-12L
sg7
L-12L
sg8
L-12L
sg9
L-12L
sg39
L-12L
sg40
L-12L
sg10
L-12L
sg99
L-12L
sg42
L-12L
sg14
L-12L
sg16
L-12L
sg54
L-12L
sg36
L-12L
sg43
L-12L
sg44
L-12L
sg45
L-12L
sg22
L-12L
sg41
L-12L
sg24
L-12L
sg46
L-12L
sg47
L-12L
sg48
L-12L
sg49
L-12L
sg50
L-12L
sg28
L-12L
sg15
L-12L
sg38
L-12L
sg51
L-12L
sg53
L-12L
sg30
L-12L
sg13
L-12L
ssL134L
(dp276
g33
L-11L
sg5
L-11L
sg6
L-11L
sg37
L-11L
sg7
L-11L
sg8
L-11L
sg9
L-11L
sg39
L-11L
sg40
L-11L
sg10
L-11L
sg99
L-11L
sg42
L-11L
sg14
L-11L
sg16
L-11L
sg54
L-11L
sg36
L-11L
sg43
L-11L
sg44
L-11L
sg45
L-11L
sg22
L-11L
sg41
L-11L
sg24
L-11L
sg46
L-11L
sg47
L-11L
sg48
L-11L
sg49
L-11L
sg50
L-11L
sg28
L-11L
sg15
L-11L
sg38
L-11L
sg51
L-11L
sg53
L-11L
sg30
L-11L
sg13
L-11L
ssL135L
(dp277
g33
L-24L
sg5
L-24L
sg6
L-24L
sg37
L-24L
sg7
L-24L
sg8
L-24L
sg9
L-24L
sg39
L-24L
sg40
L-24L
sg10
L-24L
sg99
L-24L
sg42
L-24L
sg14
L-24L
sg16
L-24L
sg54
L-24L
sg36
L-24L
sg43
L-24L
sg44
L-24L
sg45
L-24L
sg22
L-24L
sg41
L-24L
sg24
L-24L
sg46
L-24L
sg47
L-24L
sg48
L-24L
sg49
L-24L
sg50
L-24L
sg28
L-24L
sg15
L-24L
sg38
L-24L
sg51
L-24L
sg53
L-24L
sg30
L-24L
sg13
L-24L
ssL136L
(dp278
g33
L-15L
sg5
L-15L
sg6
L-15L
sg37
L-15L
sg7
L-15L
sg8
L-15L
sg9
L-15L
sg39
L-15L
sg40
L-15L
sg10
L-15L
sg99
L-15L
sg42
L-15L
sg14
L-15L
sg16
L-15L
sg54
L-15L
sg36
L-15L
sg43
L-15L
sg44
L-15L
sg45
L-15L
sg22
L-15L
sg41
L-15L
sg24
L-15L
sg46
L-15L
sg47
L-15L
sg48
L-15L
sg49
L-15L
sg50
L-15L
sg28
L-15L
sg15
L-15L
sg38
L-15L
sg51
L-15L
sg53
L-15L
sg30
L-15L
sg13
L-15L
ssL137L
(dp279
g33
L-21L
sg5
L-21L
sg6
L-21L
sg37
L-21L
sg7
L-21L
sg8
L-21L
sg9
L-21L
sg39
L-21L
sg40
L-21L
sg10
L-21L
sg99
L-21L
sg42
L-21L
sg14
L-21L
sg16
L-21L
sg54
L-21L
sg36
L-21L
sg43
L-21L
sg44
L-21L
sg45
L-21L
sg22
L-21L
sg41
L-21L
sg24
L-21L
sg46
L-21L
sg47
L-21L
sg48
L-21L
sg49
L-21L
sg50
L-21L
sg28
L-21L
sg15
L-21L
sg38
L-21L
sg51
L-21L
sg53
L-21L
sg30
L-21L
sg13
L-21L
ssL138L
(dp280
g33
L-45L
sg5
L-45L
sg6
L-45L
sg37
L-45L
sg7
L-45L
sg8
L-45L
sg9
L-45L
sg39
L-45L
sg40
L-45L
sg10
L-45L
sg99
L-45L
sg42
L-45L
sg14
L-45L
sg16
L-45L
sg54
L-45L
sg36
L-45L
sg43
L-45L
sg44
L-45L
sg45
L-45L
sg22
L-45L
sg41
L-45L
sg24
L-45L
sg46
L-45L
sg47
L-45L
sg48
L-45L
sg49
L-45L
sg50
L-45L
sg28
L-45L
sg15
L-45L
sg38
L-45L
sg51
L-45L
sg53
L-45L
sg30
L-45L
sg13
L-45L
ssL139L
(dp281
g33
L-42L
sg5
L-42L
sg6
L-42L
sg37
L-42L
sg7
L-42L
sg8
L-42L
sg9
L-42L
sg39
L-42L
sg40
L-42L
sg10
L-42L
sg99
L-42L
sg42
L-42L
sg14
L-42L
sg16
L-42L
sg54
L-42L
sg36
L-42L
sg43
L-42L
sg44
L-42L
sg45
L-42L
sg22
L-42L
sg41
L-42L
sg24
L-42L
sg46
L-42L
sg47
L-42L
sg48
L-42L
sg49
L-42L
sg50
L-42L
sg28
L-42L
sg15
L-42L
sg38
L-42L
sg51
L-42L
sg53
L-42L
sg30
L-42L
sg13
L-42L
ssL140L
(dp282
g33
L-36L
sg5
L-36L
sg6
L-36L
sg37
L-36L
sg7
L-36L
sg8
L-36L
sg9
L-36L
sg39
L-36L
sg40
L-36L
sg10
L-36L
sg99
L-36L
sg42
L-36L
sg14
L-36L
sg16
L-36L
sg54
L-36L
sg36
L-36L
sg43
L-36L
sg44
L-36L
sg45
L-36L
sg22
L-36L
sg41
L-36L
sg24
L-36L
sg46
L-36L
sg47
L-36L
sg48
L-36L
sg49
L-36L
sg50
L-36L
sg28
L-36L
sg15
L-36L
sg38
L-36L
sg51
L-36L
sg53
L-36L
sg30
L-36L
sg13
L-36L
ssL141L
(dp283
g33
L-30L
sg5
L-30L
sg6
L-30L
sg37
L-30L
sg7
L-30L
sg8
L-30L
sg9
L-30L
sg39
L-30L
sg40
L-30L
sg10
L-30L
sg99
L-30L
sg42
L-30L
sg14
L-30L
sg16
L-30L
sg54
L-30L
sg36
L-30L
sg43
L-30L
sg44
L-30L
sg45
L-30L
sg22
L-30L
sg41
L-30L
sg24
L-30L
sg46
L-30L
sg47
L-30L
sg48
L-30L
sg49
L-30L
sg50
L-30L
sg28
L-30L
sg15
L-30L
sg38
L-30L
sg51
L-30L
sg53
L-30L
sg30
L-30L
sg13
L-30L
ssL142L
(dp284
g33
L-33L
sg5
L-33L
sg6
L-33L
sg37
L-33L
sg7
L-33L
sg8
L-33L
sg9
L-33L
sg39
L-33L
sg40
L-33L
sg10
L-33L
sg99
L-33L
sg42
L-33L
sg14
L-33L
sg16
L-33L
sg54
L-33L
sg36
L-33L
sg43
L-33L
sg44
L-33L
sg45
L-33L
sg22
L-33L
sg41
L-33L
sg24
L-33L
sg46
L-33L
sg47
L-33L
sg48
L-33L
sg49
L-33L
sg50
L-33L
sg28
L-33L
sg15
L-33L
sg38
L-33L
sg51
L-33L
sg53
L-33L
sg30
L-33L
sg13
L-33L
ssL143L
(dp285
g33
L-48L
sg5
L-48L
sg6
L-48L
sg37
L-48L
sg7
L-48L
sg8
L-48L
sg9
L-48L
sg39
L-48L
sg40
L-48L
sg10
L-48L
sg99
L-48L
sg42
L-48L
sg14
L-48L
sg16
L-48L
sg54
L-48L
sg36
L-48L
sg43
L-48L
sg44
L-48L
sg45
L-48L
sg22
L-48L
sg41
L-48L
sg24
L-48L
sg46
L-48L
sg47
L-48L
sg48
L-48L
sg49
L-48L
sg50
L-48L
sg28
L-48L
sg15
L-48L
sg38
L-48L
sg51
L-48L
sg53
L-48L
sg30
L-48L
sg13
L-48L
ssL144L
(dp286
g33
L-39L
sg5
L-39L
sg6
L-39L
sg37
L-39L
sg7
L-39L
sg8
L-39L
sg9
L-39L
sg39
L-39L
sg40
L-39L
sg10
L-39L
sg99
L-39L
sg42
L-39L
sg14
L-39L
sg16
L-39L
sg54
L-39L
sg36
L-39L
sg43
L-39L
sg44
L-39L
sg45
L-39L
sg22
L-39L
sg41
L-39L
sg24
L-39L
sg46
L-39L
sg47
L-39L
sg48
L-39L
sg49
L-39L
sg50
L-39L
sg28
L-39L
sg15
L-39L
sg38
L-39L
sg51
L-39L
sg53
L-39L
sg30
L-39L
sg13
L-39L
ssL145L
(dp287
g79
L147L
sg187
L193L
ssL146L
(dp288
g44
L-142L
sg33
L-142L
sg36
L-142L
sg37
L-142L
sg38
L-142L
sg46
L-142L
sg39
L-142L
sg48
L-142L
sg42
L-142L
sg49
L-142L
sg50
L-142L
sg54
L-142L
sg41
L-142L
sg45
L-142L
sg43
L-142L
sg53
L-142L
sg51
L-142L
ssL147L
(dp289
g2
L-147L
sg44
L-147L
sg3
L-147L
sg4
L-147L
sg5
L-147L
sg6
L-147L
sg7
L-147L
sg8
L-147L
sg9
L-147L
sg45
L-147L
sg50
L-147L
sg10
L-147L
sg11
L-147L
sg12
L-147L
sg13
L-147L
sg14
L-147L
sg15
L-147L
sg54
L-147L
sg16
L-147L
sg43
L-147L
sg17
L-147L
sg18
L-147L
sg19
L-147L
sg20
L-147L
sg21
L-147L
sg22
L-147L
sg23
L-147L
sg24
L-147L
sg25
L-147L
sg46
L-147L
sg48
L-147L
sg39
L-147L
sg79
L-147L
sg27
L-147L
sg28
L-147L
sg187
L-147L
sg41
L-147L
sg29
L-147L
sVESAC
p290
L-147L
sg51
L-147L
sVDO
p291
L-147L
sg30
L-147L
sg31
L-147L
ssL148L
(dp292
g44
L-133L
sg194
L-133L
sg195
L-133L
sg33
L197L
sg46
L-133L
sg38
L-133L
sg37
L196L
sg48
L-133L
sg42
L198L
sg49
L194L
sg196
L-133L
sg197
L-133L
sg51
L-133L
sg36
L195L
sg43
L-133L
sg198
L-133L
sg54
L-133L
ssL149L
(dp293
g44
L-131L
sg194
L-131L
sg195
L-131L
sg46
L-131L
sg38
L-131L
sg48
L-131L
sg196
L-131L
sVDONE
p294
L-131L
sg51
L-131L
sg43
L-131L
sg53
L-131L
sg54
L-131L
ssL150L
(dp295
g2
L-146L
sg3
L-146L
sg4
L-146L
sg5
L-146L
sg6
L-146L
sg7
L-146L
sg8
L-146L
sg9
L-146L
sg10
L-146L
sg11
L-146L
sg12
L-146L
sg13
L-146L
sg14
L-146L
sg15
L-146L
sg16
L-146L
sg17
L-146L
sg18
L-146L
sg19
L-146L
sg20
L-146L
sg21
L-146L
sg22
L-146L
sg23
L-146L
sg24
L-146L
sg25
L-146L
sg79
L-146L
sg27
L-146L
sg28
L-146L
sg29
L-146L
sg30
L-146L
sg31
L-146L
ssL151L
(dp296
g48
L200L
ssL152L
(dp297
g79
L147L
sg12
L31L
sg4
L6L
sg27
L41L
sg19
L10L
sg21
L23L
sg25
L52L
sg17
L22L
sg3
L29L
sg31
L53L
sg20
L34L
ssL153L
(dp298
g87
L-154L
sg33
L-154L
sg86
L86L
sg85
L87L
sg37
L-154L
ssL154L
(dp299
g2
L1L
sg3
L29L
sg4
L6L
sg5
L3L
sg6
L4L
sg7
L46L
sg8
L47L
sg9
L5L
sg10
L19L
sg11
L24L
sg12
L31L
sg13
L27L
sg14
L7L
sg15
L54L
sg16
L8L
sg17
L22L
sg18
L50L
sg19
L10L
sg20
L34L
sg21
L23L
sg22
L17L
sg23
L26L
sg24
L37L
sg25
L52L
sg79
L147L
sg27
L41L
sg28
L12L
sg29
L11L
sg30
L15L
sg31
L53L
ssL155L
(dp300
g2
L1L
sg3
L29L
sg4
L6L
sg5
L3L
sg6
L4L
sg7
L46L
sg8
L47L
sg9
L5L
sg10
L19L
sg11
L24L
sg12
L31L
sg13
L27L
sg14
L7L
sg15
L54L
sg16
L8L
sg17
L22L
sg18
L50L
sg19
L10L
sg20
L34L
sg21
L23L
sg22
L17L
sg23
L26L
sg24
L37L
sg25
L52L
sg79
L147L
sg27
L41L
sg28
L12L
sg29
L11L
sg30
L15L
sg31
L53L
ssL156L
(dp301
g87
L-153L
sg33
L-153L
sg86
L86L
sg85
L87L
sg37
L-153L
ssL157L
(dp302
g33
L-102L
sg5
L-102L
sg6
L-102L
sg37
L-102L
sg7
L-102L
sg8
L-102L
sg9
L-102L
sg39
L-102L
sg40
L-102L
sg10
L-102L
sg41
L-102L
sg85
L-102L
sg14
L-102L
sg16
L-102L
sg54
L-102L
sg86
L-102L
sg43
L-102L
sg44
L-102L
sg45
L-102L
sg22
L-102L
sg46
L-102L
sg24
L-102L
sg47
L-102L
sg48
L-102L
sg87
L-102L
sg50
L-102L
sg28
L-102L
sg52
L-102L
sg38
L-102L
sg51
L-102L
sg53
L-102L
sg30
L-102L
sg13
L-102L
ssL158L
(dp303
g79
L-146L
sg12
L-146L
sg4
L-146L
sg27
L-146L
sg19
L-146L
sg21
L-146L
sg25
L-146L
sg17
L-146L
sg3
L-146L
sg31
L-146L
sg20
L-146L
ssL159L
(dp304
g214
L208L
sg21
L209L
ssL160L
(dp305
g33
L-170L
sg5
L-170L
sg6
L-170L
sg37
L-170L
sg7
L-170L
sg8
L-170L
sg9
L-170L
sg39
L-170L
sg40
L-170L
sg10
L-170L
sg99
L-170L
sg85
L-170L
sg14
L-170L
sg16
L-170L
sg54
L-170L
sg86
L-170L
sg43
L-170L
sg44
L-170L
sg45
L-170L
sg22
L-170L
sg41
L-170L
sg24
L-170L
sg46
L-170L
sg47
L-170L
sg48
L-170L
sg87
L-170L
sg50
L-170L
sg28
L-170L
sg15
L-170L
sg38
L-170L
sg51
L-170L
sg53
L-170L
sg30
L-170L
sg13
L-170L
ssL161L
(dp306
g3
L29L
sg4
L6L
sg5
L3L
sg6
L4L
sg29
L11L
sg7
L46L
sg8
L47L
sg9
L5L
sg10
L19L
sg11
L24L
sg12
L31L
sg13
L27L
sg14
L7L
sg16
L8L
sg17
L22L
sg19
L10L
sg20
L34L
sg21
L23L
sg22
L17L
sg23
L26L
sg24
L37L
sg25
L52L
sg79
L147L
sg27
L41L
sg28
L12L
sg15
L54L
sg30
L15L
sg31
L53L
ssL162L
(dp307
g3
L29L
sg4
L6L
sg5
L3L
sg6
L4L
sg29
L11L
sg7
L46L
sg8
L47L
sg9
L5L
sg10
L19L
sg11
L24L
sg12
L31L
sg13
L27L
sg14
L7L
sg16
L8L
sg17
L22L
sg19
L10L
sg20
L34L
sg21
L23L
sg22
L17L
sg23
L26L
sg24
L37L
sg25
L52L
sg79
L147L
sg27
L41L
sg28
L12L
sg15
L54L
sg30
L15L
sg31
L53L
ssL163L
(dp308
g33
L-104L
sg36
L-104L
sg6
L4L
sg7
L46L
sg37
L-104L
sg38
L-104L
sg8
L47L
sg9
L5L
sg39
L-104L
sg40
L-104L
sg10
L19L
sg41
L-104L
sg13
L27L
sg42
L-104L
sg14
L7L
sg16
L8L
sg5
L3L
sg43
L-104L
sg44
L-104L
sg45
L-104L
sg22
L17L
sg46
L-104L
sg24
L37L
sg47
L-104L
sg48
L-104L
sg49
L-104L
sg50
L-104L
sg51
L-104L
sg52
L61L
sg53
L-104L
sg30
L15L
sg54
L-104L
sg28
L12L
ssL164L
(dp309
g33
L-105L
sg36
L-105L
sg6
L4L
sg7
L46L
sg37
L-105L
sg38
L-105L
sg8
L47L
sg9
L5L
sg39
L-105L
sg40
L-105L
sg10
L19L
sg41
L-105L
sg13
L27L
sg42
L-105L
sg14
L7L
sg16
L8L
sg5
L3L
sg43
L-105L
sg44
L-105L
sg45
L-105L
sg22
L17L
sg46
L-105L
sg24
L37L
sg47
L-105L
sg48
L-105L
sg49
L-105L
sg50
L-105L
sg51
L-105L
sg52
L61L
sg53
L-105L
sg30
L15L
sg54
L-105L
sg28
L12L
ssL165L
(dp310
g2
L-146L
sg3
L-146L
sg4
L-146L
sg5
L-146L
sg6
L-146L
sg7
L-146L
sg8
L-146L
sg9
L-146L
sg10
L-146L
sg11
L-146L
sg12
L-146L
sg13
L-146L
sg14
L-146L
sg15
L-146L
sg16
L-146L
sg17
L-146L
sg18
L-146L
sg19
L-146L
sg20
L-146L
sg21
L-146L
sg22
L-146L
sg23
L-146L
sg24
L-146L
sg25
L-146L
sg79
L-146L
sg27
L-146L
sg28
L-146L
sg29
L-146L
sg30
L-146L
sg31
L-146L
ssL166L
(dp311
g2
L-146L
sg3
L-146L
sg4
L-146L
sg5
L-146L
sg6
L-146L
sg7
L-146L
sg8
L-146L
sg9
L-146L
sg10
L-146L
sg11
L-146L
sg12
L-146L
sg13
L-146L
sg14
L-146L
sg15
L-146L
sg16
L-146L
sg17
L-146L
sg18
L-146L
sg19
L-146L
sg20
L-146L
sg21
L-146L
sg22
L-146L
sg23
L-146L
sg24
L-146L
sg25
L-146L
sg79
L-146L
sg27
L-146L
sg28
L-146L
sg29
L-146L
sg30
L-146L
sg31
L-146L
ssL167L
(dp312
g33
L-111L
sg5
L-111L
sg6
L-111L
sg37
L-111L
sg7
L-111L
sg8
L-111L
sg9
L-111L
sg39
L-111L
sg40
L-111L
sg10
L-111L
sg41
L-111L
sg42
L-111L
sg14
L-111L
sg16
L-111L
sg54
L-111L
sg36
L-111L
sg43
L-111L
sg44
L-111L
sg45
L-111L
sg22
L-111L
sg46
L-111L
sg24
L-111L
sg47
L-111L
sg48
L-111L
sg49
L-111L
sg50
L-111L
sg28
L-111L
sg52
L-111L
sg38
L-111L
sg51
L-111L
sg53
L-111L
sg30
L-111L
sg13
L-111L
ssL168L
(dp313
g33
L-51L
sg5
L-51L
sg6
L-51L
sg37
L-51L
sg7
L-51L
sg8
L-51L
sg9
L-51L
sg39
L-51L
sg40
L-51L
sg10
L-51L
sg99
L-51L
sg85
L-51L
sg14
L-51L
sg16
L-51L
sg54
L-51L
sg86
L-51L
sg43
L-51L
sg44
L-51L
sg45
L-51L
sg22
L-51L
sg41
L-51L
sg24
L-51L
sg46
L-51L
sg47
L-51L
sg48
L-51L
sg87
L-51L
sg50
L-51L
sg28
L-51L
sg15
L-51L
sg38
L-51L
sg51
L-51L
sg53
L-51L
sg30
L-51L
sg13
L-51L
sg103
L94L
ssL169L
(dp314
g33
L-57L
sg5
L-57L
sg6
L-57L
sg37
L-57L
sg7
L-57L
sg8
L-57L
sg9
L-57L
sg39
L-57L
sg40
L-57L
sg10
L-57L
sg99
L-57L
sg42
L-57L
sg14
L-57L
sg16
L-57L
sg54
L-57L
sg36
L-57L
sg43
L-57L
sg44
L-57L
sg45
L-57L
sg22
L-57L
sg41
L-57L
sg24
L-57L
sg46
L-57L
sg47
L-57L
sg48
L-57L
sg49
L-57L
sg50
L-57L
sg28
L-57L
sg15
L-57L
sg38
L-57L
sg51
L-57L
sg53
L-57L
sg30
L-57L
sg13
L-57L
ssL170L
(dp315
g79
L-146L
sVLBRACE
p316
L-146L
sVDO
p317
L-146L
ssL171L
(dp318
g230
L217L
sg232
L216L
sg231
L218L
sg79
L147L
ssL172L
(dp319
g2
L-166L
sg33
L-166L
sg4
L-166L
sg5
L-166L
sg6
L-166L
sg7
L-166L
sg8
L-166L
sg9
L-166L
sg3
L-166L
sg10
L-166L
sg11
L-166L
sg12
L-166L
sg13
L-166L
sg14
L-166L
sg15
L-166L
sg16
L-166L
sg17
L-166L
sg18
L-166L
sg19
L-166L
sg20
L-166L
sg21
L-166L
sg22
L-166L
sg23
L-166L
sg24
L-166L
sg25
L-166L
sg34
L-166L
sg27
L-166L
sg28
L-166L
sg29
L-166L
sg30
L-166L
sg31
L-166L
ssL173L
(dp320
g33
L-113L
sg5
L-113L
sg6
L-113L
sg37
L-113L
sg7
L-113L
sg8
L-113L
sg9
L-113L
sg39
L-113L
sg40
L-113L
sg10
L-113L
sg41
L-113L
sg42
L-113L
sg14
L-113L
sg16
L-113L
sg54
L-113L
sg36
L-113L
sg43
L-113L
sg44
L-113L
sg45
L-113L
sg22
L-113L
sg46
L-113L
sg24
L-113L
sg47
L-113L
sg48
L-113L
sg49
L-113L
sg50
L-113L
sg28
L-113L
sg52
L-113L
sg38
L-113L
sg51
L-113L
sg53
L-113L
sg30
L-113L
sg13
L-113L
ssL174L
(dp321
g2
L-146L
sg3
L-146L
sg4
L-146L
sg5
L-146L
sg6
L-146L
sg7
L-146L
sg8
L-146L
sg9
L-146L
sg10
L-146L
sg11
L-146L
sg12
L-146L
sg13
L-146L
sg14
L-146L
sg15
L-146L
sg16
L-146L
sg17
L-146L
sg18
L-146L
sg19
L-146L
sg20
L-146L
sg21
L-146L
sg22
L-146L
sg23
L-146L
sg24
L-146L
sg25
L-146L
sg79
L-146L
sg27
L-146L
sg28
L-146L
sg29
L-146L
sg30
L-146L
sg31
L-146L
ssL175L
(dp322
g79
L-146L
sVLBRACE
p323
L-146L
sVDO
p324
L-146L
ssL176L
(dp325
g2
L-146L
sg3
L-146L
sg4
L-146L
sg5
L-146L
sg6
L-146L
sg7
L-146L
sg8
L-146L
sg9
L-146L
sg10
L-146L
sg11
L-146L
sg12
L-146L
sg13
L-146L
sg14
L-146L
sg15
L-146L
sg16
L-146L
sg17
L-146L
sg18
L-146L
sg19
L-146L
sg20
L-146L
sg21
L-146L
sg22
L-146L
sg23
L-146L
sg24
L-146L
sg25
L-146L
sg79
L-146L
sg27
L-146L
sg28
L-146L
sg29
L-146L
sg30
L-146L
sg31
L-146L
ssL177L
(dp326
g79
L-146L
sVLBRACE
p327
L-146L
sVDO
p328
L-146L
ssL178L
(dp329
g247
L224L
sg249
L223L
sg248
L225L
sg79
L147L
ssL179L
(dp330
g33
L-17L
sg5
L-17L
sg6
L-17L
sg37
L-17L
sg7
L-17L
sg8
L-17L
sg9
L-17L
sg39
L-17L
sg40
L-17L
sg10
L-17L
sg99
L-17L
sg42
L-17L
sg14
L-17L
sg16
L-17L
sg54
L-17L
sg36
L-17L
sg43
L-17L
sg44
L-17L
sg45
L-17L
sg22
L-17L
sg41
L-17L
sg24
L-17L
sg46
L-17L
sg47
L-17L
sg48
L-17L
sg49
L-17L
sg50
L-17L
sg28
L-17L
sg15
L-17L
sg38
L-17L
sg51
L-17L
sg53
L-17L
sg30
L-17L
sg13
L-17L
ssL180L
(dp331
g33
L-26L
sg5
L-26L
sg6
L-26L
sg37
L-26L
sg7
L-26L
sg8
L-26L
sg9
L-26L
sg39
L-26L
sg40
L-26L
sg10
L-26L
sg99
L-26L
sg42
L-26L
sg14
L-26L
sg16
L-26L
sg54
L-26L
sg36
L-26L
sg43
L-26L
sg44
L-26L
sg45
L-26L
sg22
L-26L
sg41
L-26L
sg24
L-26L
sg46
L-26L
sg47
L-26L
sg48
L-26L
sg49
L-26L
sg50
L-26L
sg28
L-26L
sg15
L-26L
sg38
L-26L
sg51
L-26L
sg53
L-26L
sg30
L-26L
sg13
L-26L
ssL181L
(dp332
g33
L-10L
sg5
L-10L
sg6
L-10L
sg37
L-10L
sg7
L-10L
sg8
L-10L
sg9
L-10L
sg39
L-10L
sg40
L-10L
sg10
L-10L
sg99
L-10L
sg42
L-10L
sg14
L-10L
sg16
L-10L
sg54
L-10L
sg36
L-10L
sg43
L-10L
sg44
L-10L
sg45
L-10L
sg22
L-10L
sg41
L-10L
sg24
L-10L
sg46
L-10L
sg47
L-10L
sg48
L-10L
sg49
L-10L
sg50
L-10L
sg28
L-10L
sg15
L-10L
sg38
L-10L
sg51
L-10L
sg53
L-10L
sg30
L-10L
sg13
L-10L
ssL182L
(dp333
g33
L-9L
sg5
L-9L
sg6
L-9L
sg37
L-9L
sg7
L-9L
sg8
L-9L
sg9
L-9L
sg39
L-9L
sg40
L-9L
sg10
L-9L
sg99
L-9L
sg42
L-9L
sg14
L-9L
sg16
L-9L
sg54
L-9L
sg36
L-9L
sg43
L-9L
sg44
L-9L
sg45
L-9L
sg22
L-9L
sg41
L-9L
sg24
L-9L
sg46
L-9L
sg47
L-9L
sg48
L-9L
sg49
L-9L
sg50
L-9L
sg28
L-9L
sg15
L-9L
sg38
L-9L
sg51
L-9L
sg53
L-9L
sg30
L-9L
sg13
L-9L
ssL183L
(dp334
g33
L-23L
sg5
L-23L
sg6
L-23L
sg37
L-23L
sg7
L-23L
sg8
L-23L
sg9
L-23L
sg39
L-23L
sg40
L-23L
sg10
L-23L
sg99
L-23L
sg42
L-23L
sg14
L-23L
sg16
L-23L
sg54
L-23L
sg36
L-23L
sg43
L-23L
sg44
L-23L
sg45
L-23L
sg22
L-23L
sg41
L-23L
sg24
L-23L
sg46
L-23L
sg47
L-23L
sg48
L-23L
sg49
L-23L
sg50
L-23L
sg28
L-23L
sg15
L-23L
sg38
L-23L
sg51
L-23L
sg53
L-23L
sg30
L-23L
sg13
L-23L
ssL184L
(dp335
g33
L-14L
sg5
L-14L
sg6
L-14L
sg37
L-14L
sg7
L-14L
sg8
L-14L
sg9
L-14L
sg39
L-14L
sg40
L-14L
sg10
L-14L
sg99
L-14L
sg42
L-14L
sg14
L-14L
sg16
L-14L
sg54
L-14L
sg36
L-14L
sg43
L-14L
sg44
L-14L
sg45
L-14L
sg22
L-14L
sg41
L-14L
sg24
L-14L
sg46
L-14L
sg47
L-14L
sg48
L-14L
sg49
L-14L
sg50
L-14L
sg28
L-14L
sg15
L-14L
sg38
L-14L
sg51
L-14L
sg53
L-14L
sg30
L-14L
sg13
L-14L
ssL185L
(dp336
g33
L-20L
sg5
L-20L
sg6
L-20L
sg37
L-20L
sg7
L-20L
sg8
L-20L
sg9
L-20L
sg39
L-20L
sg40
L-20L
sg10
L-20L
sg99
L-20L
sg42
L-20L
sg14
L-20L
sg16
L-20L
sg54
L-20L
sg36
L-20L
sg43
L-20L
sg44
L-20L
sg45
L-20L
sg22
L-20L
sg41
L-20L
sg24
L-20L
sg46
L-20L
sg47
L-20L
sg48
L-20L
sg49
L-20L
sg50
L-20L
sg28
L-20L
sg15
L-20L
sg38
L-20L
sg51
L-20L
sg53
L-20L
sg30
L-20L
sg13
L-20L
ssL186L
(dp337
g33
L-35L
sg5
L-35L
sg6
L-35L
sg37
L-35L
sg7
L-35L
sg8
L-35L
sg9
L-35L
sg39
L-35L
sg40
L-35L
sg10
L-35L
sg99
L-35L
sg42
L-35L
sg14
L-35L
sg16
L-35L
sg54
L-35L
sg36
L-35L
sg43
L-35L
sg44
L-35L
sg45
L-35L
sg22
L-35L
sg41
L-35L
sg24
L-35L
sg46
L-35L
sg47
L-35L
sg48
L-35L
sg49
L-35L
sg50
L-35L
sg28
L-35L
sg15
L-35L
sg38
L-35L
sg51
L-35L
sg53
L-35L
sg30
L-35L
sg13
L-35L
ssL187L
(dp338
g33
L-44L
sg5
L-44L
sg6
L-44L
sg37
L-44L
sg7
L-44L
sg8
L-44L
sg9
L-44L
sg39
L-44L
sg40
L-44L
sg10
L-44L
sg99
L-44L
sg42
L-44L
sg14
L-44L
sg16
L-44L
sg54
L-44L
sg36
L-44L
sg43
L-44L
sg44
L-44L
sg45
L-44L
sg22
L-44L
sg41
L-44L
sg24
L-44L
sg46
L-44L
sg47
L-44L
sg48
L-44L
sg49
L-44L
sg50
L-44L
sg28
L-44L
sg15
L-44L
sg38
L-44L
sg51
L-44L
sg53
L-44L
sg30
L-44L
sg13
L-44L
ssL188L
(dp339
g33
L-41L
sg5
L-41L
sg6
L-41L
sg37
L-41L
sg7
L-41L
sg8
L-41L
sg9
L-41L
sg39
L-41L
sg40
L-41L
sg10
L-41L
sg99
L-41L
sg42
L-41L
sg14
L-41L
sg16
L-41L
sg54
L-41L
sg36
L-41L
sg43
L-41L
sg44
L-41L
sg45
L-41L
sg22
L-41L
sg41
L-41L
sg24
L-41L
sg46
L-41L
sg47
L-41L
sg48
L-41L
sg49
L-41L
sg50
L-41L
sg28
L-41L
sg15
L-41L
sg38
L-41L
sg51
L-41L
sg53
L-41L
sg30
L-41L
sg13
L-41L
ssL189L
(dp340
g33
L-29L
sg5
L-29L
sg6
L-29L
sg37
L-29L
sg7
L-29L
sg8
L-29L
sg9
L-29L
sg39
L-29L
sg40
L-29L
sg10
L-29L
sg99
L-29L
sg42
L-29L
sg14
L-29L
sg16
L-29L
sg54
L-29L
sg36
L-29L
sg43
L-29L
sg44
L-29L
sg45
L-29L
sg22
L-29L
sg41
L-29L
sg24
L-29L
sg46
L-29L
sg47
L-29L
sg48
L-29L
sg49
L-29L
sg50
L-29L
sg28
L-29L
sg15
L-29L
sg38
L-29L
sg51
L-29L
sg53
L-29L
sg30
L-29L
sg13
L-29L
ssL190L
(dp341
g33
L-32L
sg5
L-32L
sg6
L-32L
sg37
L-32L
sg7
L-32L
sg8
L-32L
sg9
L-32L
sg39
L-32L
sg40
L-32L
sg10
L-32L
sg99
L-32L
sg42
L-32L
sg14
L-32L
sg16
L-32L
sg54
L-32L
sg36
L-32L
sg43
L-32L
sg44
L-32L
sg45
L-32L
sg22
L-32L
sg41
L-32L
sg24
L-32L
sg46
L-32L
sg47
L-32L
sg48
L-32L
sg49
L-32L
sg50
L-32L
sg28
L-32L
sg15
L-32L
sg38
L-32L
sg51
L-32L
sg53
L-32L
sg30
L-32L
sg13
L-32L
ssL191L
(dp342
g33
L-47L
sg5
L-47L
sg6
L-47L
sg37
L-47L
sg7
L-47L
sg8
L-47L
sg9
L-47L
sg39
L-47L
sg40
L-47L
sg10
L-47L
sg99
L-47L
sg42
L-47L
sg14
L-47L
sg16
L-47L
sg54
L-47L
sg36
L-47L
sg43
L-47L
sg44
L-47L
sg45
L-47L
sg22
L-47L
sg41
L-47L
sg24
L-47L
sg46
L-47L
sg47
L-47L
sg48
L-47L
sg49
L-47L
sg50
L-47L
sg28
L-47L
sg15
L-47L
sg38
L-47L
sg51
L-47L
sg53
L-47L
sg30
L-47L
sg13
L-47L
ssL192L
(dp343
g33
L-38L
sg5
L-38L
sg6
L-38L
sg37
L-38L
sg7
L-38L
sg8
L-38L
sg9
L-38L
sg39
L-38L
sg40
L-38L
sg10
L-38L
sg99
L-38L
sg42
L-38L
sg14
L-38L
sg16
L-38L
sg54
L-38L
sg36
L-38L
sg43
L-38L
sg44
L-38L
sg45
L-38L
sg22
L-38L
sg41
L-38L
sg24
L-38L
sg46
L-38L
sg47
L-38L
sg48
L-38L
sg49
L-38L
sg50
L-38L
sg28
L-38L
sg15
L-38L
sg38
L-38L
sg51
L-38L
sg53
L-38L
sg30
L-38L
sg13
L-38L
ssL193L
(dp344
g79
L-146L
sVESAC
p345
L-146L
sg21
L-146L
sVWORD
p346
L-146L
ssL194L
(dp347
g2
L-146L
sg44
L-146L
sg3
L-146L
sg4
L-146L
sg5
L-146L
sg6
L-146L
sg7
L-146L
sg8
L-146L
sg9
L-146L
sg45
L-146L
sg50
L-146L
sg10
L-146L
sg11
L-146L
sg12
L-146L
sg13
L-146L
sg14
L-146L
sg15
L-146L
sg54
L-146L
sg16
L-146L
sg43
L-146L
sg17
L-146L
sg18
L-146L
sg19
L-146L
sg20
L-146L
sg21
L-146L
sg22
L-146L
sg23
L-146L
sg24
L-146L
sg25
L-146L
sg46
L-146L
sg48
L-146L
sg39
L-146L
sg79
L-146L
sg27
L-146L
sg28
L-146L
sg41
L-146L
sg29
L-146L
sg38
L-146L
sg51
L-146L
sg53
L-146L
sg30
L-146L
sg31
L-146L
ssL195L
(dp348
g2
L-146L
sg3
L-146L
sg4
L-146L
sg5
L-146L
sg6
L-146L
sg7
L-146L
sg8
L-146L
sg9
L-146L
sg10
L-146L
sg11
L-146L
sg12
L-146L
sg13
L-146L
sg14
L-146L
sg15
L-146L
sg16
L-146L
sg17
L-146L
sg18
L-146L
sg19
L-146L
sg20
L-146L
sg21
L-146L
sg22
L-146L
sg23
L-146L
sg24
L-146L
sg25
L-146L
sg79
L-146L
sg27
L-146L
sg28
L-146L
sg29
L-146L
sg30
L-146L
sg31
L-146L
ssL196L
(dp349
g2
L-146L
sg44
L-146L
sg3
L-146L
sg4
L-146L
sg5
L-146L
sg6
L-146L
sg7
L-146L
sg8
L-146L
sg9
L-146L
sg45
L-146L
sg50
L-146L
sg10
L-146L
sg11
L-146L
sg12
L-146L
sg13
L-146L
sg14
L-146L
sg15
L-146L
sg54
L-146L
sg16
L-146L
sg43
L-146L
sg17
L-146L
sg18
L-146L
sg19
L-146L
sg20
L-146L
sg21
L-146L
sg22
L-146L
sg23
L-146L
sg24
L-146L
sg25
L-146L
sg46
L-146L
sg48
L-146L
sg39
L-146L
sg79
L-146L
sg27
L-146L
sg28
L-146L
sg41
L-146L
sg29
L-146L
sg38
L-146L
sg51
L-146L
sg53
L-146L
sg30
L-146L
sg31
L-146L
ssL197L
(dp350
g2
L-146L
sg44
L-146L
sg3
L-146L
sg4
L-146L
sg5
L-146L
sg6
L-146L
sg7
L-146L
sg8
L-146L
sg9
L-146L
sg45
L-146L
sg50
L-146L
sg10
L-146L
sg11
L-146L
sg12
L-146L
sg13
L-146L
sg14
L-146L
sg15
L-146L
sg54
L-146L
sg16
L-146L
sg43
L-146L
sg17
L-146L
sg18
L-146L
sg19
L-146L
sg20
L-146L
sg21
L-146L
sg22
L-146L
sg23
L-146L
sg24
L-146L
sg25
L-146L
sg46
L-146L
sg48
L-146L
sg39
L-146L
sg79
L-146L
sg27
L-146L
sg28
L-146L
sg41
L-146L
sg29
L-146L
sg38
L-146L
sg51
L-146L
sg53
L-146L
sg30
L-146L
sg31
L-146L
ssL198L
(dp351
g2
L-146L
sg3
L-146L
sg4
L-146L
sg5
L-146L
sg6
L-146L
sg7
L-146L
sg8
L-146L
sg9
L-146L
sg10
L-146L
sg11
L-146L
sg12
L-146L
sg13
L-146L
sg14
L-146L
sg15
L-146L
sg16
L-146L
sg17
L-146L
sg18
L-146L
sg19
L-146L
sg20
L-146L
sg21
L-146L
sg22
L-146L
sg23
L-146L
sg24
L-146L
sg25
L-146L
sg79
L-146L
sg27
L-146L
sg28
L-146L
sg29
L-146L
sg30
L-146L
sg31
L-146L
ssL199L
(dp352
g50
L235L
ssL200L
(dp353
g79
L-146L
sg12
L-146L
sg4
L-146L
sg27
L-146L
sg19
L-146L
sg21
L-146L
sg25
L-146L
sg17
L-146L
sg3
L-146L
sg31
L-146L
sg20
L-146L
ssL201L
(dp354
g33
L-100L
sg86
L-100L
sg6
L4L
sg7
L46L
sg37
L-100L
sg38
L-100L
sg8
L47L
sg9
L5L
sg39
L-100L
sg40
L-100L
sg10
L19L
sg41
L-100L
sg13
L27L
sg85
L-100L
sg14
L7L
sg16
L8L
sg5
L3L
sg43
L-100L
sg44
L-100L
sg45
L-100L
sg22
L17L
sg46
L-100L
sg24
L37L
sg47
L-100L
sg48
L-100L
sg87
L-100L
sg50
L-100L
sg51
L-100L
sg52
L61L
sg53
L-100L
sg30
L15L
sg54
L-100L
sg28
L12L
ssL202L
(dp355
g54
L-99L
sg44
L-99L
sg33
L-99L
sg39
L-99L
sg36
L-99L
sg37
L-99L
sg38
L-99L
sg46
L-99L
sg47
L-99L
sg48
L-99L
sg40
L-99L
sg49
L-99L
sg50
L-99L
sg42
L-99L
sg41
L-99L
sg45
L-99L
sg43
L-99L
sg53
L-99L
sg51
L-99L
ssL203L
(dp356
g2
L1L
sg3
L29L
sg4
L6L
sg5
L3L
sg6
L4L
sg7
L46L
sg8
L47L
sg9
L5L
sg10
L19L
sg11
L24L
sg12
L31L
sg13
L27L
sg14
L7L
sg15
L54L
sg16
L8L
sg17
L22L
sg18
L50L
sg19
L10L
sg20
L34L
sg21
L23L
sg22
L17L
sg24
L37L
sg25
L52L
sg23
L26L
sg27
L41L
sg28
L12L
sg29
L11L
sg30
L15L
sg31
L53L
ssL204L
(dp357
g2
L1L
sg3
L29L
sg4
L6L
sg5
L3L
sg6
L4L
sg7
L46L
sg8
L47L
sg9
L5L
sg10
L19L
sg11
L24L
sg12
L31L
sg13
L27L
sg14
L7L
sg15
L54L
sg16
L8L
sg17
L22L
sg18
L50L
sg19
L10L
sg20
L34L
sg21
L23L
sg22
L17L
sg24
L37L
sg25
L52L
sg23
L26L
sg27
L41L
sg28
L12L
sg29
L11L
sg30
L15L
sg31
L53L
ssL205L
(dp358
g87
L-152L
sg33
L-152L
sg86
L-152L
sg85
L-152L
sg37
L-152L
ssL206L
(dp359
g87
L-151L
sg33
L-151L
sg86
L-151L
sg85
L-151L
sg37
L-151L
ssL207L
(dp360
g79
L147L
sg12
L31L
sg4
L6L
sg27
L41L
sg19
L10L
sg21
L23L
sg25
L52L
sg17
L22L
sg3
L29L
sg31
L53L
sg20
L34L
ssL208L
(dp361
g33
L-173L
sg5
L-173L
sg6
L-173L
sg37
L-173L
sg7
L-173L
sg8
L-173L
sg9
L-173L
sg39
L-173L
sg40
L-173L
sg10
L-173L
sg99
L-173L
sg85
L-173L
sg14
L-173L
sg16
L-173L
sg54
L-173L
sg86
L-173L
sg43
L-173L
sg44
L-173L
sg45
L-173L
sg22
L-173L
sg41
L-173L
sg24
L-173L
sg46
L-173L
sg47
L-173L
sg48
L-173L
sg87
L-173L
sg50
L-173L
sg28
L-173L
sg15
L-173L
sg38
L-173L
sg51
L-173L
sg53
L-173L
sg30
L-173L
sg13
L-173L
ssL209L
(dp362
g79
L-146L
sVWORD
p363
L-146L
ssL210L
(dp364
g54
L-161L
sg44
L-161L
sg33
L-161L
sg39
L-161L
sg86
L-161L
sg37
L-161L
sg38
L-161L
sg46
L-161L
sg47
L95L
sg48
L-161L
sg40
L96L
sg87
L-161L
sg50
L-161L
sg85
L-161L
sg41
L-161L
sg45
L-161L
sg43
L-161L
sg53
L-161L
sg51
L-161L
ssL211L
(dp365
g54
L-162L
sg44
L-162L
sg33
L-162L
sg39
L-162L
sg86
L-162L
sg37
L-162L
sg38
L-162L
sg46
L-162L
sg47
L95L
sg48
L-162L
sg40
L96L
sg87
L-162L
sg50
L-162L
sg85
L-162L
sg41
L-162L
sg45
L-162L
sg43
L-162L
sg53
L-162L
sg51
L-162L
ssL212L
(dp366
g33
L-106L
sg36
L-106L
sg6
L4L
sg7
L46L
sg37
L-106L
sg38
L-106L
sg8
L47L
sg9
L5L
sg39
L-106L
sg40
L-106L
sg10
L19L
sg41
L-106L
sg13
L27L
sg42
L-106L
sg14
L7L
sg16
L8L
sg5
L3L
sg43
L-106L
sg44
L-106L
sg45
L-106L
sg22
L17L
sg46
L-106L
sg24
L37L
sg47
L-106L
sg48
L-106L
sg49
L-106L
sg50
L-106L
sg51
L-106L
sg52
L61L
sg53
L-106L
sg30
L15L
sg54
L-106L
sg28
L12L
ssL213L
(dp367
g41
L241L
sg39
L244L
sg46
L242L
ssL214L
(dp368
g294
L245L
ssL215L
(dp369
g79
L147L
sg316
L247L
sg317
L246L
ssL216L
(dp370
g2
L-146L
sg3
L-146L
sg4
L-146L
sg5
L-146L
sg6
L-146L
sg7
L-146L
sg8
L-146L
sg9
L-146L
sg10
L-146L
sg11
L-146L
sg12
L-146L
sg13
L-146L
sg14
L-146L
sg15
L-146L
sg16
L-146L
sg17
L-146L
sg18
L-146L
sg19
L-146L
sg20
L-146L
sg21
L-146L
sg22
L-146L
sg23
L-146L
sg24
L-146L
sg25
L-146L
sg79
L-146L
sg27
L-146L
sg28
L-146L
sg29
L-146L
sg30
L-146L
sg31
L-146L
ssL217L
(dp371
g363
L250L
ssL218L
(dp372
g2
L-146L
sg3
L-146L
sg4
L-146L
sg5
L-146L
sg6
L-146L
sg7
L-146L
sg8
L-146L
sg9
L-146L
sg10
L-146L
sg11
L-146L
sg12
L-146L
sg13
L-146L
sg14
L-146L
sg15
L-146L
sg16
L-146L
sg17
L-146L
sg18
L-146L
sg19
L-146L
sg20
L-146L
sg21
L-146L
sg22
L-146L
sg23
L-146L
sg24
L-146L
sg25
L-146L
sg79
L-146L
sg27
L-146L
sg28
L-146L
sg29
L-146L
sg30
L-146L
sg31
L-146L
ssL219L
(dp373
g51
L253L
ssL220L
(dp374
g79
L147L
sg323
L254L
sg324
L255L
ssL221L
(dp375
VDONE
p376
L256L
ssL222L
(dp377
g79
L147L
sg327
L258L
sg328
L257L
ssL223L
(dp378
g2
L-146L
sg3
L-146L
sg4
L-146L
sg5
L-146L
sg6
L-146L
sg7
L-146L
sg8
L-146L
sg9
L-146L
sg10
L-146L
sg11
L-146L
sg12
L-146L
sg13
L-146L
sg14
L-146L
sg15
L-146L
sg16
L-146L
sg17
L-146L
sg18
L-146L
sg19
L-146L
sg20
L-146L
sg21
L-146L
sg22
L-146L
sg23
L-146L
sg24
L-146L
sg25
L-146L
sg79
L-146L
sg27
L-146L
sg28
L-146L
sg29
L-146L
sg30
L-146L
sg31
L-146L
ssL224L
(dp379
g363
L250L
sg33
L57L
sg34
L55L
sVNUMBER
p380
L262L
ssL225L
(dp381
g2
L-146L
sg3
L-146L
sg4
L-146L
sg5
L-146L
sg6
L-146L
sg7
L-146L
sg8
L-146L
sg9
L-146L
sg10
L-146L
sg11
L-146L
sg12
L-146L
sg13
L-146L
sg14
L-146L
sg15
L-146L
sg16
L-146L
sg17
L-146L
sg18
L-146L
sg19
L-146L
sg20
L-146L
sg21
L-146L
sg22
L-146L
sg23
L-146L
sg24
L-146L
sg25
L-146L
sg79
L-146L
sg27
L-146L
sg28
L-146L
sg29
L-146L
sg30
L-146L
sg31
L-146L
ssL226L
(dp382
g79
L-146L
sg290
L-146L
sg21
L-146L
sg346
L-146L
ssL227L
(dp383
g79
L147L
sg345
L269L
sg21
L268L
sg346
L267L
ssL228L
(dp384
g44
L271L
sg43
L272L
sg38
L-117L
sg54
L273L
ssL229L
(dp385
g38
L274L
ssL230L
(dp386
g2
L1L
sg18
L50L
sg39
L-134L
sg4
L6L
sg11
L24L
sg6
L4L
sg5
L3L
sg29
L11L
sg38
L-134L
sg8
L47L
sg9
L5L
sg31
L53L
sg10
L19L
sg41
L-134L
sg12
L31L
sg13
L27L
sg14
L7L
sg16
L8L
sg21
L23L
sg43
L-134L
sg3
L29L
sg23
L26L
sg44
L-134L
sg19
L10L
sg20
L34L
sg45
L-134L
sg22
L17L
sg7
L46L
sg46
L-134L
sg24
L37L
sg25
L52L
sg48
L-134L
sg79
L147L
sg27
L41L
sg50
L-134L
sg51
L-134L
sg15
L54L
sg17
L22L
sg53
L-134L
sg30
L15L
sg54
L-134L
sg28
L12L
ssL231L
(dp387
g2
L1L
sg3
L29L
sg4
L6L
sg5
L3L
sg6
L4L
sg7
L46L
sg8
L47L
sg9
L5L
sg10
L19L
sg11
L24L
sg12
L31L
sg13
L27L
sg14
L7L
sg15
L54L
sg16
L8L
sg17
L22L
sg18
L50L
sg19
L10L
sg20
L34L
sg21
L23L
sg22
L17L
sg23
L26L
sg24
L37L
sg25
L52L
sg79
L147L
sg27
L41L
sg28
L12L
sg29
L11L
sg30
L15L
sg31
L53L
ssL232L
(dp388
g2
L1L
sg18
L50L
sg39
L-135L
sg4
L6L
sg11
L24L
sg6
L4L
sg5
L3L
sg29
L11L
sg38
L-135L
sg8
L47L
sg9
L5L
sg31
L53L
sg10
L19L
sg41
L-135L
sg12
L31L
sg13
L27L
sg14
L7L
sg16
L8L
sg21
L23L
sg43
L-135L
sg3
L29L
sg23
L26L
sg44
L-135L
sg19
L10L
sg20
L34L
sg45
L-135L
sg22
L17L
sg7
L46L
sg46
L-135L
sg24
L37L
sg25
L52L
sg48
L-135L
sg79
L147L
sg27
L41L
sg50
L-135L
sg51
L-135L
sg15
L54L
sg17
L22L
sg53
L-135L
sg30
L15L
sg54
L-135L
sg28
L12L
ssL233L
(dp389
g2
L1L
sg18
L50L
sg39
L-136L
sg4
L6L
sg11
L24L
sg6
L4L
sg5
L3L
sg29
L11L
sg38
L-136L
sg8
L47L
sg9
L5L
sg31
L53L
sg10
L19L
sg41
L-136L
sg12
L31L
sg13
L27L
sg14
L7L
sg16
L8L
sg21
L23L
sg43
L-136L
sg3
L29L
sg23
L26L
sg44
L-136L
sg19
L10L
sg20
L34L
sg45
L-136L
sg22
L17L
sg7
L46L
sg46
L-136L
sg24
L37L
sg25
L52L
sg48
L-136L
sg79
L147L
sg27
L41L
sg50
L-136L
sg51
L-136L
sg15
L54L
sg17
L22L
sg53
L-136L
sg30
L15L
sg54
L-136L
sg28
L12L
ssL234L
(dp390
g2
L1L
sg3
L29L
sg4
L6L
sg5
L3L
sg6
L4L
sg7
L46L
sg8
L47L
sg9
L5L
sg10
L19L
sg11
L24L
sg12
L31L
sg13
L27L
sg14
L7L
sg15
L54L
sg16
L8L
sg17
L22L
sg18
L50L
sg19
L10L
sg20
L34L
sg21
L23L
sg22
L17L
sg23
L26L
sg24
L37L
sg25
L52L
sg79
L147L
sg27
L41L
sg28
L12L
sg29
L11L
sg30
L15L
sg31
L53L
ssL235L
(dp391
g33
L-65L
sg5
L-65L
sg6
L-65L
sg37
L-65L
sg7
L-65L
sg8
L-65L
sg9
L-65L
sg39
L-65L
sg40
L-65L
sg10
L-65L
sg41
L-65L
sg85
L-65L
sg14
L-65L
sg16
L-65L
sg54
L-65L
sg86
L-65L
sg43
L-65L
sg44
L-65L
sg45
L-65L
sg22
L-65L
sg46
L-65L
sg24
L-65L
sg47
L-65L
sg48
L-65L
sg87
L-65L
sg50
L-65L
sg28
L-65L
sg52
L-65L
sg38
L-65L
sg51
L-65L
sg53
L-65L
sg30
L-65L
sg13
L-65L
ssL236L
(dp392
g79
L147L
sg12
L31L
sg4
L6L
sg27
L41L
sg19
L10L
sg21
L23L
sg25
L52L
sg17
L22L
sg3
L29L
sg31
L53L
sg20
L34L
ssL237L
(dp393
g33
L-101L
sg86
L-101L
sg6
L4L
sg7
L46L
sg37
L-101L
sg38
L-101L
sg8
L47L
sg9
L5L
sg39
L-101L
sg40
L-101L
sg10
L19L
sg41
L-101L
sg13
L27L
sg85
L-101L
sg14
L7L
sg16
L8L
sg5
L3L
sg43
L-101L
sg44
L-101L
sg45
L-101L
sg22
L17L
sg46
L-101L
sg24
L37L
sg47
L-101L
sg48
L-101L
sg87
L-101L
sg50
L-101L
sg51
L-101L
sg52
L61L
sg53
L-101L
sg30
L15L
sg54
L-101L
sg28
L12L
ssL238L
(dp394
g54
L-97L
sg44
L-97L
sg33
L-97L
sg39
L-97L
sg36
L-97L
sg37
L-97L
sg38
L-97L
sg46
L-97L
sg47
L-97L
sg48
L-97L
sg40
L-97L
sg49
L-97L
sg50
L-97L
sg42
L-97L
sg41
L-97L
sg45
L-97L
sg43
L-97L
sg53
L-97L
sg51
L-97L
ssL239L
(dp395
g33
L-171L
sg5
L-171L
sg6
L-171L
sg37
L-171L
sg7
L-171L
sg8
L-171L
sg9
L-171L
sg39
L-171L
sg40
L-171L
sg10
L-171L
sg99
L-171L
sg85
L-171L
sg14
L-171L
sg16
L-171L
sg54
L-171L
sg86
L-171L
sg43
L-171L
sg44
L-171L
sg45
L-171L
sg22
L-171L
sg41
L-171L
sg24
L-171L
sg46
L-171L
sg47
L-171L
sg48
L-171L
sg87
L-171L
sg50
L-171L
sg28
L-171L
sg15
L-171L
sg38
L-171L
sg51
L-171L
sg53
L-171L
sg30
L-171L
sg13
L-171L
ssL240L
(dp396
g79
L147L
sg363
L250L
ssL241L
(dp397
g33
L-108L
sg5
L-108L
sg6
L-108L
sg37
L-108L
sg7
L-108L
sg8
L-108L
sg9
L-108L
sg39
L-108L
sg40
L-108L
sg10
L-108L
sg41
L-108L
sg42
L-108L
sg14
L-108L
sg16
L-108L
sg54
L-108L
sg36
L-108L
sg43
L-108L
sg44
L-108L
sg45
L-108L
sg22
L-108L
sg46
L-108L
sg24
L-108L
sg47
L-108L
sg48
L-108L
sg49
L-108L
sg50
L-108L
sg28
L-108L
sg52
L-108L
sg38
L-108L
sg51
L-108L
sg53
L-108L
sg30
L-108L
sg13
L-108L
ssL242L
(dp398
g2
L-146L
sg3
L-146L
sg4
L-146L
sg5
L-146L
sg6
L-146L
sg7
L-146L
sg8
L-146L
sg9
L-146L
sg10
L-146L
sg11
L-146L
sg12
L-146L
sg13
L-146L
sg14
L-146L
sg15
L-146L
sg16
L-146L
sg17
L-146L
sg18
L-146L
sg19
L-146L
sg20
L-146L
sg21
L-146L
sg22
L-146L
sg23
L-146L
sg24
L-146L
sg25
L-146L
sg79
L-146L
sg27
L-146L
sg28
L-146L
sg29
L-146L
sg30
L-146L
sg31
L-146L
ssL243L
(dp399
g196
L283L
ssL244L
(dp400
g2
L-146L
sg3
L-146L
sg4
L-146L
sg5
L-146L
sg6
L-146L
sg7
L-146L
sg8
L-146L
sg9
L-146L
sg10
L-146L
sg11
L-146L
sg12
L-146L
sg13
L-146L
sg14
L-146L
sg15
L-146L
sg16
L-146L
sg17
L-146L
sg18
L-146L
sg19
L-146L
sg20
L-146L
sg21
L-146L
sg22
L-146L
sg23
L-146L
sg24
L-146L
sg25
L-146L
sg79
L-146L
sg27
L-146L
sg28
L-146L
sg29
L-146L
sg30
L-146L
sg31
L-146L
ssL245L
(dp401
g33
L-66L
sg5
L-66L
sg6
L-66L
sg37
L-66L
sg7
L-66L
sg8
L-66L
sg9
L-66L
sg39
L-66L
sg40
L-66L
sg10
L-66L
sg41
L-66L
sg85
L-66L
sg14
L-66L
sg16
L-66L
sg54
L-66L
sg86
L-66L
sg43
L-66L
sg44
L-66L
sg45
L-66L
sg22
L-66L
sg46
L-66L
sg24
L-66L
sg47
L-66L
sg48
L-66L
sg87
L-66L
sg50
L-66L
sg28
L-66L
sg52
L-66L
sg38
L-66L
sg51
L-66L
sg53
L-66L
sg30
L-66L
sg13
L-66L
ssL246L
(dp402
g2
L-146L
sg3
L-146L
sg4
L-146L
sg5
L-146L
sg6
L-146L
sg7
L-146L
sg8
L-146L
sg9
L-146L
sg10
L-146L
sg11
L-146L
sg12
L-146L
sg13
L-146L
sg14
L-146L
sg15
L-146L
sg16
L-146L
sg17
L-146L
sg18
L-146L
sg19
L-146L
sg20
L-146L
sg21
L-146L
sg22
L-146L
sg23
L-146L
sg24
L-146L
sg25
L-146L
sg79
L-146L
sg27
L-146L
sg28
L-146L
sg29
L-146L
sg30
L-146L
sg31
L-146L
ssL247L
(dp403
g2
L-146L
sg3
L-146L
sg4
L-146L
sg5
L-146L
sg6
L-146L
sg7
L-146L
sg8
L-146L
sg9
L-146L
sg10
L-146L
sg11
L-146L
sg12
L-146L
sg13
L-146L
sg14
L-146L
sg15
L-146L
sg16
L-146L
sg17
L-146L
sg18
L-146L
sg19
L-146L
sg20
L-146L
sg21
L-146L
sg22
L-146L
sg23
L-146L
sg24
L-146L
sg25
L-146L
sg79
L-146L
sg27
L-146L
sg28
L-146L
sg29
L-146L
sg30
L-146L
sg31
L-146L
ssL248L
(dp404
g51
L287L
ssL249L
(dp405
g2
L1L
sg3
L29L
sg4
L6L
sg5
L3L
sg6
L4L
sg7
L46L
sg8
L47L
sg9
L5L
sg10
L19L
sg11
L24L
sg12
L31L
sg13
L27L
sg14
L7L
sg15
L54L
sg16
L8L
sg17
L22L
sg18
L50L
sg19
L10L
sg20
L34L
sg21
L23L
sg22
L17L
sg23
L26L
sg24
L37L
sg25
L52L
sg79
L147L
sg27
L41L
sg28
L12L
sg29
L11L
sg30
L15L
sg31
L53L
ssL250L
(dp406
g34
L-5L
sg33
L-5L
sg48
L-5L
sVWORD
p407
L-5L
ssL251L
(dp408
g34
L-146L
sg33
L57L
sg407
L-146L
ssL252L
(dp409
VDONE
p410
L291L
ssL253L
(dp411
g33
L-87L
sg5
L-87L
sg6
L-87L
sg37
L-87L
sg7
L-87L
sg8
L-87L
sg9
L-87L
sg39
L-87L
sg40
L-87L
sg10
L-87L
sg41
L-87L
sg42
L-87L
sg14
L-87L
sg16
L-87L
sg54
L-87L
sg36
L-87L
sg43
L-87L
sg44
L-87L
sg45
L-87L
sg22
L-87L
sg46
L-87L
sg24
L-87L
sg47
L-87L
sg48
L-87L
sg49
L-87L
sg50
L-87L
sg28
L-87L
sg52
L-87L
sg38
L-87L
sg51
L-87L
sg53
L-87L
sg30
L-87L
sg13
L-87L
ssL254L
(dp412
g2
L-146L
sg3
L-146L
sg4
L-146L
sg5
L-146L
sg6
L-146L
sg7
L-146L
sg8
L-146L
sg9
L-146L
sg10
L-146L
sg11
L-146L
sg12
L-146L
sg13
L-146L
sg14
L-146L
sg15
L-146L
sg16
L-146L
sg17
L-146L
sg18
L-146L
sg19
L-146L
sg20
L-146L
sg21
L-146L
sg22
L-146L
sg23
L-146L
sg24
L-146L
sg25
L-146L
sg79
L-146L
sg27
L-146L
sg28
L-146L
sg29
L-146L
sg30
L-146L
sg31
L-146L
ssL255L
(dp413
g2
L-146L
sg3
L-146L
sg4
L-146L
sg5
L-146L
sg6
L-146L
sg7
L-146L
sg8
L-146L
sg9
L-146L
sg10
L-146L
sg11
L-146L
sg12
L-146L
sg13
L-146L
sg14
L-146L
sg15
L-146L
sg16
L-146L
sg17
L-146L
sg18
L-146L
sg19
L-146L
sg20
L-146L
sg21
L-146L
sg22
L-146L
sg23
L-146L
sg24
L-146L
sg25
L-146L
sg79
L-146L
sg27
L-146L
sg28
L-146L
sg29
L-146L
sg30
L-146L
sg31
L-146L
ssL256L
(dp414
g33
L-86L
sg5
L-86L
sg6
L-86L
sg37
L-86L
sg7
L-86L
sg8
L-86L
sg9
L-86L
sg39
L-86L
sg40
L-86L
sg10
L-86L
sg41
L-86L
sg42
L-86L
sg14
L-86L
sg16
L-86L
sg54
L-86L
sg36
L-86L
sg43
L-86L
sg44
L-86L
sg45
L-86L
sg22
L-86L
sg46
L-86L
sg24
L-86L
sg47
L-86L
sg48
L-86L
sg49
L-86L
sg50
L-86L
sg28
L-86L
sg52
L-86L
sg38
L-86L
sg51
L-86L
sg53
L-86L
sg30
L-86L
sg13
L-86L
ssL257L
(dp415
g2
L-146L
sg3
L-146L
sg4
L-146L
sg5
L-146L
sg6
L-146L
sg7
L-146L
sg8
L-146L
sg9
L-146L
sg10
L-146L
sg11
L-146L
sg12
L-146L
sg13
L-146L
sg14
L-146L
sg15
L-146L
sg16
L-146L
sg17
L-146L
sg18
L-146L
sg19
L-146L
sg20
L-146L
sg21
L-146L
sg22
L-146L
sg23
L-146L
sg24
L-146L
sg25
L-146L
sg79
L-146L
sg27
L-146L
sg28
L-146L
sg29
L-146L
sg30
L-146L
sg31
L-146L
ssL258L
(dp416
g2
L-146L
sg3
L-146L
sg4
L-146L
sg5
L-146L
sg6
L-146L
sg7
L-146L
sg8
L-146L
sg9
L-146L
sg10
L-146L
sg11
L-146L
sg12
L-146L
sg13
L-146L
sg14
L-146L
sg15
L-146L
sg16
L-146L
sg17
L-146L
sg18
L-146L
sg19
L-146L
sg20
L-146L
sg21
L-146L
sg22
L-146L
sg23
L-146L
sg24
L-146L
sg25
L-146L
sg79
L-146L
sg27
L-146L
sg28
L-146L
sg29
L-146L
sg30
L-146L
sg31
L-146L
ssL259L
(dp417
g51
L296L
ssL260L
(dp418
g34
L-146L
sg33
L57L
sVNUMBER
p419
L-146L
ssL261L
(dp420
g34
L-146L
sg33
L57L
sg407
L-146L
ssL262L
(dp421
g34
L-167L
sg33
L-167L
sg419
L-167L
ssL263L
(dp422
g79
L-146L
sVLBRACE
p423
L-146L
sVDO
p424
L-146L
ssL264L
(dp425
VDONE
p426
L301L
ssL265L
(dp427
g79
L147L
sg290
L302L
sg21
L268L
sg346
L267L
ssL266L
(dp428
VSEMI_SEMI_AND
p429
L303L
sVSEMI_SEMI
p430
L304L
sg38
L-118L
sVSEMI_AND
p431
L305L
ssL267L
(dp432
g47
L-129L
sg48
L-129L
ssL268L
(dp433
g346
L267L
ssL269L
(dp434
g33
L-94L
sg5
L-94L
sg6
L-94L
sg37
L-94L
sg7
L-94L
sg8
L-94L
sg9
L-94L
sg39
L-94L
sg40
L-94L
sg10
L-94L
sg41
L-94L
sg42
L-94L
sg14
L-94L
sg16
L-94L
sg54
L-94L
sg36
L-94L
sg43
L-94L
sg44
L-94L
sg45
L-94L
sg22
L-94L
sg46
L-94L
sg24
L-94L
sg47
L-94L
sg48
L-94L
sg49
L-94L
sg50
L-94L
sg28
L-94L
sg52
L-94L
sg38
L-94L
sg51
L-94L
sg53
L-94L
sg30
L-94L
sg13
L-94L
ssL270L
(dp435
g47
L307L
sg48
L308L
ssL271L
(dp436
g79
L-127L
sg290
L-127L
sg21
L-127L
sg346
L-127L
ssL272L
(dp437
g79
L-123L
sg290
L-123L
sg21
L-123L
sg346
L-123L
ssL273L
(dp438
g79
L-125L
sg290
L-125L
sg21
L-125L
sg346
L-125L
ssL274L
(dp439
g33
L-96L
sg5
L-96L
sg6
L-96L
sg37
L-96L
sg7
L-96L
sg8
L-96L
sg9
L-96L
sg39
L-96L
sg40
L-96L
sg10
L-96L
sg41
L-96L
sg42
L-96L
sg14
L-96L
sg16
L-96L
sg54
L-96L
sg36
L-96L
sg43
L-96L
sg44
L-96L
sg45
L-96L
sg22
L-96L
sg46
L-96L
sg24
L-96L
sg47
L-96L
sg48
L-96L
sg49
L-96L
sg50
L-96L
sg28
L-96L
sg52
L-96L
sg38
L-96L
sg51
L-96L
sg53
L-96L
sg30
L-96L
sg13
L-96L
ssL275L
(dp440
g44
L-141L
sg33
L-141L
sg36
L195L
sg37
L-141L
sg38
L-141L
sg46
L-141L
sg39
L-141L
sg48
L-141L
sg42
L198L
sg49
L-141L
sg50
L-141L
sg54
L-141L
sg41
L-141L
sg45
L-141L
sg43
L-141L
sg53
L-141L
sg51
L-141L
ssL276L
(dp441
g44
L-138L
sg33
L-138L
sg36
L-138L
sg37
L-138L
sg38
L-138L
sg46
L-138L
sg39
L-138L
sg48
L-138L
sg42
L-138L
sg49
L-138L
sg50
L-138L
sg54
L-138L
sg41
L-138L
sg45
L-138L
sg43
L-138L
sg53
L-138L
sg51
L-138L
ssL277L
(dp442
g44
L-139L
sg33
L-139L
sg36
L195L
sg37
L-139L
sg38
L-139L
sg46
L-139L
sg39
L-139L
sg48
L-139L
sg42
L198L
sg49
L-139L
sg50
L-139L
sg54
L-139L
sg41
L-139L
sg45
L-139L
sg43
L-139L
sg53
L-139L
sg51
L-139L
ssL278L
(dp443
g44
L-140L
sg33
L-140L
sg36
L195L
sg37
L-140L
sg38
L-140L
sg46
L-140L
sg39
L-140L
sg48
L-140L
sg42
L198L
sg49
L-140L
sg50
L-140L
sg54
L-140L
sg41
L-140L
sg45
L-140L
sg43
L-140L
sg53
L-140L
sg51
L-140L
ssL279L
(dp444
g44
L-137L
sg33
L-137L
sg36
L-137L
sg37
L-137L
sg38
L-137L
sg46
L-137L
sg39
L-137L
sg48
L-137L
sg42
L-137L
sg49
L-137L
sg50
L-137L
sg54
L-137L
sg41
L-137L
sg45
L-137L
sg43
L-137L
sg53
L-137L
sg51
L-137L
ssL280L
(dp445
g54
L-98L
sg44
L-98L
sg33
L-98L
sg39
L-98L
sg36
L-98L
sg37
L-98L
sg38
L-98L
sg46
L-98L
sg47
L-98L
sg48
L-98L
sg40
L-98L
sg49
L-98L
sg50
L-98L
sg42
L-98L
sg41
L-98L
sg45
L-98L
sg43
L-98L
sg53
L-98L
sg51
L-98L
ssL281L
(dp446
g407
L-146L
sg48
L-146L
sg79
L-146L
ssL282L
(dp447
g195
L313L
ssL283L
(dp448
g33
L-110L
sg5
L-110L
sg6
L-110L
sg37
L-110L
sg7
L-110L
sg8
L-110L
sg9
L-110L
sg39
L-110L
sg40
L-110L
sg10
L-110L
sg41
L-110L
sg42
L-110L
sg14
L-110L
sg16
L-110L
sg54
L-110L
sg36
L-110L
sg43
L-110L
sg44
L-110L
sg45
L-110L
sg22
L-110L
sg46
L-110L
sg24
L-110L
sg47
L-110L
sg48
L-110L
sg49
L-110L
sg50
L-110L
sg28
L-110L
sg52
L-110L
sg38
L-110L
sg51
L-110L
sg53
L-110L
sg30
L-110L
sg13
L-110L
ssL284L
(dp449
VFI
p450
L314L
ssL285L
(dp451
VDONE
p452
L315L
ssL286L
(dp453
g51
L316L
ssL287L
(dp454
g33
L-89L
sg5
L-89L
sg6
L-89L
sg37
L-89L
sg7
L-89L
sg8
L-89L
sg9
L-89L
sg39
L-89L
sg40
L-89L
sg10
L-89L
sg41
L-89L
sg85
L-89L
sg14
L-89L
sg16
L-89L
sg54
L-89L
sg86
L-89L
sg43
L-89L
sg44
L-89L
sg45
L-89L
sg22
L-89L
sg46
L-89L
sg24
L-89L
sg47
L-89L
sg48
L-89L
sg87
L-89L
sg50
L-89L
sg28
L-89L
sg52
L-89L
sg38
L-89L
sg51
L-89L
sg53
L-89L
sg30
L-89L
sg13
L-89L
ssL288L
(dp455
VNEWLINE
p456
L317L
sg33
L319L
sg36
L195L
sg42
L198L
sg37
L318L
ssL289L
(dp457
g407
L320L
sg79
L147L
ssL290L
(dp458
g79
L-146L
sVLBRACE
p459
L-146L
sVDO
p460
L-146L
ssL291L
(dp461
g33
L-88L
sg5
L-88L
sg6
L-88L
sg37
L-88L
sg7
L-88L
sg8
L-88L
sg9
L-88L
sg39
L-88L
sg40
L-88L
sg10
L-88L
sg41
L-88L
sg85
L-88L
sg14
L-88L
sg16
L-88L
sg54
L-88L
sg86
L-88L
sg43
L-88L
sg44
L-88L
sg45
L-88L
sg22
L-88L
sg46
L-88L
sg24
L-88L
sg47
L-88L
sg48
L-88L
sg87
L-88L
sg50
L-88L
sg28
L-88L
sg52
L-88L
sg38
L-88L
sg51
L-88L
sg53
L-88L
sg30
L-88L
sg13
L-88L
ssL292L
(dp462
g51
L322L
ssL293L
(dp463
g197
L323L
ssL294L
(dp464
VDONE
p465
L324L
ssL295L
(dp466
g51
L325L
ssL296L
(dp467
g33
L-75L
sg5
L-75L
sg6
L-75L
sg37
L-75L
sg7
L-75L
sg8
L-75L
sg9
L-75L
sg39
L-75L
sg40
L-75L
sg10
L-75L
sg41
L-75L
sg85
L-75L
sg14
L-75L
sg16
L-75L
sg54
L-75L
sg86
L-75L
sg43
L-75L
sg44
L-75L
sg45
L-75L
sg22
L-75L
sg46
L-75L
sg24
L-75L
sg47
L-75L
sg48
L-75L
sg87
L-75L
sg50
L-75L
sg28
L-75L
sg52
L-75L
sg38
L-75L
sg51
L-75L
sg53
L-75L
sg30
L-75L
sg13
L-75L
ssL297L
(dp468
g419
L326L
sg79
L147L
ssL298L
(dp469
g79
L-146L
sVLBRACE
p470
L-146L
sVDO
p471
L-146L
ssL299L
(dp472
g79
L-146L
sg147
L-146L
sg291
L-146L
ssL300L
(dp473
g79
L147L
sg423
L329L
sg424
L330L
ssL301L
(dp474
g33
L-74L
sg5
L-74L
sg6
L-74L
sg37
L-74L
sg7
L-74L
sg8
L-74L
sg9
L-74L
sg39
L-74L
sg40
L-74L
sg10
L-74L
sg41
L-74L
sg85
L-74L
sg14
L-74L
sg16
L-74L
sg54
L-74L
sg86
L-74L
sg43
L-74L
sg44
L-74L
sg45
L-74L
sg22
L-74L
sg46
L-74L
sg24
L-74L
sg47
L-74L
sg48
L-74L
sg87
L-74L
sg50
L-74L
sg28
L-74L
sg52
L-74L
sg38
L-74L
sg51
L-74L
sg53
L-74L
sg30
L-74L
sg13
L-74L
ssL302L
(dp475
g33
L-95L
sg5
L-95L
sg6
L-95L
sg37
L-95L
sg7
L-95L
sg8
L-95L
sg9
L-95L
sg39
L-95L
sg40
L-95L
sg10
L-95L
sg41
L-95L
sg42
L-95L
sg14
L-95L
sg16
L-95L
sg54
L-95L
sg36
L-95L
sg43
L-95L
sg44
L-95L
sg45
L-95L
sg22
L-95L
sg46
L-95L
sg24
L-95L
sg47
L-95L
sg48
L-95L
sg49
L-95L
sg50
L-95L
sg28
L-95L
sg52
L-95L
sg38
L-95L
sg51
L-95L
sg53
L-95L
sg30
L-95L
sg13
L-95L
ssL303L
(dp476
g79
L-128L
sg290
L-128L
sg21
L-128L
sg346
L-128L
ssL304L
(dp477
g79
L-124L
sg290
L-124L
sg21
L-124L
sg346
L-124L
ssL305L
(dp478
g79
L-126L
sg290
L-126L
sg21
L-126L
sg346
L-126L
ssL306L
(dp479
g47
L307L
sg48
L331L
ssL307L
(dp480
VWORD
p481
L332L
ssL308L
(dp482
g2
L-146L
sg44
L-146L
sg3
L-146L
sg4
L-146L
sg5
L-146L
sg6
L-146L
sg7
L-146L
sg8
L-146L
sg9
L-146L
sg10
L-146L
sg11
L-146L
sg12
L-146L
sg13
L-146L
sg14
L-146L
sg15
L-146L
sg54
L-146L
sg16
L-146L
sg43
L-146L
sg17
L-146L
sg18
L-146L
sg19
L-146L
sg20
L-146L
sg21
L-146L
sg22
L-146L
sg23
L-146L
sg24
L-146L
sg25
L-146L
sg79
L-146L
sg27
L-146L
sg28
L-146L
sg29
L-146L
sg38
L-146L
sg30
L-146L
sg31
L-146L
ssL309L
(dp483
g2
L-146L
sg3
L-146L
sg4
L-146L
sg5
L-146L
sg6
L-146L
sg7
L-146L
sg8
L-146L
sg9
L-146L
sg10
L-146L
sg11
L-146L
sg12
L-146L
sg13
L-146L
sg14
L-146L
sg15
L-146L
sg16
L-146L
sg17
L-146L
sg18
L-146L
sg19
L-146L
sg20
L-146L
sg21
L-146L
sg22
L-146L
sg23
L-146L
sg24
L-146L
sg25
L-146L
sg79
L-146L
sg27
L-146L
sg28
L-146L
sg29
L-146L
sg30
L-146L
sg31
L-146L
ssL310L
(dp484
g2
L-146L
sg3
L-146L
sg4
L-146L
sg5
L-146L
sg6
L-146L
sg7
L-146L
sg8
L-146L
sg9
L-146L
sg10
L-146L
sg11
L-146L
sg12
L-146L
sg13
L-146L
sg14
L-146L
sg15
L-146L
sg16
L-146L
sg17
L-146L
sg18
L-146L
sg19
L-146L
sg20
L-146L
sg21
L-146L
sg22
L-146L
sg23
L-146L
sg24
L-146L
sg25
L-146L
sg79
L-146L
sg27
L-146L
sg28
L-146L
sg29
L-146L
sg30
L-146L
sg31
L-146L
ssL311L
(dp485
g2
L-146L
sg3
L-146L
sg4
L-146L
sg5
L-146L
sg6
L-146L
sg7
L-146L
sg8
L-146L
sg9
L-146L
sg10
L-146L
sg11
L-146L
sg12
L-146L
sg13
L-146L
sg14
L-146L
sg15
L-146L
sg16
L-146L
sg17
L-146L
sg18
L-146L
sg19
L-146L
sg20
L-146L
sg21
L-146L
sg22
L-146L
sg23
L-146L
sg24
L-146L
sg25
L-146L
sg79
L-146L
sg27
L-146L
sg28
L-146L
sg29
L-146L
sg30
L-146L
sg31
L-146L
ssL312L
(dp486
g407
L320L
sg48
L338L
sg79
L147L
ssL313L
(dp487
g2
L-146L
sg3
L-146L
sg4
L-146L
sg5
L-146L
sg6
L-146L
sg7
L-146L
sg8
L-146L
sg9
L-146L
sg10
L-146L
sg11
L-146L
sg12
L-146L
sg13
L-146L
sg14
L-146L
sg15
L-146L
sg16
L-146L
sg17
L-146L
sg18
L-146L
sg19
L-146L
sg20
L-146L
sg21
L-146L
sg22
L-146L
sg23
L-146L
sg24
L-146L
sg25
L-146L
sg79
L-146L
sg27
L-146L
sg28
L-146L
sg29
L-146L
sg30
L-146L
sg31
L-146L
ssL314L
(dp488
g33
L-109L
sg5
L-109L
sg6
L-109L
sg37
L-109L
sg7
L-109L
sg8
L-109L
sg9
L-109L
sg39
L-109L
sg40
L-109L
sg10
L-109L
sg41
L-109L
sg42
L-109L
sg14
L-109L
sg16
L-109L
sg54
L-109L
sg36
L-109L
sg43
L-109L
sg44
L-109L
sg45
L-109L
sg22
L-109L
sg46
L-109L
sg24
L-109L
sg47
L-109L
sg48
L-109L
sg49
L-109L
sg50
L-109L
sg28
L-109L
sg52
L-109L
sg38
L-109L
sg51
L-109L
sg53
L-109L
sg30
L-109L
sg13
L-109L
ssL315L
(dp489
g33
L-90L
sg5
L-90L
sg6
L-90L
sg37
L-90L
sg7
L-90L
sg8
L-90L
sg9
L-90L
sg39
L-90L
sg40
L-90L
sg10
L-90L
sg41
L-90L
sg85
L-90L
sg14
L-90L
sg16
L-90L
sg54
L-90L
sg86
L-90L
sg43
L-90L
sg44
L-90L
sg45
L-90L
sg22
L-90L
sg46
L-90L
sg24
L-90L
sg47
L-90L
sg48
L-90L
sg87
L-90L
sg50
L-90L
sg28
L-90L
sg52
L-90L
sg38
L-90L
sg51
L-90L
sg53
L-90L
sg30
L-90L
sg13
L-90L
ssL316L
(dp490
g33
L-91L
sg5
L-91L
sg6
L-91L
sg37
L-91L
sg7
L-91L
sg8
L-91L
sg9
L-91L
sg39
L-91L
sg40
L-91L
sg10
L-91L
sg41
L-91L
sg85
L-91L
sg14
L-91L
sg16
L-91L
sg54
L-91L
sg86
L-91L
sg43
L-91L
sg44
L-91L
sg45
L-91L
sg22
L-91L
sg46
L-91L
sg24
L-91L
sg47
L-91L
sg48
L-91L
sg87
L-91L
sg50
L-91L
sg28
L-91L
sg52
L-91L
sg38
L-91L
sg51
L-91L
sg53
L-91L
sg30
L-91L
sg13
L-91L
ssL317L
(dp491
g2
L-146L
sg3
L-146L
sg4
L-146L
sg5
L-146L
sg6
L-146L
sg7
L-146L
sg8
L-146L
sg9
L-146L
sg410
L-146L
sg10
L-146L
sg11
L-146L
sg12
L-146L
sg13
L-146L
sg14
L-146L
sg15
L-146L
sg16
L-146L
sg17
L-146L
sg18
L-146L
sg19
L-146L
sg20
L-146L
sg21
L-146L
sg22
L-146L
sg23
L-146L
sg24
L-146L
sg25
L-146L
sg79
L-146L
sg27
L-146L
sg28
L-146L
sg29
L-146L
sg51
L-146L
sg30
L-146L
sg31
L-146L
ssL318L
(dp492
g2
L-146L
sg3
L-146L
sg4
L-146L
sg5
L-146L
sg6
L-146L
sg7
L-146L
sg8
L-146L
sg9
L-146L
sg410
L-146L
sg10
L-146L
sg11
L-146L
sg12
L-146L
sg13
L-146L
sg14
L-146L
sg15
L-146L
sg16
L-146L
sg17
L-146L
sg18
L-146L
sg19
L-146L
sg20
L-146L
sg21
L-146L
sg22
L-146L
sg23
L-146L
sg24
L-146L
sg25
L-146L
sg79
L-146L
sg27
L-146L
sg28
L-146L
sg29
L-146L
sg51
L-146L
sg30
L-146L
sg31
L-146L
ssL319L
(dp493
g2
L-146L
sg3
L-146L
sg4
L-146L
sg5
L-146L
sg6
L-146L
sg7
L-146L
sg8
L-146L
sg9
L-146L
sg410
L-146L
sg10
L-146L
sg11
L-146L
sg12
L-146L
sg13
L-146L
sg14
L-146L
sg15
L-146L
sg16
L-146L
sg17
L-146L
sg18
L-146L
sg19
L-146L
sg20
L-146L
sg21
L-146L
sg22
L-146L
sg23
L-146L
sg24
L-146L
sg25
L-146L
sg79
L-146L
sg27
L-146L
sg28
L-146L
sg29
L-146L
sg51
L-146L
sg30
L-146L
sg31
L-146L
ssL320L
(dp494
g34
L-6L
sg33
L-6L
sg48
L-6L
sg407
L-6L
ssL321L
(dp495
g79
L147L
sg459
L343L
sg460
L344L
ssL322L
(dp496
g33
L-85L
sg5
L-85L
sg6
L-85L
sg37
L-85L
sg7
L-85L
sg8
L-85L
sg9
L-85L
sg39
L-85L
sg40
L-85L
sg10
L-85L
sg41
L-85L
sg42
L-85L
sg14
L-85L
sg16
L-85L
sg54
L-85L
sg36
L-85L
sg43
L-85L
sg44
L-85L
sg45
L-85L
sg22
L-85L
sg46
L-85L
sg24
L-85L
sg47
L-85L
sg48
L-85L
sg49
L-85L
sg50
L-85L
sg28
L-85L
sg52
L-85L
sg38
L-85L
sg51
L-85L
sg53
L-85L
sg30
L-85L
sg13
L-85L
ssL323L
(dp497
g33
L-84L
sg5
L-84L
sg6
L-84L
sg37
L-84L
sg7
L-84L
sg8
L-84L
sg9
L-84L
sg39
L-84L
sg40
L-84L
sg10
L-84L
sg41
L-84L
sg42
L-84L
sg14
L-84L
sg16
L-84L
sg54
L-84L
sg36
L-84L
sg43
L-84L
sg44
L-84L
sg45
L-84L
sg22
L-84L
sg46
L-84L
sg24
L-84L
sg47
L-84L
sg48
L-84L
sg49
L-84L
sg50
L-84L
sg28
L-84L
sg52
L-84L
sg38
L-84L
sg51
L-84L
sg53
L-84L
sg30
L-84L
sg13
L-84L
ssL324L
(dp498
g33
L-76L
sg5
L-76L
sg6
L-76L
sg37
L-76L
sg7
L-76L
sg8
L-76L
sg9
L-76L
sg39
L-76L
sg40
L-76L
sg10
L-76L
sg41
L-76L
sg85
L-76L
sg14
L-76L
sg16
L-76L
sg54
L-76L
sg86
L-76L
sg43
L-76L
sg44
L-76L
sg45
L-76L
sg22
L-76L
sg46
L-76L
sg24
L-76L
sg47
L-76L
sg48
L-76L
sg87
L-76L
sg50
L-76L
sg28
L-76L
sg52
L-76L
sg38
L-76L
sg51
L-76L
sg53
L-76L
sg30
L-76L
sg13
L-76L
ssL325L
(dp499
g33
L-77L
sg5
L-77L
sg6
L-77L
sg37
L-77L
sg7
L-77L
sg8
L-77L
sg9
L-77L
sg39
L-77L
sg40
L-77L
sg10
L-77L
sg41
L-77L
sg85
L-77L
sg14
L-77L
sg16
L-77L
sg54
L-77L
sg86
L-77L
sg43
L-77L
sg44
L-77L
sg45
L-77L
sg22
L-77L
sg46
L-77L
sg24
L-77L
sg47
L-77L
sg48
L-77L
sg87
L-77L
sg50
L-77L
sg28
L-77L
sg52
L-77L
sg38
L-77L
sg51
L-77L
sg53
L-77L
sg30
L-77L
sg13
L-77L
ssL326L
(dp500
g34
L-168L
sg33
L-168L
sg419
L-168L
ssL327L
(dp501
g79
L147L
sg470
L345L
sg471
L346L
ssL328L
(dp502
g79
L147L
sg147
L347L
sg291
L348L
ssL329L
(dp503
g2
L-146L
sg3
L-146L
sg4
L-146L
sg5
L-146L
sg6
L-146L
sg7
L-146L
sg8
L-146L
sg9
L-146L
sg10
L-146L
sg11
L-146L
sg12
L-146L
sg13
L-146L
sg14
L-146L
sg15
L-146L
sg16
L-146L
sg17
L-146L
sg18
L-146L
sg19
L-146L
sg20
L-146L
sg21
L-146L
sg22
L-146L
sg23
L-146L
sg24
L-146L
sg25
L-146L
sg79
L-146L
sg27
L-146L
sg28
L-146L
sg29
L-146L
sg30
L-146L
sg31
L-146L
ssL330L
(dp504
g2
L-146L
sg3
L-146L
sg4
L-146L
sg5
L-146L
sg6
L-146L
sg7
L-146L
sg8
L-146L
sg9
L-146L
sg10
L-146L
sg11
L-146L
sg12
L-146L
sg13
L-146L
sg14
L-146L
sg15
L-146L
sg16
L-146L
sg17
L-146L
sg18
L-146L
sg19
L-146L
sg20
L-146L
sg21
L-146L
sg22
L-146L
sg23
L-146L
sg24
L-146L
sg25
L-146L
sg79
L-146L
sg27
L-146L
sg28
L-146L
sg29
L-146L
sg30
L-146L
sg31
L-146L
ssL331L
(dp505
g2
L-146L
sg44
L-146L
sg3
L-146L
sg4
L-146L
sg5
L-146L
sg6
L-146L
sg7
L-146L
sg8
L-146L
sg9
L-146L
sg10
L-146L
sg11
L-146L
sg12
L-146L
sg13
L-146L
sg14
L-146L
sg15
L-146L
sg54
L-146L
sg16
L-146L
sg43
L-146L
sg17
L-146L
sg18
L-146L
sg19
L-146L
sg20
L-146L
sg21
L-146L
sg22
L-146L
sg23
L-146L
sg24
L-146L
sg25
L-146L
sg79
L-146L
sg27
L-146L
sg28
L-146L
sg29
L-146L
sg38
L-146L
sg30
L-146L
sg31
L-146L
ssL332L
(dp506
g47
L-130L
sg48
L-130L
ssL333L
(dp507
g2
L1L
sg18
L50L
sg3
L29L
sg4
L6L
sg5
L3L
sg6
L4L
sg7
L46L
sg38
L-120L
sg8
L47L
sg9
L5L
sg10
L19L
sg11
L24L
sg12
L31L
sg13
L27L
sg14
L7L
sg15
L54L
sg16
L8L
sg430
L-120L
sg17
L22L
sg429
L-120L
sg19
L10L
sg20
L34L
sg21
L23L
sg22
L17L
sg23
L26L
sg24
L37L
sg25
L52L
sg79
L147L
sg27
L41L
sg431
L-120L
sg29
L11L
sg30
L15L
sg31
L53L
sg28
L12L
ssL334L
(dp508
g429
L-119L
sg430
L-119L
sg38
L-119L
sg431
L-119L
ssL335L
(dp509
g2
L1L
sg3
L29L
sg4
L6L
sg5
L3L
sg6
L4L
sg7
L46L
sg8
L47L
sg9
L5L
sg10
L19L
sg11
L24L
sg12
L31L
sg13
L27L
sg14
L7L
sg15
L54L
sg16
L8L
sg17
L22L
sg18
L50L
sg19
L10L
sg20
L34L
sg21
L23L
sg22
L17L
sg23
L26L
sg24
L37L
sg25
L52L
sg79
L147L
sg27
L41L
sg28
L12L
sg29
L11L
sg30
L15L
sg31
L53L
ssL336L
(dp510
g2
L1L
sg3
L29L
sg4
L6L
sg5
L3L
sg6
L4L
sg7
L46L
sg8
L47L
sg9
L5L
sg10
L19L
sg11
L24L
sg12
L31L
sg13
L27L
sg14
L7L
sg15
L54L
sg16
L8L
sg17
L22L
sg18
L50L
sg19
L10L
sg20
L34L
sg21
L23L
sg22
L17L
sg23
L26L
sg24
L37L
sg25
L52L
sg79
L147L
sg27
L41L
sg28
L12L
sg29
L11L
sg30
L15L
sg31
L53L
ssL337L
(dp511
g2
L1L
sg3
L29L
sg4
L6L
sg5
L3L
sg6
L4L
sg7
L46L
sg8
L47L
sg9
L5L
sg10
L19L
sg11
L24L
sg12
L31L
sg13
L27L
sg14
L7L
sg15
L54L
sg16
L8L
sg17
L22L
sg18
L50L
sg19
L10L
sg20
L34L
sg21
L23L
sg22
L17L
sg23
L26L
sg24
L37L
sg25
L52L
sg79
L147L
sg27
L41L
sg28
L12L
sg29
L11L
sg30
L15L
sg31
L53L
ssL338L
(dp512
g33
L-173L
sg5
L-173L
sg6
L-173L
sg37
L-173L
sg7
L-173L
sg8
L-173L
sg9
L-173L
sg39
L-173L
sg40
L-173L
sg10
L-173L
sg99
L-173L
sg85
L-173L
sg14
L-173L
sg16
L-173L
sg54
L-173L
sg86
L-173L
sg43
L-173L
sg44
L-173L
sg45
L-173L
sg22
L-173L
sg41
L-173L
sg24
L-173L
sg46
L-173L
sg47
L-173L
sg48
L-173L
sg87
L-173L
sg50
L-173L
sg28
L-173L
sg15
L-173L
sg38
L-173L
sg51
L-173L
sg53
L-173L
sg30
L-173L
sg13
L-173L
ssL339L
(dp513
g196
L-114L
sg194
L355L
sg46
L242L
ssL340L
(dp514
g2
L1L
sg3
L29L
sg4
L6L
sg5
L3L
sg6
L4L
sg29
L11L
sg7
L46L
sg8
L47L
sg9
L5L
sg10
L19L
sg11
L24L
sg12
L31L
sg13
L27L
sg14
L7L
sg15
L54L
sg16
L8L
sg17
L22L
sg18
L50L
sg19
L10L
sg20
L34L
sg21
L23L
sg22
L17L
sg23
L26L
sg24
L37L
sg25
L52L
sg79
L147L
sg27
L41L
sg51
L-134L
sg410
L-134L
sg30
L15L
sg31
L53L
sg28
L12L
ssL341L
(dp515
g2
L1L
sg3
L29L
sg4
L6L
sg5
L3L
sg6
L4L
sg29
L11L
sg7
L46L
sg8
L47L
sg9
L5L
sg10
L19L
sg11
L24L
sg12
L31L
sg13
L27L
sg14
L7L
sg15
L54L
sg16
L8L
sg17
L22L
sg18
L50L
sg19
L10L
sg20
L34L
sg21
L23L
sg22
L17L
sg23
L26L
sg24
L37L
sg25
L52L
sg79
L147L
sg27
L41L
sg51
L-135L
sg410
L-135L
sg30
L15L
sg31
L53L
sg28
L12L
ssL342L
(dp516
g2
L1L
sg3
L29L
sg4
L6L
sg5
L3L
sg6
L4L
sg29
L11L
sg7
L46L
sg8
L47L
sg9
L5L
sg10
L19L
sg11
L24L
sg12
L31L
sg13
L27L
sg14
L7L
sg15
L54L
sg16
L8L
sg17
L22L
sg18
L50L
sg19
L10L
sg20
L34L
sg21
L23L
sg22
L17L
sg23
L26L
sg24
L37L
sg25
L52L
sg79
L147L
sg27
L41L
sg51
L-136L
sg410
L-136L
sg30
L15L
sg31
L53L
sg28
L12L
ssL343L
(dp517
g2
L-146L
sg3
L-146L
sg4
L-146L
sg5
L-146L
sg6
L-146L
sg7
L-146L
sg8
L-146L
sg9
L-146L
sg10
L-146L
sg11
L-146L
sg12
L-146L
sg13
L-146L
sg14
L-146L
sg15
L-146L
sg16
L-146L
sg17
L-146L
sg18
L-146L
sg19
L-146L
sg20
L-146L
sg21
L-146L
sg22
L-146L
sg23
L-146L
sg24
L-146L
sg25
L-146L
sg79
L-146L
sg27
L-146L
sg28
L-146L
sg29
L-146L
sg30
L-146L
sg31
L-146L
ssL344L
(dp518
g2
L-146L
sg3
L-146L
sg4
L-146L
sg5
L-146L
sg6
L-146L
sg7
L-146L
sg8
L-146L
sg9
L-146L
sg10
L-146L
sg11
L-146L
sg12
L-146L
sg13
L-146L
sg14
L-146L
sg15
L-146L
sg16
L-146L
sg17
L-146L
sg18
L-146L
sg19
L-146L
sg20
L-146L
sg21
L-146L
sg22
L-146L
sg23
L-146L
sg24
L-146L
sg25
L-146L
sg79
L-146L
sg27
L-146L
sg28
L-146L
sg29
L-146L
sg30
L-146L
sg31
L-146L
ssL345L
(dp519
g2
L-146L
sg3
L-146L
sg4
L-146L
sg5
L-146L
sg6
L-146L
sg7
L-146L
sg8
L-146L
sg9
L-146L
sg10
L-146L
sg11
L-146L
sg12
L-146L
sg13
L-146L
sg14
L-146L
sg15
L-146L
sg16
L-146L
sg17
L-146L
sg18
L-146L
sg19
L-146L
sg20
L-146L
sg21
L-146L
sg22
L-146L
sg23
L-146L
sg24
L-146L
sg25
L-146L
sg79
L-146L
sg27
L-146L
sg28
L-146L
sg29
L-146L
sg30
L-146L
sg31
L-146L
ssL346L
(dp520
g2
L-146L
sg3
L-146L
sg4
L-146L
sg5
L-146L
sg6
L-146L
sg7
L-146L
sg8
L-146L
sg9
L-146L
sg10
L-146L
sg11
L-146L
sg12
L-146L
sg13
L-146L
sg14
L-146L
sg15
L-146L
sg16
L-146L
sg17
L-146L
sg18
L-146L
sg19
L-146L
sg20
L-146L
sg21
L-146L
sg22
L-146L
sg23
L-146L
sg24
L-146L
sg25
L-146L
sg79
L-146L
sg27
L-146L
sg28
L-146L
sg29
L-146L
sg30
L-146L
sg31
L-146L
ssL347L
(dp521
g2
L-146L
sg3
L-146L
sg4
L-146L
sg5
L-146L
sg6
L-146L
sg7
L-146L
sg8
L-146L
sg9
L-146L
sg10
L-146L
sg11
L-146L
sg12
L-146L
sg13
L-146L
sg14
L-146L
sg15
L-146L
sg16
L-146L
sg17
L-146L
sg18
L-146L
sg19
L-146L
sg20
L-146L
sg21
L-146L
sg22
L-146L
sg23
L-146L
sg24
L-146L
sg25
L-146L
sg79
L-146L
sg27
L-146L
sg28
L-146L
sg29
L-146L
sg30
L-146L
sg31
L-146L
ssL348L
(dp522
g2
L-146L
sg3
L-146L
sg4
L-146L
sg5
L-146L
sg6
L-146L
sg7
L-146L
sg8
L-146L
sg9
L-146L
sg10
L-146L
sg11
L-146L
sg12
L-146L
sg13
L-146L
sg14
L-146L
sg15
L-146L
sg16
L-146L
sg17
L-146L
sg18
L-146L
sg19
L-146L
sg20
L-146L
sg21
L-146L
sg22
L-146L
sg23
L-146L
sg24
L-146L
sg25
L-146L
sg79
L-146L
sg27
L-146L
sg28
L-146L
sg29
L-146L
sg30
L-146L
sg31
L-146L
ssL349L
(dp523
g51
L362L
ssL350L
(dp524
VDONE
p525
L363L
ssL351L
(dp526
g2
L1L
sg18
L50L
sg3
L29L
sg4
L6L
sg5
L3L
sg6
L4L
sg7
L46L
sg38
L-122L
sg8
L47L
sg9
L5L
sg10
L19L
sg11
L24L
sg12
L31L
sg13
L27L
sg14
L7L
sg15
L54L
sg16
L8L
sg430
L-122L
sg17
L22L
sg429
L-122L
sg19
L10L
sg20
L34L
sg21
L23L
sg22
L17L
sg23
L26L
sg24
L37L
sg25
L52L
sg79
L147L
sg27
L41L
sg431
L-122L
sg29
L11L
sg30
L15L
sg31
L53L
sg28
L12L
ssL352L
(dp527
g429
L-121L
sg430
L-121L
sg38
L-121L
sg431
L-121L
ssL353L
(dp528
g33
L-169L
sg5
L-169L
sg6
L-169L
sg37
L-169L
sg7
L-169L
sg8
L-169L
sg9
L-169L
sg39
L-169L
sg40
L-169L
sg10
L-169L
sg99
L-169L
sg85
L-169L
sg14
L-169L
sg16
L-169L
sg54
L-169L
sg86
L-169L
sg43
L-169L
sg44
L-169L
sg45
L-169L
sg22
L-169L
sg41
L-169L
sg24
L-169L
sg46
L-169L
sg47
L-169L
sg48
L-169L
sg87
L-169L
sg50
L-169L
sg28
L-169L
sg15
L-169L
sg38
L-169L
sg51
L-169L
sg53
L-169L
sg30
L-169L
sg13
L-169L
ssL354L
(dp529
g196
L-116L
ssL355L
(dp530
g2
L-146L
sg3
L-146L
sg4
L-146L
sg5
L-146L
sg6
L-146L
sg7
L-146L
sg8
L-146L
sg9
L-146L
sg10
L-146L
sg11
L-146L
sg12
L-146L
sg13
L-146L
sg14
L-146L
sg15
L-146L
sg16
L-146L
sg17
L-146L
sg18
L-146L
sg19
L-146L
sg20
L-146L
sg21
L-146L
sg22
L-146L
sg23
L-146L
sg24
L-146L
sg25
L-146L
sg79
L-146L
sg27
L-146L
sg28
L-146L
sg29
L-146L
sg30
L-146L
sg31
L-146L
ssL356L
(dp531
g51
L365L
ssL357L
(dp532
VDONE
p533
L366L
ssL358L
(dp534
g51
L367L
ssL359L
(dp535
VDONE
p536
L368L
ssL360L
(dp537
g51
L369L
ssL361L
(dp538
VDONE
p539
L370L
ssL362L
(dp540
g33
L-83L
sg5
L-83L
sg6
L-83L
sg37
L-83L
sg7
L-83L
sg8
L-83L
sg9
L-83L
sg39
L-83L
sg40
L-83L
sg10
L-83L
sg41
L-83L
sg85
L-83L
sg14
L-83L
sg16
L-83L
sg54
L-83L
sg86
L-83L
sg43
L-83L
sg44
L-83L
sg45
L-83L
sg22
L-83L
sg46
L-83L
sg24
L-83L
sg47
L-83L
sg48
L-83L
sg87
L-83L
sg50
L-83L
sg28
L-83L
sg52
L-83L
sg38
L-83L
sg51
L-83L
sg53
L-83L
sg30
L-83L
sg13
L-83L
ssL363L
(dp541
g33
L-82L
sg5
L-82L
sg6
L-82L
sg37
L-82L
sg7
L-82L
sg8
L-82L
sg9
L-82L
sg39
L-82L
sg40
L-82L
sg10
L-82L
sg41
L-82L
sg85
L-82L
sg14
L-82L
sg16
L-82L
sg54
L-82L
sg86
L-82L
sg43
L-82L
sg44
L-82L
sg45
L-82L
sg22
L-82L
sg46
L-82L
sg24
L-82L
sg47
L-82L
sg48
L-82L
sg87
L-82L
sg50
L-82L
sg28
L-82L
sg52
L-82L
sg38
L-82L
sg51
L-82L
sg53
L-82L
sg30
L-82L
sg13
L-82L
ssL364L
(dp542
g196
L-115L
ssL365L
(dp543
g33
L-93L
sg5
L-93L
sg6
L-93L
sg37
L-93L
sg7
L-93L
sg8
L-93L
sg9
L-93L
sg39
L-93L
sg40
L-93L
sg10
L-93L
sg41
L-93L
sg85
L-93L
sg14
L-93L
sg16
L-93L
sg54
L-93L
sg86
L-93L
sg43
L-93L
sg44
L-93L
sg45
L-93L
sg22
L-93L
sg46
L-93L
sg24
L-93L
sg47
L-93L
sg48
L-93L
sg87
L-93L
sg50
L-93L
sg28
L-93L
sg52
L-93L
sg38
L-93L
sg51
L-93L
sg53
L-93L
sg30
L-93L
sg13
L-93L
ssL366L
(dp544
g33
L-92L
sg5
L-92L
sg6
L-92L
sg37
L-92L
sg7
L-92L
sg8
L-92L
sg9
L-92L
sg39
L-92L
sg40
L-92L
sg10
L-92L
sg41
L-92L
sg85
L-92L
sg14
L-92L
sg16
L-92L
sg54
L-92L
sg86
L-92L
sg43
L-92L
sg44
L-92L
sg45
L-92L
sg22
L-92L
sg46
L-92L
sg24
L-92L
sg47
L-92L
sg48
L-92L
sg87
L-92L
sg50
L-92L
sg28
L-92L
sg52
L-92L
sg38
L-92L
sg51
L-92L
sg53
L-92L
sg30
L-92L
sg13
L-92L
ssL367L
(dp545
g33
L-81L
sg5
L-81L
sg6
L-81L
sg37
L-81L
sg7
L-81L
sg8
L-81L
sg9
L-81L
sg39
L-81L
sg40
L-81L
sg10
L-81L
sg41
L-81L
sg85
L-81L
sg14
L-81L
sg16
L-81L
sg54
L-81L
sg86
L-81L
sg43
L-81L
sg44
L-81L
sg45
L-81L
sg22
L-81L
sg46
L-81L
sg24
L-81L
sg47
L-81L
sg48
L-81L
sg87
L-81L
sg50
L-81L
sg28
L-81L
sg52
L-81L
sg38
L-81L
sg51
L-81L
sg53
L-81L
sg30
L-81L
sg13
L-81L
ssL368L
(dp546
g33
L-80L
sg5
L-80L
sg6
L-80L
sg37
L-80L
sg7
L-80L
sg8
L-80L
sg9
L-80L
sg39
L-80L
sg40
L-80L
sg10
L-80L
sg41
L-80L
sg85
L-80L
sg14
L-80L
sg16
L-80L
sg54
L-80L
sg86
L-80L
sg43
L-80L
sg44
L-80L
sg45
L-80L
sg22
L-80L
sg46
L-80L
sg24
L-80L
sg47
L-80L
sg48
L-80L
sg87
L-80L
sg50
L-80L
sg28
L-80L
sg52
L-80L
sg38
L-80L
sg51
L-80L
sg53
L-80L
sg30
L-80L
sg13
L-80L
ssL369L
(dp547
g33
L-79L
sg5
L-79L
sg6
L-79L
sg37
L-79L
sg7
L-79L
sg8
L-79L
sg9
L-79L
sg39
L-79L
sg40
L-79L
sg10
L-79L
sg41
L-79L
sg85
L-79L
sg14
L-79L
sg16
L-79L
sg54
L-79L
sg86
L-79L
sg43
L-79L
sg44
L-79L
sg45
L-79L
sg22
L-79L
sg46
L-79L
sg24
L-79L
sg47
L-79L
sg48
L-79L
sg87
L-79L
sg50
L-79L
sg28
L-79L
sg52
L-79L
sg38
L-79L
sg51
L-79L
sg53
L-79L
sg30
L-79L
sg13
L-79L
ssL370L
(dp548
g33
L-78L
sg5
L-78L
sg6
L-78L
sg37
L-78L
sg7
L-78L
sg8
L-78L
sg9
L-78L
sg39
L-78L
sg40
L-78L
sg10
L-78L
sg41
L-78L
sg85
L-78L
sg14
L-78L
sg16
L-78L
sg54
L-78L
sg86
L-78L
sg43
L-78L
sg44
L-78L
sg45
L-78L
sg22
L-78L
sg46
L-78L
sg24
L-78L
sg47
L-78L
sg48
L-78L
sg87
L-78L
sg50
L-78L
sg28
L-78L
sg52
L-78L
sg38
L-78L
sg51
L-78L
sg53
L-78L
sg30
L-78L
sg13
L-78L
ss.(dp0
L0L
(dp1
Vif_command
p2
L44L
sVsubshell
p3
L28L
sVcoproc
p4
L30L
sVfor_command
p5
L13L
sVinputunit
p6
L39L
sVgroup_command
p7
L45L
sVshell_command
p8
L2L
sVfunction_def
p9
L32L
sVinputunit_list
p10
L9L
sVcommand
p11
L49L
sVsimple_command_element
p12
L21L
sVsimple_list1
p13
L14L
sVselect_command
p14
L16L
sVcase_command
p15
L35L
sVarith_command
p16
L20L
sVassignment_word
p17
L51L
sVcond_command
p18
L38L
sVpipeline
p19
L25L
sVsimple_command
p20
L40L
sVsimple_list
p21
L48L
sVarith_for_command
p22
L42L
sVpipeline_command
p23
L18L
sVredirection
p24
L33L
sVtimespec
p25
L43L
ssL1L
(dp26
g2
L44L
sg3
L28L
sg8
L2L
sg16
L20L
sg14
L16L
sg22
L42L
sg18
L38L
sg7
L45L
sg19
L25L
sg5
L13L
sg20
L40L
sg4
L30L
sg9
L32L
sVpipeline_command
p27
L56L
sg24
L33L
sg25
L43L
sg11
L49L
sVlist_terminator
p28
L58L
sg12
L21L
sg15
L35L
sg17
L51L
ssL2L
(dp29
Vredirection_list
p30
L60L
sVredirection
p31
L59L
ssL3L
(dp32
sL4L
(dp33
sL5L
(dp34
sL6L
(dp35
sL7L
(dp36
sL8L
(dp37
sL9L
(dp38
g2
L44L
sg3
L28L
sg4
L30L
sg23
L18L
sVinputunit
p39
L79L
sg7
L45L
sg8
L2L
sg9
L32L
sg11
L49L
sg12
L21L
sg13
L14L
sg14
L16L
sg15
L35L
sg16
L20L
sg17
L51L
sg18
L38L
sg19
L25L
sg20
L40L
sg21
L48L
sg22
L42L
sg5
L13L
sg24
L33L
sg25
L43L
ssL10L
(dp40
Vlist
p41
L80L
sVnewline_list
p42
L81L
sVcompound_list
p43
L82L
ssL11L
(dp44
sL12L
(dp45
sL13L
(dp46
sL14L
(dp47
sL15L
(dp48
sL16L
(dp49
sL17L
(dp50
sL18L
(dp51
sL19L
(dp52
sL20L
(dp53
sL21L
(dp54
sL22L
(dp55
sL23L
(dp56
g41
L80L
sg42
L81L
sVcompound_list
p57
L92L
ssL24L
(dp58
sL25L
(dp59
sL26L
(dp60
g3
L28L
sg2
L44L
sVshell_command
p61
L97L
sg16
L20L
sg17
L51L
sg14
L16L
sg18
L38L
sg7
L45L
sVsimple_command
p62
L99L
sg15
L35L
sg22
L42L
sg5
L13L
sg24
L33L
sg12
L21L
ssL27L
(dp63
sL28L
(dp64
sL29L
(dp65
g41
L80L
sg42
L81L
sVcompound_list
p66
L103L
ssL30L
(dp67
sL31L
(dp68
g41
L80L
sg42
L81L
sVcompound_list
p69
L104L
ssL32L
(dp70
sL33L
(dp71
sL34L
(dp72
g41
L80L
sg42
L81L
sVcompound_list
p73
L105L
ssL35L
(dp74
sL36L
(dp75
sL37L
(dp76
sL38L
(dp77
sL39L
(dp78
sL40L
(dp79
Vcurly_off
p80
L107L
sVcurly_on
p81
L108L
ssL41L
(dp82
sL42L
(dp83
sL43L
(dp84
g2
L44L
sg3
L28L
sg8
L2L
sg16
L20L
sg14
L16L
sg22
L42L
sg18
L38L
sg7
L45L
sg19
L25L
sg5
L13L
sg20
L40L
sg4
L30L
sg9
L32L
sVpipeline_command
p85
L110L
sg24
L33L
sg25
L43L
sg11
L49L
sVlist_terminator
p86
L111L
sg12
L21L
sg15
L35L
sg17
L51L
ssL44L
(dp87
sL45L
(dp88
sL46L
(dp89
sL47L
(dp90
sL48L
(dp91
Vsimple_list_terminator
p92
L115L
ssL49L
(dp93
sL50L
(dp94
sL51L
(dp95
sL52L
(dp96
sL53L
(dp97
sL54L
(dp98
sL55L
(dp99
sL56L
(dp100
sL57L
(dp101
sL58L
(dp102
sL59L
(dp103
sL60L
(dp104
Vredirection
p105
L130L
ssL61L
(dp106
sL62L
(dp107
sL63L
(dp108
sL64L
(dp109
sL65L
(dp110
sL66L
(dp111
sL67L
(dp112
sL68L
(dp113
sL69L
(dp114
sL70L
(dp115
sL71L
(dp116
sL72L
(dp117
sL73L
(dp118
sL74L
(dp119
Vnewline_list
p120
L145L
ssL75L
(dp121
sL76L
(dp122
sL77L
(dp123
sL78L
(dp124
sL79L
(dp125
sL80L
(dp126
sL81L
(dp127
g2
L44L
sg3
L28L
sg8
L2L
sVpipeline_command
p128
L146L
sg7
L45L
sg4
L30L
sg9
L32L
sg11
L49L
sg12
L21L
sg14
L16L
sg15
L35L
sg16
L20L
sg17
L51L
sg18
L38L
sg19
L25L
sg20
L40L
sVlist1
p129
L148L
sg22
L42L
sg5
L13L
sg24
L33L
sVlist0
p130
L149L
sg25
L43L
ssL82L
(dp131
sL83L
(dp132
Vnewline_list
p133
L152L
ssL84L
(dp134
sL85L
(dp135
g2
L44L
sg3
L28L
sg8
L2L
sg16
L20L
sg14
L16L
sg22
L42L
sg18
L38L
sg7
L45L
sg19
L25L
sg5
L13L
sg20
L40L
sg4
L30L
sg9
L32L
sg23
L18L
sg24
L33L
sg25
L43L
sg11
L49L
sg17
L51L
sg12
L21L
sg15
L35L
sVsimple_list1
p136
L153L
ssL86L
(dp137
Vnewline_list
p138
L154L
ssL87L
(dp139
Vnewline_list
p140
L155L
ssL88L
(dp141
g2
L44L
sg3
L28L
sg8
L2L
sg16
L20L
sg14
L16L
sg22
L42L
sg18
L38L
sg7
L45L
sg19
L25L
sg5
L13L
sg20
L40L
sg4
L30L
sg9
L32L
sg23
L18L
sg24
L33L
sg25
L43L
sg11
L49L
sg17
L51L
sg12
L21L
sg15
L35L
sVsimple_list1
p142
L156L
ssL89L
(dp143
sL90L
(dp144
sL91L
(dp145
sL92L
(dp146
sL93L
(dp147
sL94L
(dp148
Vassignment_off
p149
L159L
ssL95L
(dp150
Vnewline_list
p151
L161L
ssL96L
(dp152
Vnewline_list
p153
L162L
ssL97L
(dp154
Vredirection_list
p155
L163L
sg31
L59L
ssL98L
(dp156
g2
L44L
sg3
L28L
sVshell_command
p157
L164L
sg16
L20L
sg14
L16L
sg5
L13L
sg18
L38L
sg7
L45L
sg15
L35L
sg22
L42L
ssL99L
(dp158
g80
L107L
ssL100L
(dp159
sL101L
(dp160
sL102L
(dp161
sL103L
(dp162
sL104L
(dp163
sL105L
(dp164
sL106L
(dp165
sL107L
(dp166
Vsimple_command_element
p167
L169L
sg17
L51L
sg24
L33L
ssL108L
(dp168
sL109L
(dp169
Vnewline_list
p170
L171L
ssL110L
(dp171
sL111L
(dp172
sL112L
(dp173
sL113L
(dp174
sL114L
(dp175
sL115L
(dp176
sL116L
(dp177
sL117L
(dp178
sL118L
(dp179
Vlist_terminator
p180
L175L
ssL119L
(dp181
Vnewline_list
p182
L178L
ssL120L
(dp183
sL121L
(dp184
sL122L
(dp185
sL123L
(dp186
sL124L
(dp187
sL125L
(dp188
sL126L
(dp189
sL127L
(dp190
sL128L
(dp191
sL129L
(dp192
sL130L
(dp193
sL131L
(dp194
sL132L
(dp195
sL133L
(dp196
sL134L
(dp197
sL135L
(dp198
sL136L
(dp199
sL137L
(dp200
sL138L
(dp201
sL139L
(dp202
sL140L
(dp203
sL141L
(dp204
sL142L
(dp205
sL143L
(dp206
sL144L
(dp207
sL145L
(dp208
sL146L
(dp209
sL147L
(dp210
sL148L
(dp211
sL149L
(dp212
sL150L
(dp213
g41
L80L
sg42
L81L
sg43
L199L
ssL151L
(dp214
sL152L
(dp215
g14
L16L
sg2
L44L
sVshell_command
p216
L201L
sg16
L20L
sg22
L42L
sg5
L13L
sVfunction_body
p217
L202L
sg18
L38L
sg7
L45L
sg3
L28L
sg15
L35L
ssL153L
(dp218
sL154L
(dp219
g2
L44L
sg3
L28L
sg8
L2L
sg16
L20L
sg14
L16L
sg22
L42L
sg18
L38L
sg7
L45L
sg19
L25L
sg5
L13L
sg20
L40L
sg4
L30L
sg9
L32L
sg23
L18L
sg24
L33L
sg25
L43L
sg11
L49L
sg17
L51L
sg12
L21L
sg15
L35L
sVsimple_list1
p220
L205L
ssL155L
(dp221
g2
L44L
sg3
L28L
sg8
L2L
sg16
L20L
sg14
L16L
sg22
L42L
sg18
L38L
sg7
L45L
sg19
L25L
sg5
L13L
sg20
L40L
sg4
L30L
sg9
L32L
sg23
L18L
sg24
L33L
sg25
L43L
sg11
L49L
sg17
L51L
sg12
L21L
sg15
L35L
sVsimple_list1
p222
L206L
ssL156L
(dp223
sL157L
(dp224
sL158L
(dp225
Vnewline_list
p226
L207L
ssL159L
(dp227
sL160L
(dp228
sL161L
(dp229
g2
L44L
sg3
L28L
sg8
L2L
sg16
L20L
sg14
L16L
sg22
L42L
sg18
L38L
sg7
L45L
sg20
L40L
sg4
L30L
sg9
L32L
sg5
L13L
sg24
L33L
sg11
L49L
sVpipeline
p230
L210L
sg12
L21L
sg15
L35L
sg17
L51L
ssL162L
(dp231
g2
L44L
sg3
L28L
sg8
L2L
sg16
L20L
sg14
L16L
sg22
L42L
sg18
L38L
sg7
L45L
sg20
L40L
sg4
L30L
sg9
L32L
sg5
L13L
sg24
L33L
sg11
L49L
sVpipeline
p232
L211L
sg12
L21L
sg15
L35L
sg17
L51L
ssL163L
(dp233
g105
L130L
ssL164L
(dp234
Vredirection_list
p235
L212L
sg31
L59L
ssL165L
(dp236
g41
L80L
sg42
L81L
sg66
L213L
ssL166L
(dp237
g41
L80L
sg42
L81L
sg69
L214L
ssL167L
(dp238
sL168L
(dp239
sL169L
(dp240
sL170L
(dp241
Vnewline_list
p242
L215L
ssL171L
(dp243
sL172L
(dp244
sL173L
(dp245
sL174L
(dp246
g41
L80L
sg42
L81L
sVcompound_list
p247
L219L
ssL175L
(dp248
Vnewline_list
p249
L220L
ssL176L
(dp250
g41
L80L
sg42
L81L
sVcompound_list
p251
L221L
ssL177L
(dp252
Vnewline_list
p253
L222L
ssL178L
(dp254
sL179L
(dp255
sL180L
(dp256
sL181L
(dp257
sL182L
(dp258
sL183L
(dp259
sL184L
(dp260
sL185L
(dp261
sL186L
(dp262
sL187L
(dp263
sL188L
(dp264
sL189L
(dp265
sL190L
(dp266
sL191L
(dp267
sL192L
(dp268
sL193L
(dp269
Vcase_clause_sequence
p270
L226L
sVpattern_list
p271
L228L
sg120
L227L
sVcase_clause
p272
L229L
ssL194L
(dp273
Vnewline_list
p274
L230L
ssL195L
(dp275
Vnewline_list
p276
L231L
ssL196L
(dp277
Vnewline_list
p278
L232L
ssL197L
(dp279
Vnewline_list
p280
L233L
ssL198L
(dp281
Vnewline_list
p282
L234L
ssL199L
(dp283
sL200L
(dp284
g133
L236L
ssL201L
(dp285
Vredirection_list
p286
L237L
sg31
L59L
ssL202L
(dp287
sL203L
(dp288
g2
L44L
sg3
L28L
sg8
L2L
sg16
L20L
sg14
L16L
sg22
L42L
sg18
L38L
sg7
L45L
sg19
L25L
sg5
L13L
sg20
L40L
sg4
L30L
sg9
L32L
sg23
L18L
sg24
L33L
sg25
L43L
sg11
L49L
sg17
L51L
sg12
L21L
sg15
L35L
sVsimple_list1
p289
L153L
ssL204L
(dp290
g2
L44L
sg3
L28L
sg8
L2L
sg16
L20L
sg14
L16L
sg22
L42L
sg18
L38L
sg7
L45L
sg19
L25L
sg5
L13L
sg20
L40L
sg4
L30L
sg9
L32L
sg23
L18L
sg24
L33L
sg25
L43L
sg11
L49L
sg17
L51L
sg12
L21L
sg15
L35L
sVsimple_list1
p291
L156L
ssL205L
(dp292
sL206L
(dp293
sL207L
(dp294
g14
L16L
sg2
L44L
sg216
L201L
sg16
L20L
sg22
L42L
sg5
L13L
sVfunction_body
p295
L238L
sg18
L38L
sg7
L45L
sg3
L28L
sg15
L35L
ssL208L
(dp296
Vassignment_on
p297
L239L
ssL209L
(dp298
Vnewline_list
p299
L240L
ssL210L
(dp300
sL211L
(dp301
sL212L
(dp302
g105
L130L
ssL213L
(dp303
Velif_clause
p304
L243L
ssL214L
(dp305
sL215L
(dp306
sL216L
(dp307
Vlist
p308
L248L
sVnewline_list
p309
L249L
ssL217L
(dp310
Vword_list
p311
L251L
ssL218L
(dp312
Vlist
p313
L252L
sg170
L249L
ssL219L
(dp314
sL220L
(dp315
sL221L
(dp316
sL222L
(dp317
sL223L
(dp318
g41
L80L
sVnewline_list
p319
L81L
sVcompound_list
p320
L259L
ssL224L
(dp321
Vlist_terminator
p322
L263L
sVnumber_list
p323
L260L
sVword_list
p324
L261L
ssL225L
(dp325
g41
L80L
sg182
L81L
sVcompound_list
p326
L264L
ssL226L
(dp327
Vpattern_list
p328
L266L
sVnewline_list
p329
L265L
ssL227L
(dp330
Vpattern
p331
L270L
ssL228L
(dp332
sL229L
(dp333
sL230L
(dp334
g2
L44L
sg3
L28L
sg8
L2L
sg16
L20L
sg14
L16L
sg22
L42L
sg18
L38L
sg7
L45L
sg5
L13L
sg20
L40L
sVlist1
p335
L275L
sg4
L30L
sg9
L32L
sg128
L146L
sg24
L33L
sg25
L43L
sg11
L49L
sg19
L25L
sg12
L21L
sg15
L35L
sg17
L51L
ssL231L
(dp336
g2
L44L
sg3
L28L
sg8
L2L
sg16
L20L
sg14
L16L
sg22
L42L
sg18
L38L
sg7
L45L
sg5
L13L
sg20
L40L
sVlist1
p337
L276L
sg4
L30L
sg9
L32L
sg128
L146L
sg24
L33L
sg25
L43L
sg11
L49L
sg19
L25L
sg12
L21L
sg15
L35L
sg17
L51L
ssL232L
(dp338
g2
L44L
sg3
L28L
sg8
L2L
sg16
L20L
sg14
L16L
sg22
L42L
sg18
L38L
sg7
L45L
sg5
L13L
sg20
L40L
sVlist1
p339
L277L
sg4
L30L
sg9
L32L
sg128
L146L
sg24
L33L
sg25
L43L
sg11
L49L
sg19
L25L
sg12
L21L
sg15
L35L
sg17
L51L
ssL233L
(dp340
g2
L44L
sg3
L28L
sg8
L2L
sg16
L20L
sg14
L16L
sg22
L42L
sg18
L38L
sg7
L45L
sg5
L13L
sg20
L40L
sVlist1
p341
L278L
sg4
L30L
sg9
L32L
sg128
L146L
sg24
L33L
sg25
L43L
sg11
L49L
sg19
L25L
sg12
L21L
sg15
L35L
sg17
L51L
ssL234L
(dp342
g2
L44L
sg3
L28L
sg8
L2L
sg16
L20L
sg14
L16L
sg22
L42L
sg18
L38L
sg7
L45L
sg5
L13L
sg20
L40L
sVlist1
p343
L279L
sg4
L30L
sg9
L32L
sg128
L146L
sg24
L33L
sg25
L43L
sg11
L49L
sg19
L25L
sg12
L21L
sg15
L35L
sg17
L51L
ssL235L
(dp344
sL236L
(dp345
g14
L16L
sg2
L44L
sg216
L201L
sg16
L20L
sg22
L42L
sg5
L13L
sVfunction_body
p346
L280L
sg18
L38L
sg7
L45L
sg3
L28L
sg15
L35L
ssL237L
(dp347
g105
L130L
ssL238L
(dp348
sL239L
(dp349
sL240L
(dp350
Vword_list
p351
L281L
ssL241L
(dp352
sL242L
(dp353
g41
L80L
sg42
L81L
sVcompound_list
p354
L282L
ssL243L
(dp355
sL244L
(dp356
g41
L80L
sg42
L81L
sVcompound_list
p357
L284L
ssL245L
(dp358
sL246L
(dp359
Vlist
p360
L285L
sg242
L249L
ssL247L
(dp361
Vlist
p362
L286L
sVnewline_list
p363
L249L
ssL248L
(dp364
sL249L
(dp365
g2
L44L
sg3
L28L
sg8
L2L
sg128
L146L
sg7
L45L
sg4
L30L
sg9
L32L
sg11
L49L
sg12
L21L
sg14
L16L
sg15
L35L
sg16
L20L
sg17
L51L
sg18
L38L
sg19
L25L
sg20
L40L
sVlist1
p366
L288L
sg22
L42L
sg5
L13L
sg24
L33L
sg130
L149L
sg25
L43L
ssL250L
(dp367
sL251L
(dp368
Vlist_terminator
p369
L290L
sVnewline_list
p370
L289L
ssL252L
(dp371
sL253L
(dp372
sL254L
(dp373
g41
L80L
sVnewline_list
p374
L81L
sVcompound_list
p375
L292L
ssL255L
(dp376
g41
L80L
sg249
L81L
sVcompound_list
p377
L293L
ssL256L
(dp378
sL257L
(dp379
g41
L80L
sg253
L81L
sVcompound_list
p380
L294L
ssL258L
(dp381
g41
L80L
sVnewline_list
p382
L81L
sVcompound_list
p383
L295L
ssL259L
(dp384
sL260L
(dp385
Vlist_terminator
p386
L298L
sVnewline_list
p387
L297L
ssL261L
(dp388
g322
L299L
sVnewline_list
p389
L289L
ssL262L
(dp390
sL263L
(dp391
Vnewline_list
p392
L300L
ssL264L
(dp393
sL265L
(dp394
g331
L270L
ssL266L
(dp395
sL267L
(dp396
sL268L
(dp397
Vpattern
p398
L306L
ssL269L
(dp399
sL270L
(dp400
sL271L
(dp401
sL272L
(dp402
sL273L
(dp403
sL274L
(dp404
sL275L
(dp405
sL276L
(dp406
sL277L
(dp407
sL278L
(dp408
sL279L
(dp409
sL280L
(dp410
sL281L
(dp411
g299
L312L
ssL282L
(dp412
sL283L
(dp413
sL284L
(dp414
sL285L
(dp415
sL286L
(dp416
sL287L
(dp417
sL288L
(dp418
sL289L
(dp419
sL290L
(dp420
g370
L321L
ssL291L
(dp421
sL292L
(dp422
sL293L
(dp423
sL294L
(dp424
sL295L
(dp425
sL296L
(dp426
sL297L
(dp427
sL298L
(dp428
g387
L327L
ssL299L
(dp429
g389
L328L
ssL300L
(dp430
sL301L
(dp431
sL302L
(dp432
sL303L
(dp433
sL304L
(dp434
sL305L
(dp435
sL306L
(dp436
sL307L
(dp437
sL308L
(dp438
g41
L80L
sVnewline_list
p439
L333L
sVcompound_list
p440
L334L
ssL309L
(dp441
g274
L335L
ssL310L
(dp442
g278
L336L
ssL311L
(dp443
g280
L337L
ssL312L
(dp444
sL313L
(dp445
g41
L80L
sg42
L81L
sg354
L339L
ssL314L
(dp446
sL315L
(dp447
sL316L
(dp448
sL317L
(dp449
Vnewline_list
p450
L340L
ssL318L
(dp451
Vnewline_list
p452
L341L
ssL319L
(dp453
Vnewline_list
p454
L342L
ssL320L
(dp455
sL321L
(dp456
sL322L
(dp457
sL323L
(dp458
sL324L
(dp459
sL325L
(dp460
sL326L
(dp461
sL327L
(dp462
sL328L
(dp463
sL329L
(dp464
g41
L80L
sVnewline_list
p465
L81L
sVcompound_list
p466
L349L
ssL330L
(dp467
g41
L80L
sg392
L81L
sVcompound_list
p468
L350L
ssL331L
(dp469
g41
L80L
sVnewline_list
p470
L351L
sVcompound_list
p471
L352L
ssL332L
(dp472
sL333L
(dp473
g2
L44L
sg3
L28L
sg8
L2L
sg128
L146L
sg7
L45L
sg4
L30L
sg9
L32L
sg11
L49L
sg12
L21L
sg14
L16L
sg15
L35L
sg16
L20L
sg17
L51L
sg18
L38L
sg19
L25L
sg20
L40L
sg129
L148L
sg22
L42L
sg5
L13L
sg24
L33L
sg130
L149L
sg25
L43L
ssL334L
(dp474
sL335L
(dp475
g2
L44L
sg3
L28L
sg8
L2L
sg16
L20L
sg14
L16L
sg22
L42L
sg18
L38L
sg7
L45L
sg5
L13L
sg20
L40L
sg335
L275L
sg4
L30L
sg9
L32L
sg128
L146L
sg24
L33L
sg25
L43L
sg11
L49L
sg19
L25L
sg12
L21L
sg15
L35L
sg17
L51L
ssL336L
(dp476
g2
L44L
sg3
L28L
sg8
L2L
sg16
L20L
sg14
L16L
sg22
L42L
sg18
L38L
sg7
L45L
sg5
L13L
sg20
L40L
sg339
L277L
sg4
L30L
sg9
L32L
sg128
L146L
sg24
L33L
sg25
L43L
sg11
L49L
sg19
L25L
sg12
L21L
sg15
L35L
sg17
L51L
ssL337L
(dp477
g2
L44L
sg3
L28L
sg8
L2L
sg16
L20L
sg14
L16L
sg22
L42L
sg18
L38L
sg7
L45L
sg5
L13L
sg20
L40L
sg341
L278L
sg4
L30L
sg9
L32L
sg128
L146L
sg24
L33L
sg25
L43L
sg11
L49L
sg19
L25L
sg12
L21L
sg15
L35L
sg17
L51L
ssL338L
(dp478
Vassignment_on
p479
L353L
ssL339L
(dp480
Velif_clause
p481
L354L
ssL340L
(dp482
g2
L44L
sg3
L28L
sg8
L2L
sg16
L20L
sg14
L16L
sg22
L42L
sg18
L38L
sg7
L45L
sg5
L13L
sg20
L40L
sg366
L275L
sg4
L30L
sg9
L32L
sg128
L146L
sg24
L33L
sg25
L43L
sg11
L49L
sg19
L25L
sg12
L21L
sg15
L35L
sg17
L51L
ssL341L
(dp483
g2
L44L
sg3
L28L
sg8
L2L
sg16
L20L
sg14
L16L
sg22
L42L
sg18
L38L
sg7
L45L
sg5
L13L
sg20
L40L
sVlist1
p484
L277L
sg4
L30L
sg9
L32L
sg128
L146L
sg24
L33L
sg25
L43L
sg11
L49L
sg19
L25L
sg12
L21L
sg15
L35L
sg17
L51L
ssL342L
(dp485
g2
L44L
sg3
L28L
sg8
L2L
sg16
L20L
sg14
L16L
sg22
L42L
sg18
L38L
sg7
L45L
sg5
L13L
sg20
L40L
sVlist1
p486
L278L
sg4
L30L
sg9
L32L
sg128
L146L
sg24
L33L
sg25
L43L
sg11
L49L
sg19
L25L
sg12
L21L
sg15
L35L
sg17
L51L
ssL343L
(dp487
Vlist
p488
L356L
sVnewline_list
p489
L249L
ssL344L
(dp490
Vlist
p491
L357L
sg370
L249L
ssL345L
(dp492
g41
L80L
sVnewline_list
p493
L81L
sVcompound_list
p494
L358L
ssL346L
(dp495
g41
L80L
sg387
L81L
sVcompound_list
p496
L359L
ssL347L
(dp497
g41
L80L
sVnewline_list
p498
L81L
sVcompound_list
p499
L360L
ssL348L
(dp500
g41
L80L
sg389
L81L
sVcompound_list
p501
L361L
ssL349L
(dp502
sL350L
(dp503
sL351L
(dp504
g2
L44L
sg3
L28L
sg8
L2L
sg128
L146L
sg7
L45L
sg4
L30L
sg9
L32L
sg11
L49L
sg12
L21L
sg14
L16L
sg15
L35L
sg16
L20L
sg17
L51L
sg18
L38L
sg19
L25L
sg20
L40L
sg129
L148L
sg22
L42L
sg5
L13L
sg24
L33L
sg130
L149L
sg25
L43L
ssL352L
(dp505
sL353L
(dp506
sL354L
(dp507
sL355L
(dp508
g41
L80L
sg42
L81L
sVcompound_list
p509
L364L
ssL356L
(dp510
sL357L
(dp511
sL358L
(dp512
sL359L
(dp513
sL360L
(dp514
sL361L
(dp515
sL362L
(dp516
sL363L
(dp517
sL364L
(dp518
sL365L
(dp519
sL366L
(dp520
sL367L
(dp521
sL368L
(dp522
sL369L
(dp523
sL370L
(dp524
s.(lp0
(VS' -> inputunit_list
p1
VS'
p2
L1L
NNNtp3
a(Vinputunit_list -> inputunit
p4
Vinputunit_list
p5
L1L
Vp_inputunit_list
p6
Vbash.py
p7
L102L
tp8
a(Vinputunit_list -> inputunit_list inputunit
p9
g5
L2L
g6
Vbash.py
p10
L103L
tp11
a(Vinputunit -> simple_list simple_list_terminator
p12
Vinputunit
p13
L2L
Vp_inputunit
p14
Vbash.py
p15
L111L
tp16
a(Vinputunit -> NEWLINE
p17
g13
L1L
g14
Vbash.py
p18
L112L
tp19
a(Vword_list -> WORD
p20
Vword_list
p21
L1L
Vp_word_list_word
p22
Vbash.py
p23
L120L
tp24
a(Vword_list -> word_list newline_list WORD
p25
Vword_list
p26
L3L
Vp_word_list_list
p27
Vbash.py
p28
L128L
tp29
a(Vredirection -> > WORD
p30
Vredirection
p31
L2L
Vp_redirection
p32
Vbash.py
p33
L136L
tp34
a(Vredirection -> < WORD
p35
g31
L2L
g32
Vbash.py
p36
L137L
tp37
a(Vredirection -> NUMBER > WORD
p38
g31
L3L
g32
Vbash.py
p39
L138L
tp40
a(Vredirection -> NUMBER < WORD
p41
g31
L3L
g32
Vbash.py
p42
L139L
tp43
a(Vredirection -> REDIR_WORD > WORD
p44
g31
L3L
g32
Vbash.py
p45
L140L
tp46
a(Vredirection -> REDIR_WORD < WORD
p47
g31
L3L
g32
Vbash.py
p48
L141L
tp49
a(Vredirection -> GREATER_GREATER WORD
p50
g31
L2L
g32
Vbash.py
p51
L142L
tp52
a(Vredirection -> NUMBER GREATER_GREATER WORD
p53
g31
L3L
g32
Vbash.py
p54
L143L
tp55
a(Vredirection -> REDIR_WORD GREATER_GREATER WORD
p56
g31
L3L
g32
Vbash.py
p57
L144L
tp58
a(Vredirection -> GREATER_BAR WORD
p59
g31
L2L
g32
Vbash.py
p60
L145L
tp61
a(Vredirection -> NUMBER GREATER_BAR WORD
p62
g31
L3L
g32
Vbash.py
p63
L146L
tp64
a(Vredirection -> REDIR_WORD GREATER_BAR WORD
p65
g31
L3L
g32
Vbash.py
p66
L147L
tp67
a(Vredirection -> LESS_GREATER WORD
p68
g31
L2L
g32
Vbash.py
p69
L148L
tp70
a(Vredirection -> NUMBER LESS_GREATER WORD
p71
g31
L3L
g32
Vbash.py
p72
L149L
tp73
a(Vredirection -> REDIR_WORD LESS_GREATER WORD
p74
g31
L3L
g32
Vbash.py
p75
L150L
tp76
a(Vredirection -> LESS_LESS WORD
p77
g31
L2L
g32
Vbash.py
p78
L151L
tp79
a(Vredirection -> NUMBER LESS_LESS WORD
p80
g31
L3L
g32
Vbash.py
p81
L152L
tp82
a(Vredirection -> REDIR_WORD LESS_LESS WORD
p83
g31
L3L
g32
Vbash.py
p84
L153L
tp85
a(Vredirection -> LESS_LESS_MINUS WORD
p86
g31
L2L
g32
Vbash.py
p87
L154L
tp88
a(Vredirection -> NUMBER LESS_LESS_MINUS WORD
p89
g31
L3L
g32
Vbash.py
p90
L155L
tp91
a(Vredirection -> REDIR_WORD LESS_LESS_MINUS WORD
p92
g31
L3L
g32
Vbash.py
p93
L156L
tp94
a(Vredirection -> LESS_LESS_LESS WORD
p95
g31
L2L
g32
Vbash.py
p96
L157L
tp97
a(Vredirection -> NUMBER LESS_LESS_LESS WORD
p98
g31
L3L
g32
Vbash.py
p99
L158L
tp100
a(Vredirection -> REDIR_WORD LESS_LESS_LESS WORD
p101
g31
L3L
g32
Vbash.py
p102
L159L
tp103
a(Vredirection -> LESS_AND NUMBER
p104
g31
L2L
g32
Vbash.py
p105
L160L
tp106
a(Vredirection -> NUMBER LESS_AND NUMBER
p107
g31
L3L
g32
Vbash.py
p108
L161L
tp109
a(Vredirection -> REDIR_WORD LESS_AND NUMBER
p110
g31
L3L
g32
Vbash.py
p111
L162L
tp112
a(Vredirection -> GREATER_AND NUMBER
p113
g31
L2L
g32
Vbash.py
p114
L163L
tp115
a(Vredirection -> NUMBER GREATER_AND NUMBER
p116
g31
L3L
g32
Vbash.py
p117
L164L
tp118
a(Vredirection -> REDIR_WORD GREATER_AND NUMBER
p119
g31
L3L
g32
Vbash.py
p120
L165L
tp121
a(Vredirection -> LESS_AND WORD
p122
g31
L2L
g32
Vbash.py
p123
L166L
tp124
a(Vredirection -> NUMBER LESS_AND WORD
p125
g31
L3L
g32
Vbash.py
p126
L167L
tp127
a(Vredirection -> REDIR_WORD LESS_AND WORD
p128
g31
L3L
g32
Vbash.py
p129
L168L
tp130
a(Vredirection -> GREATER_AND WORD
p131
g31
L2L
g32
Vbash.py
p132
L169L
tp133
a(Vredirection -> NUMBER GREATER_AND WORD
p134
g31
L3L
g32
Vbash.py
p135
L170L
tp136
a(Vredirection -> REDIR_WORD GREATER_AND WORD
p137
g31
L3L
g32
Vbash.py
p138
L171L
tp139
a(Vredirection -> GREATER_AND -
p140
g31
L2L
g32
Vbash.py
p141
L172L
tp142
a(Vredirection -> NUMBER GREATER_AND -
p143
g31
L3L
g32
Vbash.py
p144
L173L
tp145
a(Vredirection -> REDIR_WORD GREATER_AND -
p146
g31
L3L
g32
Vbash.py
p147
L174L
tp148
a(Vredirection -> LESS_AND -
p149
g31
L2L
g32
Vbash.py
p150
L175L
tp151
a(Vredirection -> NUMBER LESS_AND -
p152
g31
L3L
g32
Vbash.py
p153
L176L
tp154
a(Vredirection -> REDIR_WORD LESS_AND -
p155
g31
L3L
g32
Vbash.py
p156
L177L
tp157
a(Vredirection -> AND_GREATER WORD
p158
g31
L2L
g32
Vbash.py
p159
L178L
tp160
a(Vredirection -> AND_GREATER_GREATER WORD
p161
g31
L2L
g32
Vbash.py
p162
L179L
tp163
a(Vsimple_command_element -> WORD
p164
Vsimple_command_element
p165
L1L
Vp_simple_command_element_word
p166
Vbash.py
p167
L187L
tp168
a(Vsimple_command_element -> assignment_word
p169
Vsimple_command_element
p170
L1L
Vp_simple_command_element_assignment
p171
Vbash.py
p172
L195L
tp173
a(Vsimple_command_element -> redirection
p174
Vsimple_command_element
p175
L1L
Vp_simple_command_element_redirection
p176
Vbash.py
p177
L203L
tp178
a(Vredirection_list -> redirection
p179
Vredirection_list
p180
L1L
Vp_redirection_list
p181
Vbash.py
p182
L211L
tp183
a(Vredirection_list -> redirection_list redirection
p184
g180
L2L
g181
Vbash.py
p185
L212L
tp186
a(Vsimple_command -> simple_command_element
p187
Vsimple_command
p188
L1L
Vp_simple_command
p189
Vbash.py
p190
L220L
tp191
a(Vsimple_command -> simple_command curly_off simple_command_element
p192
g188
L3L
g189
Vbash.py
p193
L221L
tp194
a(Vcommand -> simple_command curly_on
p195
Vcommand
p196
L2L
Vp_command
p197
Vbash.py
p198
L229L
tp199
a(Vcommand -> shell_command
p200
g196
L1L
g197
Vbash.py
p201
L230L
tp202
a(Vcommand -> shell_command redirection_list
p203
g196
L2L
g197
Vbash.py
p204
L231L
tp205
a(Vcommand -> function_def
p206
g196
L1L
g197
Vbash.py
p207
L232L
tp208
a(Vcommand -> coproc
p209
g196
L1L
g197
Vbash.py
p210
L233L
tp211
a(Vshell_command -> for_command
p212
Vshell_command
p213
L1L
Vp_shell_commend
p214
Vbash.py
p215
L243L
tp216
a(Vshell_command -> case_command
p217
g213
L1L
g214
Vbash.py
p218
L244L
tp219
a(Vshell_command -> WHILE compound_list DO compound_list DONE
p220
g213
L5L
g214
Vbash.py
p221
L245L
tp222
a(Vshell_command -> UNTIL compound_list DO compound_list DONE
p223
g213
L5L
g214
Vbash.py
p224
L246L
tp225
a(Vshell_command -> select_command
p226
g213
L1L
g214
Vbash.py
p227
L247L
tp228
a(Vshell_command -> if_command
p229
g213
L1L
g214
Vbash.py
p230
L248L
tp231
a(Vshell_command -> subshell
p232
g213
L1L
g214
Vbash.py
p233
L249L
tp234
a(Vshell_command -> group_command
p235
g213
L1L
g214
Vbash.py
p236
L250L
tp237
a(Vshell_command -> arith_command
p238
g213
L1L
g214
Vbash.py
p239
L251L
tp240
a(Vshell_command -> cond_command
p241
g213
L1L
g214
Vbash.py
p242
L252L
tp243
a(Vshell_command -> arith_for_command
p244
g213
L1L
g214
Vbash.py
p245
L253L
tp246
a(Vfor_command -> FOR WORD newline_list DO compound_list DONE
p247
Vfor_command
p248
L6L
Vp_for_command
p249
Vbash.py
p250
L261L
tp251
a(Vfor_command -> FOR WORD newline_list LBRACE compound_list }
p252
g248
L6L
g249
Vbash.py
p253
L262L
tp254
a(Vfor_command -> FOR WORD ; newline_list DO compound_list DONE
p255
g248
L7L
g249
Vbash.py
p256
L263L
tp257
a(Vfor_command -> FOR WORD ; newline_list LBRACE compound_list }
p258
g248
L7L
g249
Vbash.py
p259
L264L
tp260
a(Vfor_command -> FOR WORD newline_list IN word_list list_terminator newline_list DO compound_list DONE
p261
g248
L10L
g249
Vbash.py
p262
L265L
tp263
a(Vfor_command -> FOR WORD newline_list IN word_list list_terminator newline_list LBRACE compound_list }
p264
g248
L10L
g249
Vbash.py
p265
L266L
tp266
a(Vfor_command -> FOR WORD newline_list IN number_list list_terminator newline_list DO compound_list DONE
p267
g248
L10L
g249
Vbash.py
p268
L267L
tp269
a(Vfor_command -> FOR WORD newline_list IN number_list list_terminator newline_list LBRACE compound_list }
p270
g248
L10L
g249
Vbash.py
p271
L268L
tp272
a(Vfor_command -> FOR WORD newline_list IN list_terminator newline_list DO compound_list DONE
p273
g248
L9L
g249
Vbash.py
p274
L269L
tp275
a(Vfor_command -> FOR WORD newline_list IN list_terminator newline_list LBRACE compound_list }
p276
g248
L9L
g249
Vbash.py
p277
L270L
tp278
a(Varith_for_command -> FOR ARITH_FOR_EXPRS list_terminator newline_list DO compound_list DONE
p279
Varith_for_command
p280
L7L
Vp_arith_for_command
p281
Vbash.py
p282
L278L
tp283
a(Varith_for_command -> FOR ARITH_FOR_EXPRS list_terminator newline_list LBRACE compound_list }
p284
g280
L7L
g281
Vbash.py
p285
L279L
tp286
a(Varith_for_command -> FOR ARITH_FOR_EXPRS DO compound_list DONE
p287
g280
L5L
g281
Vbash.py
p288
L280L
tp289
a(Varith_for_command -> FOR ARITH_FOR_EXPRS LBRACE compound_list }
p290
g280
L5L
g281
Vbash.py
p291
L281L
tp292
a(Vselect_command -> SELECT WORD newline_list DO list DONE
p293
Vselect_command
p294
L6L
Vp_select_command
p295
Vbash.py
p296
L289L
tp297
a(Vselect_command -> SELECT WORD newline_list LBRACE list }
p298
g294
L6L
g295
Vbash.py
p299
L290L
tp300
a(Vselect_command -> SELECT WORD ; newline_list DO list DONE
p301
g294
L7L
g295
Vbash.py
p302
L291L
tp303
a(Vselect_command -> SELECT WORD ; newline_list LBRACE list }
p304
g294
L7L
g295
Vbash.py
p305
L292L
tp306
a(Vselect_command -> SELECT WORD newline_list IN word_list list_terminator newline_list DO list DONE
p307
g294
L10L
g295
Vbash.py
p308
L293L
tp309
a(Vselect_command -> SELECT WORD newline_list IN word_list list_terminator newline_list LBRACE list }
p310
g294
L10L
g295
Vbash.py
p311
L294L
tp312
a(Vcase_command -> CASE WORD newline_list IN newline_list ESAC
p313
Vcase_command
p314
L6L
Vp_case_command
p315
Vbash.py
p316
L302L
tp317
a(Vcase_command -> CASE WORD newline_list IN case_clause_sequence newline_list ESAC
p318
g314
L7L
g315
Vbash.py
p319
L303L
tp320
a(Vcase_command -> CASE WORD newline_list IN case_clause ESAC
p321
g314
L6L
g315
Vbash.py
p322
L304L
tp323
a(Vfunction_def -> WORD ( ) newline_list function_body
p324
Vfunction_def
p325
L5L
Vp_function_def_without_keyword
p326
Vbash.py
p327
L312L
tp328
a(Vfunction_def -> FUNCTION WORD ( ) newline_list function_body
p329
Vfunction_def
p330
L6L
Vp_function_def_with_keyword_and_parens
p331
Vbash.py
p332
L320L
tp333
a(Vfunction_def -> FUNCTION WORD newline_list function_body
p334
Vfunction_def
p335
L4L
Vp_function_def
p336
Vbash.py
p337
L328L
tp338
a(Vfunction_body -> shell_command
p339
Vfunction_body
p340
L1L
Vp_function_body
p341
Vbash.py
p342
L336L
tp343
a(Vfunction_body -> shell_command redirection_list
p344
g340
L2L
g341
Vbash.py
p345
L337L
tp346
a(Vsubshell -> ( compound_list )
p347
Vsubshell
p348
L3L
Vp_subshell
p349
Vbash.py
p350
L345L
tp351
a(Vcoproc -> COPROC shell_command
p352
Vcoproc
p353
L2L
Vp_coproc
p354
Vbash.py
p355
L351L
tp356
a(Vcoproc -> COPROC shell_command redirection_list
p357
g353
L3L
g354
Vbash.py
p358
L352L
tp359
a(Vcoproc -> COPROC WORD shell_command
p360
g353
L3L
g354
Vbash.py
p361
L353L
tp362
a(Vcoproc -> COPROC WORD shell_command redirection_list
p363
g353
L4L
g354
Vbash.py
p364
L354L
tp365
a(Vcoproc -> COPROC simple_command
p366
g353
L2L
g354
Vbash.py
p367
L355L
tp368
a(Vif_command -> IF compound_list THEN compound_list FI
p369
Vif_command
p370
L5L
Vp_if_command
p371
Vbash.py
p372
L363L
tp373
a(Vif_command -> IF compound_list THEN compound_list ELSE compound_list FI
p374
g370
L7L
g371
Vbash.py
p375
L364L
tp376
a(Vif_command -> IF compound_list THEN compound_list elif_clause FI
p377
g370
L6L
g371
Vbash.py
p378
L365L
tp379
a(Vgroup_command -> LBRACE compound_list }
p380
Vgroup_command
p381
L3L
Vp_group_command
p382
Vbash.py
p383
L373L
tp384
a(Varith_command -> ARITH_CMD
p385
Varith_command
p386
L1L
Vp_arith_command
p387
Vbash.py
p388
L379L
tp389
a(Vcond_command -> COND_START COND_CMD COND_END
p390
Vcond_command
p391
L3L
Vp_cond_command
p392
Vbash.py
p393
L385L
tp394
a(Velif_clause -> ELIF compound_list THEN compound_list
p395
Velif_clause
p396
L4L
Vp_elif_clause
p397
Vbash.py
p398
L391L
tp399
a(Velif_clause -> ELIF compound_list THEN compound_list ELSE compound_list
p400
g396
L6L
g397
Vbash.py
p401
L392L
tp402
a(Velif_clause -> ELIF compound_list THEN compound_list elif_clause
p403
g396
L5L
g397
Vbash.py
p404
L393L
tp405
a(Vcase_clause -> pattern_list
p406
Vcase_clause
p407
L1L
Vp_case_clause
p408
Vbash.py
p409
L401L
tp410
a(Vcase_clause -> case_clause_sequence pattern_list
p411
g407
L2L
g408
Vbash.py
p412
L402L
tp413
a(Vpattern_list -> newline_list pattern ) compound_list
p414
Vpattern_list
p415
L4L
Vp_pattern_list
p416
Vbash.py
p417
L410L
tp418
a(Vpattern_list -> newline_list pattern ) newline_list
p419
g415
L4L
g416
Vbash.py
p420
L411L
tp421
a(Vpattern_list -> newline_list ( pattern ) compound_list
p422
g415
L5L
g416
Vbash.py
p423
L412L
tp424
a(Vpattern_list -> newline_list ( pattern ) newline_list
p425
g415
L5L
g416
Vbash.py
p426
L413L
tp427
a(Vcase_clause_sequence -> pattern_list SEMI_SEMI
p428
Vcase_clause_sequence
p429
L2L
Vp_case_clause_sequence
p430
Vbash.py
p431
L421L
tp432
a(Vcase_clause_sequence -> case_clause_sequence pattern_list SEMI_SEMI
p433
g429
L3L
g430
Vbash.py
p434
L422L
tp435
a(Vcase_clause_sequence -> pattern_list SEMI_AND
p436
g429
L2L
g430
Vbash.py
p437
L423L
tp438
a(Vcase_clause_sequence -> case_clause_sequence pattern_list SEMI_AND
p439
g429
L3L
g430
Vbash.py
p440
L424L
tp441
a(Vcase_clause_sequence -> pattern_list SEMI_SEMI_AND
p442
g429
L2L
g430
Vbash.py
p443
L425L
tp444
a(Vcase_clause_sequence -> case_clause_sequence pattern_list SEMI_SEMI_AND
p445
g429
L3L
g430
Vbash.py
p446
L426L
tp447
a(Vpattern -> WORD
p448
Vpattern
p449
L1L
Vp_pattern
p450
Vbash.py
p451
L434L
tp452
a(Vpattern -> pattern | WORD
p453
g449
L3L
g450
Vbash.py
p454
L435L
tp455
a(Vlist -> newline_list list0
p456
Vlist
p457
L2L
Vp_list
p458
Vbash.py
p459
L443L
tp460
a(Vcompound_list -> list
p461
Vcompound_list
p462
L1L
Vp_compound_list
p463
Vbash.py
p464
L449L
tp465
a(Vcompound_list -> newline_list list1
p466
g462
L2L
g463
Vbash.py
p467
L450L
tp468
a(Vlist0 -> list1 NEWLINE newline_list
p469
Vlist0
p470
L3L
Vp_list0
p471
Vbash.py
p472
L458L
tp473
a(Vlist0 -> list1 & newline_list
p474
g470
L3L
g471
Vbash.py
p475
L459L
tp476
a(Vlist0 -> list1 ; newline_list
p477
g470
L3L
g471
Vbash.py
p478
L460L
tp479
a(Vlist1 -> list1 AND_AND newline_list list1
p480
Vlist1
p481
L4L
Vp_list1
p482
Vbash.py
p483
L468L
tp484
a(Vlist1 -> list1 OR_OR newline_list list1
p485
g481
L4L
g482
Vbash.py
p486
L469L
tp487
a(Vlist1 -> list1 & newline_list list1
p488
g481
L4L
g482
Vbash.py
p489
L470L
tp490
a(Vlist1 -> list1 ; newline_list list1
p491
g481
L4L
g482
Vbash.py
p492
L471L
tp493
a(Vlist1 -> list1 NEWLINE newline_list list1
p494
g481
L4L
g482
Vbash.py
p495
L472L
tp496
a(Vlist1 -> pipeline_command
p497
g481
L1L
g482
Vbash.py
p498
L473L
tp499
a(Vsimple_list_terminator -> NEWLINE
p500
Vsimple_list_terminator
p501
L1L
Vp_simple_list_terminator
p502
Vbash.py
p503
L481L
tp504
a(Vlist_terminator -> NEWLINE
p505
Vlist_terminator
p506
L1L
Vp_list_terminator
p507
Vbash.py
p508
L487L
tp509
a(Vlist_terminator -> ;
p510
g506
L1L
g507
Vbash.py
p511
L488L
tp512
a(Vnewline_list -> <empty>
p513
Vnewline_list
p514
L0L
Vp_newline_list
p515
Vbash.py
p516
L496L
tp517
a(Vnewline_list -> newline_list NEWLINE
p518
g514
L2L
g515
Vbash.py
p519
L497L
tp520
a(Vsimple_list -> simple_list1
p521
Vsimple_list
p522
L1L
Vp_simple_list
p523
Vbash.py
p524
L505L
tp525
a(Vsimple_list -> simple_list1 &
p526
g522
L2L
g523
Vbash.py
p527
L506L
tp528
a(Vsimple_list -> simple_list1 ;
p529
g522
L2L
g523
Vbash.py
p530
L507L
tp531
a(Vsimple_list1 -> simple_list1 AND_AND newline_list simple_list1
p532
Vsimple_list1
p533
L4L
Vp_simple_list1_list_with_newlines
p534
Vbash.py
p535
L517L
tp536
a(Vsimple_list1 -> simple_list1 OR_OR newline_list simple_list1
p537
g533
L4L
g534
Vbash.py
p538
L518L
tp539
a(Vsimple_list1 -> simple_list1 & simple_list1
p540
Vsimple_list1
p541
L3L
Vp_simple_list1_list
p542
Vbash.py
p543
L528L
tp544
a(Vsimple_list1 -> simple_list1 ; simple_list1
p545
g541
L3L
g542
Vbash.py
p546
L529L
tp547
a(Vsimple_list1 -> pipeline_command
p548
Vsimple_list1
p549
L1L
Vp_simple_list1_command
p550
Vbash.py
p551
L539L
tp552
a(Vpipeline_command -> pipeline
p553
Vpipeline_command
p554
L1L
Vp_pipeline_command_unmodified
p555
Vbash.py
p556
L547L
tp557
a(Vpipeline_command -> BANG pipeline_command
p558
Vpipeline_command
p559
L2L
Vp_pipeline_command_modified
p560
Vbash.py
p561
L555L
tp562
a(Vpipeline_command -> timespec pipeline_command
p563
g559
L2L
g560
Vbash.py
p564
L556L
tp565
a(Vpipeline_command -> timespec list_terminator
p566
g559
L2L
g560
Vbash.py
p567
L557L
tp568
a(Vpipeline_command -> BANG list_terminator
p569
g559
L2L
g560
Vbash.py
p570
L558L
tp571
a(Vpipeline -> pipeline | newline_list pipeline
p572
Vpipeline
p573
L4L
Vp_pipeline_with_pipe
p574
Vbash.py
p575
L568L
tp576
a(Vpipeline -> pipeline BAR_AND newline_list pipeline
p577
g573
L4L
g574
Vbash.py
p578
L569L
tp579
a(Vpipeline -> command
p580
Vpipeline
p581
L1L
Vp_pipeline_with_command
p582
Vbash.py
p583
L579L
tp584
a(Vtimespec -> TIME
p585
Vtimespec
p586
L1L
Vp_timespec
p587
Vbash.py
p588
L587L
tp589
a(Vtimespec -> TIME TIMEOPT
p590
g586
L2L
g587
Vbash.py
p591
L588L
tp592
a(Vtimespec -> TIME TIMEOPT TIMEIGN
p593
g586
L3L
g587
Vbash.py
p594
L589L
tp595
a(Vnumber_list -> NUMBER
p596
Vnumber_list
p597
L1L
Vp_number_list_number
p598
Vbash.py
p599
L601L
tp600
a(Vnumber_list -> number_list newline_list NUMBER
p601
Vnumber_list
p602
L3L
Vp_number_list_list
p603
Vbash.py
p604
L609L
tp605
a(Vassignment_word -> WORD = assignment_off ( newline_list word_list newline_list ) assignment_on
p606
Vassignment_word
p607
L9L
Vp_assignment_word_array
p608
Vbash.py
p609
L617L
tp610
a(Vassignment_word -> WORD = NUMBER
p611
Vassignment_word
p612
L3L
Vp_assignment_word_number
p613
Vbash.py
p614
L630L
tp615
a(Vassignment_word -> WORD = assignment_off WORD assignment_on
p616
Vassignment_word
p617
L5L
Vp_assignment_word_word
p618
Vbash.py
p619
L643L
tp620
a(Vassignment_off -> <empty>
p621
Vassignment_off
p622
L0L
Vp_assignment_off
p623
Vbash.py
p624
L662L
tp625
a(Vassignment_on -> <empty>
p626
Vassignment_on
p627
L0L
Vp_assignment_on
p628
Vbash.py
p629
L667L
tp630
a(Vsimple_command_element -> NUMBER
p631
Vsimple_command_element
p632
L1L
Vp_simple_command_element_number
p633
Vbash.py
p634
L672L
tp635
a(Vcurly_off -> <empty>
p636
Vcurly_off
p637
L0L
Vp_curly_off
p638
Vbash.py
p639
L680L
tp640
a(Vcurly_on -> <empty>
p641
Vcurly_on
p642
L0L
Vp_curly_on
p643
Vbash.py
p644
L685L
tp645
a.