Certificate:
    Data:
        Version: 3 (0x2)
        Serial Number: 268435639 (0x100000b7)
    Signature Algorithm: sha1WithRSAEncryption
        Issuer: C=DE, ST=Hessen, O=privacyidea, CN=CA001
        Validity
            Not Before: Oct  5 15:33:27 2015 GMT
            Not After : Oct  4 15:33:27 2016 GMT
        Subject: C=DE, ST=Hessen, O=privacyidea, CN=requester.localdomain
        Subject Public Key Info:
            Public Key Algorithm: rsaEncryption
                Public-Key: (2048 bit)
                Modulus:
                    00:cd:be:14:4f:fa:ce:01:3f:42:22:1b:1d:9c:af:
                    dd:92:d2:7f:db:6c:b7:3e:39:43:43:6b:13:03:f1:
                    05:f4:07:74:bc:76:69:28:0b:af:19:8e:d7:fc:e3:
                    cd:c6:58:f2:ca:7f:08:6d:53:fc:07:02:44:24:c6:
                    b4:34:4c:8c:04:fe:33:0e:40:e2:20:ba:02:73:5a:
                    f7:f5:4f:63:6e:cc:c6:b6:df:54:1d:37:39:7d:51:
                    36:26:5f:bd:dc:3f:a8:8b:6b:a2:ae:b6:9d:d6:21:
                    e7:df:41:b8:7a:28:2a:68:48:ca:a8:2d:ed:e1:e9:
                    46:5e:5a:72:6d:b4:84:38:87:91:fd:94:11:0b:28:
                    84:c6:c2:2f:2a:fb:01:f9:36:7a:09:75:d1:33:88:
                    3c:73:41:5b:c8:bf:94:89:70:a1:f0:c0:b9:2e:50:
                    53:1e:b1:17:64:69:f4:2d:81:e0:a9:0d:0e:32:e9:
                    ba:55:8a:85:f1:1b:6f:49:79:b4:7f:88:c3:0d:3e:
                    54:88:9b:3d:1f:38:8c:04:f3:ee:6a:63:2b:f5:c6:
                    db:b4:83:aa:c4:78:41:3a:7d:4b:e1:c8:3e:71:ca:
                    1b:61:59:ea:c6:c4:ca:32:5e:c9:e9:bf:12:29:e6:
                    c6:c3:63:fe:a0:55:da:7a:f1:60:98:4d:26:ed:fa:
                    70:2d
                Exponent: 65537 (0x10001)
        X509v3 extensions:
            X509v3 Key Usage: 
                Digital Signature, Key Encipherment
            X509v3 Basic Constraints: 
                CA:FALSE
            Netscape Cert Type: 
                SSL Server
            Netscape Comment: 
                OpenSSL Generated Server Certificate
            X509v3 Subject Key Identifier: 
                53:3F:ED:5D:09:07:B3:65:7B:AB:45:C9:24:5B:09:77:80:0A:96:ED
            X509v3 Authority Key Identifier: 
                keyid:F4:A7:C0:CC:91:46:AF:64:F3:91:F2:27:F8:C8:B2:6F:8A:87:32:73
                DirName:/C=DE/ST=Hessen/O=privacyidea/CN=CA001
                serial:FB:C8:EB:AC:83:CD:12:07

            X509v3 Extended Key Usage: 
                TLS Web Server Authentication
    Signature Algorithm: sha1WithRSAEncryption
         31:6a:7e:b8:b3:75:93:9c:ab:ce:9d:5d:c2:3a:ce:c8:08:64:
         a9:ec:ef:fc:85:b9:21:48:85:25:bd:d9:9c:af:8f:b4:84:f7:
         64:73:22:f7:c3:b8:e9:1e:0f:1f:04:f2:cc:64:09:11:a1:26:
         e2:6c:f8:72:3f:6f:25:99:3a:aa:c9:5a:31:34:f0:99:83:ea:
         21:80:1f:93:6e:3e:53:cf:f9:5e:8a:8b:68:ac:07:1c:e5:ef:
         e7:e6:1b:a8:6d:2f:6f:48:30:f8:f3:5a:4d:79:92:20:6b:35:
         ea:af:9a:37:29:15:ee:5b:0a:35:9e:eb:52:f0:41:d6:82:c9:
         0e:1e:55:d9:99:ac:c7:26:90:64:d7:bb:ed:18:50:57:39:ae:
         34:52:a6:3a:11:4a:17:32:d8:80:47:b3:39:6f:a5:8c:dd:29:
         05:3a:e9:0d:e9:26:17:08:b0:26:f0:f0:99:91:16:95:2d:fb:
         b9:56:a1:b2:b7:bf:81:91:19:cd:84:97:d6:48:9b:37:5d:17:
         48:c3:6a:1d:96:e9:22:00:cb:4b:b0:ac:15:e6:bd:79:be:2e:
         4c:35:db:37:38:6e:27:6a:2d:e2:0c:a0:66:6b:af:c0:85:fc:
         de:78:00:c6:5f:1b:e1:51:a0:31:86:2c:2d:62:fd:52:32:06:
         95:ec:b7:22
-----BEGIN CERTIFICATE-----
MIIEJjCCAw6gAwIBAgIEEAAAtzANBgkqhkiG9w0BAQUFADBEMQswCQYDVQQGEwJE
RTEPMA0GA1UECAwGSGVzc2VuMRQwEgYDVQQKDAtwcml2YWN5aWRlYTEOMAwGA1UE
AwwFQ0EwMDEwHhcNMTUxMDA1MTUzMzI3WhcNMTYxMDA0MTUzMzI3WjBUMQswCQYD
VQQGEwJERTEPMA0GA1UECAwGSGVzc2VuMRQwEgYDVQQKDAtwcml2YWN5aWRlYTEe
MBwGA1UEAwwVcmVxdWVzdGVyLmxvY2FsZG9tYWluMIIBIjANBgkqhkiG9w0BAQEF
AAOCAQ8AMIIBCgKCAQEAzb4UT/rOAT9CIhsdnK/dktJ/22y3PjlDQ2sTA/EF9Ad0
vHZpKAuvGY7X/OPNxljyyn8IbVP8BwJEJMa0NEyMBP4zDkDiILoCc1r39U9jbszG
tt9UHTc5fVE2Jl+93D+oi2uirrad1iHn30G4eigqaEjKqC3t4elGXlpybbSEOIeR
/ZQRCyiExsIvKvsB+TZ6CXXRM4g8c0FbyL+UiXCh8MC5LlBTHrEXZGn0LYHgqQ0O
Mum6VYqF8RtvSXm0f4jDDT5UiJs9HziMBPPuamMr9cbbtIOqxHhBOn1L4cg+ccob
YVnqxsTKMl7J6b8SKebGw2P+oFXaevFgmE0m7fpwLQIDAQABo4IBDjCCAQowCwYD
VR0PBAQDAgWgMAkGA1UdEwQCMAAwEQYJYIZIAYb4QgEBBAQDAgZAMDMGCWCGSAGG
+EIBDQQmFiRPcGVuU1NMIEdlbmVyYXRlZCBTZXJ2ZXIgQ2VydGlmaWNhdGUwHQYD
VR0OBBYEFFM/7V0JB7Nle6tFySRbCXeACpbtMHQGA1UdIwRtMGuAFPSnwMyRRq9k
85HyJ/jIsm+KhzJzoUikRjBEMQswCQYDVQQGEwJERTEPMA0GA1UECAwGSGVzc2Vu
MRQwEgYDVQQKDAtwcml2YWN5aWRlYTEOMAwGA1UEAwwFQ0EwMDGCCQD7yOusg80S
BzATBgNVHSUEDDAKBggrBgEFBQcDATANBgkqhkiG9w0BAQUFAAOCAQEAMWp+uLN1
k5yrzp1dwjrOyAhkqezv/IW5IUiFJb3ZnK+PtIT3ZHMi98O46R4PHwTyzGQJEaEm
4mz4cj9vJZk6qslaMTTwmYPqIYAfk24+U8/5XoqLaKwHHOXv5+YbqG0vb0gw+PNa
TXmSIGs16q+aNykV7lsKNZ7rUvBB1oLJDh5V2ZmsxyaQZNe77RhQVzmuNFKmOhFK
FzLYgEezOW+ljN0pBTrpDekmFwiwJvDwmZEWlS37uVahsre/gZEZzYSX1kibN10X
SMNqHZbpIgDLS7CsFea9eb4uTDXbNzhuJ2ot4gygZmuvwIX83ngAxl8b4VGgMYYs
LWL9UjIGley3Ig==
-----END CERTIFICATE-----
