Certificate:
    Data:
        Version: 3 (0x2)
        Serial Number: 268435657 (0x100000c9)
    Signature Algorithm: sha1WithRSAEncryption
        Issuer: C=DE, ST=Hessen, O=privacyidea, CN=CA001
        Validity
            Not Before: Sep 26 14:22:56 2015 GMT
            Not After : Sep 25 14:22:56 2016 GMT
        Subject: C=DE, ST=Hessen, O=privacyidea, CN=requester.localdomain
        Subject Public Key Info:
            Public Key Algorithm: rsaEncryption
                Public-Key: (2048 bit)
                Modulus:
                    00:cd:be:14:4f:fa:ce:01:3f:42:22:1b:1d:9c:af:
                    dd:92:d2:7f:db:6c:b7:3e:39:43:43:6b:13:03:f1:
                    05:f4:07:74:bc:76:69:28:0b:af:19:8e:d7:fc:e3:
                    cd:c6:58:f2:ca:7f:08:6d:53:fc:07:02:44:24:c6:
                    b4:34:4c:8c:04:fe:33:0e:40:e2:20:ba:02:73:5a:
                    f7:f5:4f:63:6e:cc:c6:b6:df:54:1d:37:39:7d:51:
                    36:26:5f:bd:dc:3f:a8:8b:6b:a2:ae:b6:9d:d6:21:
                    e7:df:41:b8:7a:28:2a:68:48:ca:a8:2d:ed:e1:e9:
                    46:5e:5a:72:6d:b4:84:38:87:91:fd:94:11:0b:28:
                    84:c6:c2:2f:2a:fb:01:f9:36:7a:09:75:d1:33:88:
                    3c:73:41:5b:c8:bf:94:89:70:a1:f0:c0:b9:2e:50:
                    53:1e:b1:17:64:69:f4:2d:81:e0:a9:0d:0e:32:e9:
                    ba:55:8a:85:f1:1b:6f:49:79:b4:7f:88:c3:0d:3e:
                    54:88:9b:3d:1f:38:8c:04:f3:ee:6a:63:2b:f5:c6:
                    db:b4:83:aa:c4:78:41:3a:7d:4b:e1:c8:3e:71:ca:
                    1b:61:59:ea:c6:c4:ca:32:5e:c9:e9:bf:12:29:e6:
                    c6:c3:63:fe:a0:55:da:7a:f1:60:98:4d:26:ed:fa:
                    70:2d
                Exponent: 65537 (0x10001)
        X509v3 extensions:
            X509v3 Key Usage: 
                Digital Signature, Key Encipherment
            X509v3 Basic Constraints: 
                CA:FALSE
            Netscape Cert Type: 
                SSL Server
            Netscape Comment: 
                OpenSSL Generated Server Certificate
            X509v3 Subject Key Identifier: 
                53:3F:ED:5D:09:07:B3:65:7B:AB:45:C9:24:5B:09:77:80:0A:96:ED
            X509v3 Authority Key Identifier: 
                keyid:F4:A7:C0:CC:91:46:AF:64:F3:91:F2:27:F8:C8:B2:6F:8A:87:32:73
                DirName:/C=DE/ST=Hessen/O=privacyidea/CN=CA001
                serial:FB:C8:EB:AC:83:CD:12:07

            X509v3 Extended Key Usage: 
                TLS Web Server Authentication
    Signature Algorithm: sha1WithRSAEncryption
         48:38:2b:ac:e4:c2:3d:f4:45:8f:cf:0a:e5:ac:92:41:81:e9:
         93:47:b5:57:a9:41:dd:5e:58:b5:eb:72:36:83:0d:da:72:64:
         7e:c2:e2:8e:84:89:61:c7:96:bf:ae:77:0a:2c:d5:ab:9a:00:
         5d:fc:09:4b:53:bb:4f:c8:60:d6:db:6a:0f:a4:e3:04:f3:45:
         80:bf:69:8b:e7:b1:c3:94:a4:21:74:3a:34:3e:09:72:6a:f0:
         0f:58:79:5b:fe:18:43:96:85:2f:fd:70:b7:ab:8f:23:6e:2f:
         4d:2d:0f:b9:5a:e5:ae:af:b3:4f:c1:cf:58:d9:a1:fd:c2:da:
         a8:bb:ee:fb:21:24:a6:ad:f1:b6:db:4b:88:dd:70:8f:3d:bb:
         f2:04:3d:e0:31:1b:cc:e1:9d:db:59:b1:3e:38:aa:cf:0c:74:
         bb:e5:ec:26:8b:77:b9:19:e6:cb:8f:a4:4b:03:20:50:bb:71:
         8e:76:b6:89:1b:4b:ec:53:f4:22:dd:b7:e6:d7:2d:bc:53:fc:
         6b:67:7b:7f:71:1a:36:e2:af:d3:92:53:97:ad:8a:1b:a9:2d:
         5b:b0:2f:1d:a7:26:0b:1b:be:a9:38:8e:2d:3b:b2:05:3b:a5:
         9f:a4:ce:d1:fa:a8:63:92:48:93:05:3c:f5:f4:65:b5:5b:9b:
         02:92:a2:ea
-----BEGIN CERTIFICATE-----
MIIEJjCCAw6gAwIBAgIEEAAAyTANBgkqhkiG9w0BAQUFADBEMQswCQYDVQQGEwJE
RTEPMA0GA1UECAwGSGVzc2VuMRQwEgYDVQQKDAtwcml2YWN5aWRlYTEOMAwGA1UE
AwwFQ0EwMDEwHhcNMTUwOTI2MTQyMjU2WhcNMTYwOTI1MTQyMjU2WjBUMQswCQYD
VQQGEwJERTEPMA0GA1UECAwGSGVzc2VuMRQwEgYDVQQKDAtwcml2YWN5aWRlYTEe
MBwGA1UEAwwVcmVxdWVzdGVyLmxvY2FsZG9tYWluMIIBIjANBgkqhkiG9w0BAQEF
AAOCAQ8AMIIBCgKCAQEAzb4UT/rOAT9CIhsdnK/dktJ/22y3PjlDQ2sTA/EF9Ad0
vHZpKAuvGY7X/OPNxljyyn8IbVP8BwJEJMa0NEyMBP4zDkDiILoCc1r39U9jbszG
tt9UHTc5fVE2Jl+93D+oi2uirrad1iHn30G4eigqaEjKqC3t4elGXlpybbSEOIeR
/ZQRCyiExsIvKvsB+TZ6CXXRM4g8c0FbyL+UiXCh8MC5LlBTHrEXZGn0LYHgqQ0O
Mum6VYqF8RtvSXm0f4jDDT5UiJs9HziMBPPuamMr9cbbtIOqxHhBOn1L4cg+ccob
YVnqxsTKMl7J6b8SKebGw2P+oFXaevFgmE0m7fpwLQIDAQABo4IBDjCCAQowCwYD
VR0PBAQDAgWgMAkGA1UdEwQCMAAwEQYJYIZIAYb4QgEBBAQDAgZAMDMGCWCGSAGG
+EIBDQQmFiRPcGVuU1NMIEdlbmVyYXRlZCBTZXJ2ZXIgQ2VydGlmaWNhdGUwHQYD
VR0OBBYEFFM/7V0JB7Nle6tFySRbCXeACpbtMHQGA1UdIwRtMGuAFPSnwMyRRq9k
85HyJ/jIsm+KhzJzoUikRjBEMQswCQYDVQQGEwJERTEPMA0GA1UECAwGSGVzc2Vu
MRQwEgYDVQQKDAtwcml2YWN5aWRlYTEOMAwGA1UEAwwFQ0EwMDGCCQD7yOusg80S
BzATBgNVHSUEDDAKBggrBgEFBQcDATANBgkqhkiG9w0BAQUFAAOCAQEASDgrrOTC
PfRFj88K5aySQYHpk0e1V6lB3V5YtetyNoMN2nJkfsLijoSJYceWv653CizVq5oA
XfwJS1O7T8hg1ttqD6TjBPNFgL9pi+exw5SkIXQ6ND4JcmrwD1h5W/4YQ5aFL/1w
t6uPI24vTS0PuVrlrq+zT8HPWNmh/cLaqLvu+yEkpq3xtttLiN1wjz278gQ94DEb
zOGd21mxPjiqzwx0u+XsJot3uRnmy4+kSwMgULtxjna2iRtL7FP0It235tctvFP8
a2d7f3EaNuKv05JTl62KG6ktW7AvHacmCxu+qTiOLTuyBTuln6TO0fqoY5JIkwU8
9fRltVubApKi6g==
-----END CERTIFICATE-----
