Certificate:
    Data:
        Version: 3 (0x2)
        Serial Number: 268435660 (0x100000cc)
    Signature Algorithm: sha1WithRSAEncryption
        Issuer: C=DE, ST=Hessen, O=privacyidea, CN=CA001
        Validity
            Not Before: Sep 26 14:23:45 2015 GMT
            Not After : Sep 25 14:23:45 2016 GMT
        Subject: C=DE, ST=Hessen, O=privacyidea, CN=requester.localdomain
        Subject Public Key Info:
            Public Key Algorithm: rsaEncryption
                Public-Key: (2048 bit)
                Modulus:
                    00:cd:be:14:4f:fa:ce:01:3f:42:22:1b:1d:9c:af:
                    dd:92:d2:7f:db:6c:b7:3e:39:43:43:6b:13:03:f1:
                    05:f4:07:74:bc:76:69:28:0b:af:19:8e:d7:fc:e3:
                    cd:c6:58:f2:ca:7f:08:6d:53:fc:07:02:44:24:c6:
                    b4:34:4c:8c:04:fe:33:0e:40:e2:20:ba:02:73:5a:
                    f7:f5:4f:63:6e:cc:c6:b6:df:54:1d:37:39:7d:51:
                    36:26:5f:bd:dc:3f:a8:8b:6b:a2:ae:b6:9d:d6:21:
                    e7:df:41:b8:7a:28:2a:68:48:ca:a8:2d:ed:e1:e9:
                    46:5e:5a:72:6d:b4:84:38:87:91:fd:94:11:0b:28:
                    84:c6:c2:2f:2a:fb:01:f9:36:7a:09:75:d1:33:88:
                    3c:73:41:5b:c8:bf:94:89:70:a1:f0:c0:b9:2e:50:
                    53:1e:b1:17:64:69:f4:2d:81:e0:a9:0d:0e:32:e9:
                    ba:55:8a:85:f1:1b:6f:49:79:b4:7f:88:c3:0d:3e:
                    54:88:9b:3d:1f:38:8c:04:f3:ee:6a:63:2b:f5:c6:
                    db:b4:83:aa:c4:78:41:3a:7d:4b:e1:c8:3e:71:ca:
                    1b:61:59:ea:c6:c4:ca:32:5e:c9:e9:bf:12:29:e6:
                    c6:c3:63:fe:a0:55:da:7a:f1:60:98:4d:26:ed:fa:
                    70:2d
                Exponent: 65537 (0x10001)
        X509v3 extensions:
            X509v3 Key Usage: 
                Digital Signature, Key Encipherment
            X509v3 Basic Constraints: 
                CA:FALSE
            Netscape Cert Type: 
                SSL Server
            Netscape Comment: 
                OpenSSL Generated Server Certificate
            X509v3 Subject Key Identifier: 
                53:3F:ED:5D:09:07:B3:65:7B:AB:45:C9:24:5B:09:77:80:0A:96:ED
            X509v3 Authority Key Identifier: 
                keyid:F4:A7:C0:CC:91:46:AF:64:F3:91:F2:27:F8:C8:B2:6F:8A:87:32:73
                DirName:/C=DE/ST=Hessen/O=privacyidea/CN=CA001
                serial:FB:C8:EB:AC:83:CD:12:07

            X509v3 Extended Key Usage: 
                TLS Web Server Authentication
    Signature Algorithm: sha1WithRSAEncryption
         bb:e6:0a:84:b4:40:23:9a:7f:d5:f5:38:f7:68:de:2f:ca:a0:
         b5:14:75:04:9b:8a:4b:03:25:c0:ff:4a:f9:1f:38:fd:a6:bd:
         9e:70:8d:e7:8f:6a:61:25:0a:1a:a9:c2:39:4b:0a:ad:a0:30:
         04:1e:a6:4c:4d:77:6d:ca:57:bb:59:a3:9a:61:5d:92:ea:8a:
         4c:f4:df:89:92:f0:f7:c2:1b:e1:94:35:eb:df:43:6d:28:83:
         d8:12:b6:3e:a3:43:b7:a3:52:17:dd:a3:72:77:78:45:68:0e:
         df:26:c3:f6:95:49:10:2e:de:7a:67:66:ec:1c:ad:99:82:ee:
         89:53:ec:54:c1:f2:f7:ff:3e:04:12:29:8c:a0:2e:d8:8a:d0:
         82:f5:ac:d6:84:58:90:b1:68:03:1f:f7:7b:0f:d5:50:9d:ce:
         86:9a:38:d7:cd:28:2e:b0:34:96:dc:ec:67:d8:fe:75:06:65:
         25:e1:8d:6e:8f:f8:0b:49:d6:43:0a:62:13:14:c4:df:86:9a:
         69:ca:1b:63:b4:35:05:ca:f7:b4:75:07:5d:e7:67:2a:c7:c7:
         4b:36:7f:6b:27:eb:14:38:27:ab:48:3a:18:f7:8e:e8:85:65:
         5b:6b:8d:86:47:49:9f:cc:f5:e8:1d:b7:28:2d:ee:e5:16:e6:
         3d:8e:11:70
-----BEGIN CERTIFICATE-----
MIIEJjCCAw6gAwIBAgIEEAAAzDANBgkqhkiG9w0BAQUFADBEMQswCQYDVQQGEwJE
RTEPMA0GA1UECAwGSGVzc2VuMRQwEgYDVQQKDAtwcml2YWN5aWRlYTEOMAwGA1UE
AwwFQ0EwMDEwHhcNMTUwOTI2MTQyMzQ1WhcNMTYwOTI1MTQyMzQ1WjBUMQswCQYD
VQQGEwJERTEPMA0GA1UECAwGSGVzc2VuMRQwEgYDVQQKDAtwcml2YWN5aWRlYTEe
MBwGA1UEAwwVcmVxdWVzdGVyLmxvY2FsZG9tYWluMIIBIjANBgkqhkiG9w0BAQEF
AAOCAQ8AMIIBCgKCAQEAzb4UT/rOAT9CIhsdnK/dktJ/22y3PjlDQ2sTA/EF9Ad0
vHZpKAuvGY7X/OPNxljyyn8IbVP8BwJEJMa0NEyMBP4zDkDiILoCc1r39U9jbszG
tt9UHTc5fVE2Jl+93D+oi2uirrad1iHn30G4eigqaEjKqC3t4elGXlpybbSEOIeR
/ZQRCyiExsIvKvsB+TZ6CXXRM4g8c0FbyL+UiXCh8MC5LlBTHrEXZGn0LYHgqQ0O
Mum6VYqF8RtvSXm0f4jDDT5UiJs9HziMBPPuamMr9cbbtIOqxHhBOn1L4cg+ccob
YVnqxsTKMl7J6b8SKebGw2P+oFXaevFgmE0m7fpwLQIDAQABo4IBDjCCAQowCwYD
VR0PBAQDAgWgMAkGA1UdEwQCMAAwEQYJYIZIAYb4QgEBBAQDAgZAMDMGCWCGSAGG
+EIBDQQmFiRPcGVuU1NMIEdlbmVyYXRlZCBTZXJ2ZXIgQ2VydGlmaWNhdGUwHQYD
VR0OBBYEFFM/7V0JB7Nle6tFySRbCXeACpbtMHQGA1UdIwRtMGuAFPSnwMyRRq9k
85HyJ/jIsm+KhzJzoUikRjBEMQswCQYDVQQGEwJERTEPMA0GA1UECAwGSGVzc2Vu
MRQwEgYDVQQKDAtwcml2YWN5aWRlYTEOMAwGA1UEAwwFQ0EwMDGCCQD7yOusg80S
BzATBgNVHSUEDDAKBggrBgEFBQcDATANBgkqhkiG9w0BAQUFAAOCAQEAu+YKhLRA
I5p/1fU492jeL8qgtRR1BJuKSwMlwP9K+R84/aa9nnCN549qYSUKGqnCOUsKraAw
BB6mTE13bcpXu1mjmmFdkuqKTPTfiZLw98Ib4ZQ1699DbSiD2BK2PqNDt6NSF92j
cnd4RWgO3ybD9pVJEC7eemdm7BytmYLuiVPsVMHy9/8+BBIpjKAu2IrQgvWs1oRY
kLFoAx/3ew/VUJ3Ohpo4180oLrA0ltzsZ9j+dQZlJeGNbo/4C0nWQwpiExTE34aa
acobY7Q1Bcr3tHUHXednKsfHSzZ/ayfrFDgnq0g6GPeO6IVlW2uNhkdJn8z16B23
KC3u5RbmPY4RcA==
-----END CERTIFICATE-----
