Certificate:
    Data:
        Version: 3 (0x2)
        Serial Number: 268435656 (0x100000c8)
    Signature Algorithm: sha1WithRSAEncryption
        Issuer: C=DE, ST=Hessen, O=privacyidea, CN=CA001
        Validity
            Not Before: Sep 26 14:22:27 2015 GMT
            Not After : Sep 25 14:22:27 2016 GMT
        Subject: C=DE, ST=Hessen, O=privacyidea, CN=requester.localdomain
        Subject Public Key Info:
            Public Key Algorithm: rsaEncryption
                Public-Key: (2048 bit)
                Modulus:
                    00:cd:be:14:4f:fa:ce:01:3f:42:22:1b:1d:9c:af:
                    dd:92:d2:7f:db:6c:b7:3e:39:43:43:6b:13:03:f1:
                    05:f4:07:74:bc:76:69:28:0b:af:19:8e:d7:fc:e3:
                    cd:c6:58:f2:ca:7f:08:6d:53:fc:07:02:44:24:c6:
                    b4:34:4c:8c:04:fe:33:0e:40:e2:20:ba:02:73:5a:
                    f7:f5:4f:63:6e:cc:c6:b6:df:54:1d:37:39:7d:51:
                    36:26:5f:bd:dc:3f:a8:8b:6b:a2:ae:b6:9d:d6:21:
                    e7:df:41:b8:7a:28:2a:68:48:ca:a8:2d:ed:e1:e9:
                    46:5e:5a:72:6d:b4:84:38:87:91:fd:94:11:0b:28:
                    84:c6:c2:2f:2a:fb:01:f9:36:7a:09:75:d1:33:88:
                    3c:73:41:5b:c8:bf:94:89:70:a1:f0:c0:b9:2e:50:
                    53:1e:b1:17:64:69:f4:2d:81:e0:a9:0d:0e:32:e9:
                    ba:55:8a:85:f1:1b:6f:49:79:b4:7f:88:c3:0d:3e:
                    54:88:9b:3d:1f:38:8c:04:f3:ee:6a:63:2b:f5:c6:
                    db:b4:83:aa:c4:78:41:3a:7d:4b:e1:c8:3e:71:ca:
                    1b:61:59:ea:c6:c4:ca:32:5e:c9:e9:bf:12:29:e6:
                    c6:c3:63:fe:a0:55:da:7a:f1:60:98:4d:26:ed:fa:
                    70:2d
                Exponent: 65537 (0x10001)
        X509v3 extensions:
            X509v3 Key Usage: 
                Digital Signature, Key Encipherment
            X509v3 Basic Constraints: 
                CA:FALSE
            Netscape Cert Type: 
                SSL Server
            Netscape Comment: 
                OpenSSL Generated Server Certificate
            X509v3 Subject Key Identifier: 
                53:3F:ED:5D:09:07:B3:65:7B:AB:45:C9:24:5B:09:77:80:0A:96:ED
            X509v3 Authority Key Identifier: 
                keyid:F4:A7:C0:CC:91:46:AF:64:F3:91:F2:27:F8:C8:B2:6F:8A:87:32:73
                DirName:/C=DE/ST=Hessen/O=privacyidea/CN=CA001
                serial:FB:C8:EB:AC:83:CD:12:07

            X509v3 Extended Key Usage: 
                TLS Web Server Authentication
    Signature Algorithm: sha1WithRSAEncryption
         14:42:6e:17:41:3c:9a:8e:10:72:e0:6b:35:e1:3a:2e:80:3a:
         a7:e1:53:82:0e:f9:14:cd:aa:69:a8:03:50:dc:1e:4d:75:92:
         24:3a:8b:f4:4a:d4:43:9d:29:8e:a3:1a:7a:df:d7:2f:a6:fa:
         03:a3:e9:30:46:93:da:89:23:ed:89:31:ac:e7:67:e5:06:b8:
         29:63:f8:e1:ff:97:44:3f:08:78:1b:60:23:b3:5d:5f:52:69:
         1e:89:c9:83:ba:a3:c9:91:c1:4e:8b:c8:13:73:52:1c:2f:6d:
         b2:e6:6d:ba:63:e0:f8:4f:c3:3a:79:70:ee:a0:34:7d:48:ff:
         a9:5c:03:39:95:05:fa:70:8c:95:f9:8b:c8:f7:dd:99:43:e9:
         14:d6:7d:a8:ca:d6:ec:41:77:4b:af:19:32:8c:f4:6c:86:53:
         c4:43:ec:e1:3a:32:bb:3d:4f:31:f1:31:f9:a7:16:a8:2a:d3:
         cb:44:12:2a:33:26:c9:a6:ee:b0:fc:aa:e6:3e:78:ae:a5:7b:
         03:dc:f9:d1:ef:44:3a:38:6b:03:44:82:19:60:1a:36:db:cf:
         ed:c2:e5:bf:12:8c:06:04:ed:c6:18:8f:32:2d:23:e4:be:5c:
         8e:d8:8e:30:f1:2c:57:59:36:e7:8a:e4:0b:35:e2:72:16:8b:
         a7:62:2e:0a
-----BEGIN CERTIFICATE-----
MIIEJjCCAw6gAwIBAgIEEAAAyDANBgkqhkiG9w0BAQUFADBEMQswCQYDVQQGEwJE
RTEPMA0GA1UECAwGSGVzc2VuMRQwEgYDVQQKDAtwcml2YWN5aWRlYTEOMAwGA1UE
AwwFQ0EwMDEwHhcNMTUwOTI2MTQyMjI3WhcNMTYwOTI1MTQyMjI3WjBUMQswCQYD
VQQGEwJERTEPMA0GA1UECAwGSGVzc2VuMRQwEgYDVQQKDAtwcml2YWN5aWRlYTEe
MBwGA1UEAwwVcmVxdWVzdGVyLmxvY2FsZG9tYWluMIIBIjANBgkqhkiG9w0BAQEF
AAOCAQ8AMIIBCgKCAQEAzb4UT/rOAT9CIhsdnK/dktJ/22y3PjlDQ2sTA/EF9Ad0
vHZpKAuvGY7X/OPNxljyyn8IbVP8BwJEJMa0NEyMBP4zDkDiILoCc1r39U9jbszG
tt9UHTc5fVE2Jl+93D+oi2uirrad1iHn30G4eigqaEjKqC3t4elGXlpybbSEOIeR
/ZQRCyiExsIvKvsB+TZ6CXXRM4g8c0FbyL+UiXCh8MC5LlBTHrEXZGn0LYHgqQ0O
Mum6VYqF8RtvSXm0f4jDDT5UiJs9HziMBPPuamMr9cbbtIOqxHhBOn1L4cg+ccob
YVnqxsTKMl7J6b8SKebGw2P+oFXaevFgmE0m7fpwLQIDAQABo4IBDjCCAQowCwYD
VR0PBAQDAgWgMAkGA1UdEwQCMAAwEQYJYIZIAYb4QgEBBAQDAgZAMDMGCWCGSAGG
+EIBDQQmFiRPcGVuU1NMIEdlbmVyYXRlZCBTZXJ2ZXIgQ2VydGlmaWNhdGUwHQYD
VR0OBBYEFFM/7V0JB7Nle6tFySRbCXeACpbtMHQGA1UdIwRtMGuAFPSnwMyRRq9k
85HyJ/jIsm+KhzJzoUikRjBEMQswCQYDVQQGEwJERTEPMA0GA1UECAwGSGVzc2Vu
MRQwEgYDVQQKDAtwcml2YWN5aWRlYTEOMAwGA1UEAwwFQ0EwMDGCCQD7yOusg80S
BzATBgNVHSUEDDAKBggrBgEFBQcDATANBgkqhkiG9w0BAQUFAAOCAQEAFEJuF0E8
mo4QcuBrNeE6LoA6p+FTgg75FM2qaagDUNweTXWSJDqL9ErUQ50pjqMaet/XL6b6
A6PpMEaT2okj7YkxrOdn5Qa4KWP44f+XRD8IeBtgI7NdX1JpHonJg7qjyZHBTovI
E3NSHC9tsuZtumPg+E/DOnlw7qA0fUj/qVwDOZUF+nCMlfmLyPfdmUPpFNZ9qMrW
7EF3S68ZMoz0bIZTxEPs4Toyuz1PMfEx+acWqCrTy0QSKjMmyabusPyq5j54rqV7
A9z50e9EOjhrA0SCGWAaNtvP7cLlvxKMBgTtxhiPMi0j5L5cjtiOMPEsV1k254rk
CzXichaLp2IuCg==
-----END CERTIFICATE-----
