Certificate:
    Data:
        Version: 3 (0x2)
        Serial Number: 268435643 (0x100000bb)
    Signature Algorithm: sha1WithRSAEncryption
        Issuer: C=DE, ST=Hessen, O=privacyidea, CN=CA001
        Validity
            Not Before: Oct  5 15:42:36 2015 GMT
            Not After : Oct  4 15:42:36 2016 GMT
        Subject: CN=selfservice,CN=user,O=realm1/emailAddress=meine
        Subject Public Key Info:
            Public Key Algorithm: rsaEncryption
                Public-Key: (2048 bit)
                Modulus:
                    00:cf:3c:d4:33:0e:12:c4:e6:da:cd:b6:56:a1:1c:
                    26:bb:26:1c:8a:4a:73:a8:58:8a:b6:1e:b3:8b:99:
                    d2:1d:07:c2:92:89:79:c0:69:d8:c8:df:28:61:98:
                    1e:b3:fe:ae:2b:bd:78:a9:f7:6e:47:dc:a3:a0:16:
                    8c:85:02:c1:4e:92:fd:72:6e:f0:c8:03:29:9b:b8:
                    00:6e:c0:83:95:c8:34:20:36:9c:b3:e5:e4:e6:76:
                    73:a3:1a:ad:40:96:e0:53:54:00:ec:76:79:9a:c6:
                    0d:7e:b6:bd:29:ec:83:f3:cb:89:a4:cb:6c:00:ba:
                    0c:c5:78:0f:ff:69:b8:94:f4:04:70:43:3f:d8:9e:
                    d7:a7:fb:5d:ce:75:8e:da:e7:c4:07:b1:9d:de:6f:
                    88:4b:b6:4d:9a:cf:f9:bc:fa:9f:cd:32:6d:f6:3a:
                    0b:0d:23:42:78:ec:97:42:bf:0e:4d:60:56:e1:d3:
                    02:f2:19:cb:84:57:90:e5:70:a1:a2:83:35:86:e2:
                    da:86:9f:f9:8a:c4:79:b3:52:28:da:cb:bb:34:ca:
                    d3:da:91:4a:cf:8d:76:a2:b2:6b:9b:f9:96:fd:09:
                    2a:da:11:23:4d:f0:cb:d6:b2:b1:0e:12:6c:9a:19:
                    65:98:87:ca:e4:ee:24:ce:44:ac:90:8f:9d:1b:c5:
                    2a:9d
                Exponent: 65537 (0x10001)
        X509v3 extensions:
            X509v3 Key Usage: 
                Digital Signature, Key Encipherment
            X509v3 Basic Constraints: 
                CA:FALSE
            Netscape Cert Type: 
                SSL Server
            Netscape Comment: 
                OpenSSL Generated Server Certificate
            X509v3 Subject Key Identifier: 
                4D:07:90:AD:FF:1D:0D:E7:1A:DD:D6:2E:FA:BA:34:CB:AA:1F:24:C6
            X509v3 Authority Key Identifier: 
                keyid:F4:A7:C0:CC:91:46:AF:64:F3:91:F2:27:F8:C8:B2:6F:8A:87:32:73
                DirName:/C=DE/ST=Hessen/O=privacyidea/CN=CA001
                serial:FB:C8:EB:AC:83:CD:12:07

            X509v3 Extended Key Usage: 
                TLS Web Server Authentication
    Signature Algorithm: sha1WithRSAEncryption
         9d:c4:fa:79:25:d2:53:19:e3:34:8f:3e:d7:83:a1:a1:97:7c:
         95:8f:06:d3:09:68:9a:cb:84:79:1e:5c:e0:30:3b:70:38:b1:
         a3:bb:f9:fb:f9:cc:09:ec:39:53:c0:0a:c6:c4:2d:55:10:31:
         d7:b6:0a:da:69:1f:96:d4:e5:b8:73:7a:c4:0f:3b:03:ec:05:
         8f:f1:55:29:8d:5c:55:88:28:75:2b:b7:6a:fc:46:68:df:8e:
         52:ac:d8:38:c5:95:4c:2f:a4:3e:1c:1f:fc:05:42:29:3b:eb:
         df:44:61:c0:be:ab:fc:cf:ea:7a:91:13:e3:ec:d9:1b:58:3d:
         69:eb:a8:3a:8c:50:aa:5e:66:f3:fa:b9:93:9a:e1:31:d4:ad:
         cf:70:53:74:fb:76:dc:83:00:ac:49:66:04:13:23:64:32:6b:
         4e:56:f1:7e:29:f9:d7:23:4e:28:21:14:2e:8f:3d:b0:85:71:
         0c:6b:91:c0:72:c4:89:47:13:ba:4a:9b:ba:19:b4:fa:f9:25:
         eb:26:6c:ed:78:5f:7d:83:c7:6a:59:2c:72:b6:dc:68:f4:2e:
         c6:3e:97:4e:ee:a0:cf:18:21:ae:39:98:97:9c:9c:99:6f:79:
         d8:93:57:37:13:91:b2:d2:10:0c:15:79:e2:d4:57:8c:c0:59:
         18:11:cd:c2
-----BEGIN CERTIFICATE-----
MIIEDzCCAvegAwIBAgIEEAAAuzANBgkqhkiG9w0BAQUFADBEMQswCQYDVQQGEwJE
RTEPMA0GA1UECAwGSGVzc2VuMRQwEgYDVQQKDAtwcml2YWN5aWRlYTEOMAwGA1UE
AwwFQ0EwMDEwHhcNMTUxMDA1MTU0MjM2WhcNMTYxMDA0MTU0MjM2WjA9MSUwIwYD
VQQDExxzZWxmc2VydmljZSxDTj11c2VyLE89cmVhbG0xMRQwEgYJKoZIhvcNAQkB
FgVtZWluZTCCASIwDQYJKoZIhvcNAQEBBQADggEPADCCAQoCggEBAM881DMOEsTm
2s22VqEcJrsmHIpKc6hYirYes4uZ0h0HwpKJecBp2MjfKGGYHrP+riu9eKn3bkfc
o6AWjIUCwU6S/XJu8MgDKZu4AG7Ag5XINCA2nLPl5OZ2c6MarUCW4FNUAOx2eZrG
DX62vSnsg/PLiaTLbAC6DMV4D/9puJT0BHBDP9ie16f7Xc51jtrnxAexnd5viEu2
TZrP+bz6n80ybfY6Cw0jQnjsl0K/Dk1gVuHTAvIZy4RXkOVwoaKDNYbi2oaf+YrE
ebNSKNrLuzTK09qRSs+NdqKya5v5lv0JKtoRI03wy9aysQ4SbJoZZZiHyuTuJM5E
rJCPnRvFKp0CAwEAAaOCAQ4wggEKMAsGA1UdDwQEAwIFoDAJBgNVHRMEAjAAMBEG
CWCGSAGG+EIBAQQEAwIGQDAzBglghkgBhvhCAQ0EJhYkT3BlblNTTCBHZW5lcmF0
ZWQgU2VydmVyIENlcnRpZmljYXRlMB0GA1UdDgQWBBRNB5Ct/x0N5xrd1i76ujTL
qh8kxjB0BgNVHSMEbTBrgBT0p8DMkUavZPOR8if4yLJviocyc6FIpEYwRDELMAkG
A1UEBhMCREUxDzANBgNVBAgMBkhlc3NlbjEUMBIGA1UECgwLcHJpdmFjeWlkZWEx
DjAMBgNVBAMMBUNBMDAxggkA+8jrrIPNEgcwEwYDVR0lBAwwCgYIKwYBBQUHAwEw
DQYJKoZIhvcNAQEFBQADggEBAJ3E+nkl0lMZ4zSPPteDoaGXfJWPBtMJaJrLhHke
XOAwO3A4saO7+fv5zAnsOVPACsbELVUQMde2CtppH5bU5bhzesQPOwPsBY/xVSmN
XFWIKHUrt2r8RmjfjlKs2DjFlUwvpD4cH/wFQik7699EYcC+q/zP6nqRE+Ps2RtY
PWnrqDqMUKpeZvP6uZOa4THUrc9wU3T7dtyDAKxJZgQTI2Qya05W8X4p+dcjTigh
FC6PPbCFcQxrkcByxIlHE7pKm7oZtPr5JesmbO14X32Dx2pZLHK23Gj0LsY+l07u
oM8YIa45mJecnJlvediTVzcTkbLSEAwVeeLUV4zAWRgRzcI=
-----END CERTIFICATE-----
