Certificate:
    Data:
        Version: 3 (0x2)
        Serial Number: 268435641 (0x100000b9)
    Signature Algorithm: sha1WithRSAEncryption
        Issuer: C=DE, ST=Hessen, O=privacyidea, CN=CA001
        Validity
            Not Before: Oct  5 15:33:27 2015 GMT
            Not After : Oct  4 15:33:27 2016 GMT
        Subject: CN=Steve Test/emailAddress=steve@openssl.org
        Subject Public Key Info:
            Public Key Algorithm: rsaEncryption
                Public-Key: (2048 bit)
                Modulus:
                    00:d2:81:89:20:51:48:0f:73:f4:11:32:24:d5:1f:
                    1c:fd:5c:f5:b6:e6:c5:f0:52:81:dc:d2:af:66:4a:
                    7c:93:31:61:5c:af:d1:6d:06:70:03:60:7c:72:0c:
                    88:dd:49:cd:9e:02:6c:d2:5a:d7:53:0f:f3:da:be:
                    69:64:b5:0f:0c:00:e3:b3:50:47:a3:b3:9b:ba:13:
                    50:d6:58:5a:4b:ab:39:e0:11:ca:0a:27:67:03:78:
                    22:66:6d:92:1e:1b:5c:49:ae:e6:6b:d1:8e:3b:9d:
                    06:d3:c6:ac:4d:53:43:10:ab:e8:96:c1:87:82:97:
                    99:8f:20:d3:99:12:37:31:84:e1:8a:ff:29:03:5f:
                    22:90:3e:7f:9b:e0:20:c1:ad:dc:ae:4c:39:1a:31:
                    96:17:02:8c:b2:d9:b4:0d:20:12:9b:7d:86:54:fd:
                    33:fd:c1:2a:62:46:f8:60:96:cf:6e:01:6f:22:df:
                    13:47:e7:97:ec:05:72:23:a3:62:f8:fa:ef:ac:9c:
                    72:f0:37:cb:2f:37:cf:90:a8:27:51:86:c6:d7:78:
                    08:8f:7e:25:a2:15:70:a2:fb:1c:b6:15:5e:a0:97:
                    8b:81:4c:09:28:8a:27:3b:94:bc:71:db:5b:71:37:
                    9a:2b:16:e0:6f:b5:c9:f5:4b:4f:20:ba:65:cf:af:
                    ad:ad
                Exponent: 65537 (0x10001)
        X509v3 extensions:
            X509v3 Key Usage: 
                Digital Signature, Key Encipherment
            X509v3 Basic Constraints: 
                CA:FALSE
            Netscape Cert Type: 
                SSL Server
            Netscape Comment: 
                OpenSSL Generated Server Certificate
            X509v3 Subject Key Identifier: 
                E5:25:6D:3E:AF:0D:DD:3F:4C:F2:45:19:39:D5:14:DB:7E:9C:C0:AD
            X509v3 Authority Key Identifier: 
                keyid:F4:A7:C0:CC:91:46:AF:64:F3:91:F2:27:F8:C8:B2:6F:8A:87:32:73
                DirName:/C=DE/ST=Hessen/O=privacyidea/CN=CA001
                serial:FB:C8:EB:AC:83:CD:12:07

            X509v3 Extended Key Usage: 
                TLS Web Server Authentication
    Signature Algorithm: sha1WithRSAEncryption
         86:51:15:16:17:96:4b:96:45:83:e4:3f:9a:a2:a2:a6:bd:94:
         db:2a:95:c9:68:84:e4:f6:21:b2:3b:26:3d:17:2e:51:06:64:
         d9:86:9a:b7:11:98:7c:84:d3:ce:4c:d3:2b:af:48:49:b9:97:
         c8:e7:ef:11:7d:98:6a:f9:89:85:50:9e:72:1a:93:31:a6:08:
         5b:43:9a:84:04:25:46:f5:c6:3e:e6:68:0a:95:7a:57:0c:93:
         a4:16:cd:1e:c5:7f:64:58:a5:53:bc:4b:77:42:29:bd:7e:fb:
         19:64:54:19:a8:9a:f6:e3:cb:ba:f2:5e:46:68:34:d7:38:e1:
         f3:62:be:96:32:5a:4a:e5:74:8a:8c:2c:19:c6:d9:41:6a:49:
         ee:cb:d3:4d:b8:dd:9b:21:57:06:ce:6d:0b:c5:cb:95:57:5d:
         a6:03:99:86:5c:1d:0c:9d:97:4f:32:01:37:17:99:08:bf:26:
         b2:ab:22:e9:86:7a:0a:18:34:0f:bd:8f:5c:83:e6:bb:a8:8b:
         8e:65:26:a8:3f:59:80:da:3c:7f:4f:74:82:af:65:9d:ba:01:
         b3:78:18:c5:8e:9d:a9:5c:b0:b5:ea:75:3e:f1:77:bf:ed:69:
         e5:22:d4:30:b0:be:db:c9:b2:8e:74:80:b4:3d:1a:f8:a1:5c:
         cd:24:2e:03
-----BEGIN CERTIFICATE-----
MIIECTCCAvGgAwIBAgIEEAAAuTANBgkqhkiG9w0BAQUFADBEMQswCQYDVQQGEwJE
RTEPMA0GA1UECAwGSGVzc2VuMRQwEgYDVQQKDAtwcml2YWN5aWRlYTEOMAwGA1UE
AwwFQ0EwMDEwHhcNMTUxMDA1MTUzMzI3WhcNMTYxMDA0MTUzMzI3WjA3MRMwEQYD
VQQDEwpTdGV2ZSBUZXN0MSAwHgYJKoZIhvcNAQkBFhFzdGV2ZUBvcGVuc3NsLm9y
ZzCCASIwDQYJKoZIhvcNAQEBBQADggEPADCCAQoCggEBANKBiSBRSA9z9BEyJNUf
HP1c9bbmxfBSgdzSr2ZKfJMxYVyv0W0GcANgfHIMiN1JzZ4CbNJa11MP89q+aWS1
DwwA47NQR6Ozm7oTUNZYWkurOeARygonZwN4ImZtkh4bXEmu5mvRjjudBtPGrE1T
QxCr6JbBh4KXmY8g05kSNzGE4Yr/KQNfIpA+f5vgIMGt3K5MORoxlhcCjLLZtA0g
Ept9hlT9M/3BKmJG+GCWz24BbyLfE0fnl+wFciOjYvj676yccvA3yy83z5CoJ1GG
xtd4CI9+JaIVcKL7HLYVXqCXi4FMCSiKJzuUvHHbW3E3misW4G+1yfVLTyC6Zc+v
ra0CAwEAAaOCAQ4wggEKMAsGA1UdDwQEAwIFoDAJBgNVHRMEAjAAMBEGCWCGSAGG
+EIBAQQEAwIGQDAzBglghkgBhvhCAQ0EJhYkT3BlblNTTCBHZW5lcmF0ZWQgU2Vy
dmVyIENlcnRpZmljYXRlMB0GA1UdDgQWBBTlJW0+rw3dP0zyRRk51RTbfpzArTB0
BgNVHSMEbTBrgBT0p8DMkUavZPOR8if4yLJviocyc6FIpEYwRDELMAkGA1UEBhMC
REUxDzANBgNVBAgMBkhlc3NlbjEUMBIGA1UECgwLcHJpdmFjeWlkZWExDjAMBgNV
BAMMBUNBMDAxggkA+8jrrIPNEgcwEwYDVR0lBAwwCgYIKwYBBQUHAwEwDQYJKoZI
hvcNAQEFBQADggEBAIZRFRYXlkuWRYPkP5qioqa9lNsqlclohOT2IbI7Jj0XLlEG
ZNmGmrcRmHyE085M0yuvSEm5l8jn7xF9mGr5iYVQnnIakzGmCFtDmoQEJUb1xj7m
aAqVelcMk6QWzR7Ff2RYpVO8S3dCKb1++xlkVBmomvbjy7ryXkZoNNc44fNivpYy
WkrldIqMLBnG2UFqSe7L00243ZshVwbObQvFy5VXXaYDmYZcHQydl08yATcXmQi/
JrKrIumGegoYNA+9j1yD5ruoi45lJqg/WYDaPH9PdIKvZZ26AbN4GMWOnalcsLXq
dT7xd7/taeUi1DCwvtvJso50gLQ9GvihXM0kLgM=
-----END CERTIFICATE-----
