Certificate:
    Data:
        Version: 3 (0x2)
        Serial Number: 268435659 (0x100000cb)
    Signature Algorithm: sha1WithRSAEncryption
        Issuer: C=DE, ST=Hessen, O=privacyidea, CN=CA001
        Validity
            Not Before: Sep 26 14:22:57 2015 GMT
            Not After : Sep 25 14:22:57 2016 GMT
        Subject: CN=Steve Test/emailAddress=steve@openssl.org
        Subject Public Key Info:
            Public Key Algorithm: rsaEncryption
                Public-Key: (2048 bit)
                Modulus:
                    00:d2:81:89:20:51:48:0f:73:f4:11:32:24:d5:1f:
                    1c:fd:5c:f5:b6:e6:c5:f0:52:81:dc:d2:af:66:4a:
                    7c:93:31:61:5c:af:d1:6d:06:70:03:60:7c:72:0c:
                    88:dd:49:cd:9e:02:6c:d2:5a:d7:53:0f:f3:da:be:
                    69:64:b5:0f:0c:00:e3:b3:50:47:a3:b3:9b:ba:13:
                    50:d6:58:5a:4b:ab:39:e0:11:ca:0a:27:67:03:78:
                    22:66:6d:92:1e:1b:5c:49:ae:e6:6b:d1:8e:3b:9d:
                    06:d3:c6:ac:4d:53:43:10:ab:e8:96:c1:87:82:97:
                    99:8f:20:d3:99:12:37:31:84:e1:8a:ff:29:03:5f:
                    22:90:3e:7f:9b:e0:20:c1:ad:dc:ae:4c:39:1a:31:
                    96:17:02:8c:b2:d9:b4:0d:20:12:9b:7d:86:54:fd:
                    33:fd:c1:2a:62:46:f8:60:96:cf:6e:01:6f:22:df:
                    13:47:e7:97:ec:05:72:23:a3:62:f8:fa:ef:ac:9c:
                    72:f0:37:cb:2f:37:cf:90:a8:27:51:86:c6:d7:78:
                    08:8f:7e:25:a2:15:70:a2:fb:1c:b6:15:5e:a0:97:
                    8b:81:4c:09:28:8a:27:3b:94:bc:71:db:5b:71:37:
                    9a:2b:16:e0:6f:b5:c9:f5:4b:4f:20:ba:65:cf:af:
                    ad:ad
                Exponent: 65537 (0x10001)
        X509v3 extensions:
            X509v3 Key Usage: 
                Digital Signature, Key Encipherment
            X509v3 Basic Constraints: 
                CA:FALSE
            Netscape Cert Type: 
                SSL Server
            Netscape Comment: 
                OpenSSL Generated Server Certificate
            X509v3 Subject Key Identifier: 
                E5:25:6D:3E:AF:0D:DD:3F:4C:F2:45:19:39:D5:14:DB:7E:9C:C0:AD
            X509v3 Authority Key Identifier: 
                keyid:F4:A7:C0:CC:91:46:AF:64:F3:91:F2:27:F8:C8:B2:6F:8A:87:32:73
                DirName:/C=DE/ST=Hessen/O=privacyidea/CN=CA001
                serial:FB:C8:EB:AC:83:CD:12:07

            X509v3 Extended Key Usage: 
                TLS Web Server Authentication
    Signature Algorithm: sha1WithRSAEncryption
         5f:99:17:40:f3:cb:d8:b2:2f:44:9b:8a:9c:d6:33:aa:20:0b:
         d0:18:9c:f8:24:cf:60:07:8b:62:d2:88:8d:df:d5:f6:68:fb:
         14:16:19:34:c7:a3:2a:22:42:7e:3f:44:24:6d:44:76:b6:e0:
         a2:fa:7d:e6:e6:cd:94:a8:98:a3:22:2c:f6:19:ba:b4:d7:3a:
         3e:81:80:b0:f3:da:97:3d:08:94:40:98:c1:32:cc:71:35:05:
         39:da:76:c8:0b:d7:2c:4f:b2:26:0b:a9:e3:97:de:60:43:be:
         45:82:50:c0:3f:09:03:4a:e8:1e:45:51:eb:3e:45:60:ae:61:
         a0:07:b4:f3:5b:3e:17:89:2b:f2:d7:7f:7b:0b:47:10:65:66:
         44:3f:fe:d2:79:d2:61:f7:93:6d:57:39:45:a1:20:45:3e:dd:
         f3:67:05:2a:a4:4a:11:20:04:9c:2c:e1:b8:54:07:81:f9:4c:
         06:8a:74:84:c0:dd:69:aa:d9:ff:de:24:18:c4:ee:de:53:39:
         0b:f7:15:c0:f1:02:9b:2d:02:38:cb:4f:f1:01:59:99:a7:3b:
         8d:5d:2c:c1:eb:84:1e:e5:80:6b:29:20:f6:23:b3:d5:9d:fd:
         c1:c7:b9:6c:55:75:16:f0:35:ea:7f:89:8c:28:90:59:8f:29:
         da:6b:ce:0c
-----BEGIN CERTIFICATE-----
MIIECTCCAvGgAwIBAgIEEAAAyzANBgkqhkiG9w0BAQUFADBEMQswCQYDVQQGEwJE
RTEPMA0GA1UECAwGSGVzc2VuMRQwEgYDVQQKDAtwcml2YWN5aWRlYTEOMAwGA1UE
AwwFQ0EwMDEwHhcNMTUwOTI2MTQyMjU3WhcNMTYwOTI1MTQyMjU3WjA3MRMwEQYD
VQQDEwpTdGV2ZSBUZXN0MSAwHgYJKoZIhvcNAQkBFhFzdGV2ZUBvcGVuc3NsLm9y
ZzCCASIwDQYJKoZIhvcNAQEBBQADggEPADCCAQoCggEBANKBiSBRSA9z9BEyJNUf
HP1c9bbmxfBSgdzSr2ZKfJMxYVyv0W0GcANgfHIMiN1JzZ4CbNJa11MP89q+aWS1
DwwA47NQR6Ozm7oTUNZYWkurOeARygonZwN4ImZtkh4bXEmu5mvRjjudBtPGrE1T
QxCr6JbBh4KXmY8g05kSNzGE4Yr/KQNfIpA+f5vgIMGt3K5MORoxlhcCjLLZtA0g
Ept9hlT9M/3BKmJG+GCWz24BbyLfE0fnl+wFciOjYvj676yccvA3yy83z5CoJ1GG
xtd4CI9+JaIVcKL7HLYVXqCXi4FMCSiKJzuUvHHbW3E3misW4G+1yfVLTyC6Zc+v
ra0CAwEAAaOCAQ4wggEKMAsGA1UdDwQEAwIFoDAJBgNVHRMEAjAAMBEGCWCGSAGG
+EIBAQQEAwIGQDAzBglghkgBhvhCAQ0EJhYkT3BlblNTTCBHZW5lcmF0ZWQgU2Vy
dmVyIENlcnRpZmljYXRlMB0GA1UdDgQWBBTlJW0+rw3dP0zyRRk51RTbfpzArTB0
BgNVHSMEbTBrgBT0p8DMkUavZPOR8if4yLJviocyc6FIpEYwRDELMAkGA1UEBhMC
REUxDzANBgNVBAgMBkhlc3NlbjEUMBIGA1UECgwLcHJpdmFjeWlkZWExDjAMBgNV
BAMMBUNBMDAxggkA+8jrrIPNEgcwEwYDVR0lBAwwCgYIKwYBBQUHAwEwDQYJKoZI
hvcNAQEFBQADggEBAF+ZF0Dzy9iyL0SbipzWM6ogC9AYnPgkz2AHi2LSiI3f1fZo
+xQWGTTHoyoiQn4/RCRtRHa24KL6febmzZSomKMiLPYZurTXOj6BgLDz2pc9CJRA
mMEyzHE1BTnadsgL1yxPsiYLqeOX3mBDvkWCUMA/CQNK6B5FUes+RWCuYaAHtPNb
PheJK/LXf3sLRxBlZkQ//tJ50mH3k21XOUWhIEU+3fNnBSqkShEgBJws4bhUB4H5
TAaKdITA3Wmq2f/eJBjE7t5TOQv3FcDxApstAjjLT/EBWZmnO41dLMHrhB7lgGsp
IPYjs9Wd/cHHuWxVdRbwNep/iYwokFmPKdprzgw=
-----END CERTIFICATE-----
