Certificate:
    Data:
        Version: 3 (0x2)
        Serial Number: 268435650 (0x100000c2)
    Signature Algorithm: sha1WithRSAEncryption
        Issuer: C=DE, ST=Hessen, O=privacyidea, CN=CA001
        Validity
            Not Before: Sep 26 13:46:35 2015 GMT
            Not After : Sep 25 13:46:35 2016 GMT
        Subject: C=DE, ST=Hessen, O=privacyidea, CN=requester.localdomain
        Subject Public Key Info:
            Public Key Algorithm: rsaEncryption
                Public-Key: (2048 bit)
                Modulus:
                    00:cd:be:14:4f:fa:ce:01:3f:42:22:1b:1d:9c:af:
                    dd:92:d2:7f:db:6c:b7:3e:39:43:43:6b:13:03:f1:
                    05:f4:07:74:bc:76:69:28:0b:af:19:8e:d7:fc:e3:
                    cd:c6:58:f2:ca:7f:08:6d:53:fc:07:02:44:24:c6:
                    b4:34:4c:8c:04:fe:33:0e:40:e2:20:ba:02:73:5a:
                    f7:f5:4f:63:6e:cc:c6:b6:df:54:1d:37:39:7d:51:
                    36:26:5f:bd:dc:3f:a8:8b:6b:a2:ae:b6:9d:d6:21:
                    e7:df:41:b8:7a:28:2a:68:48:ca:a8:2d:ed:e1:e9:
                    46:5e:5a:72:6d:b4:84:38:87:91:fd:94:11:0b:28:
                    84:c6:c2:2f:2a:fb:01:f9:36:7a:09:75:d1:33:88:
                    3c:73:41:5b:c8:bf:94:89:70:a1:f0:c0:b9:2e:50:
                    53:1e:b1:17:64:69:f4:2d:81:e0:a9:0d:0e:32:e9:
                    ba:55:8a:85:f1:1b:6f:49:79:b4:7f:88:c3:0d:3e:
                    54:88:9b:3d:1f:38:8c:04:f3:ee:6a:63:2b:f5:c6:
                    db:b4:83:aa:c4:78:41:3a:7d:4b:e1:c8:3e:71:ca:
                    1b:61:59:ea:c6:c4:ca:32:5e:c9:e9:bf:12:29:e6:
                    c6:c3:63:fe:a0:55:da:7a:f1:60:98:4d:26:ed:fa:
                    70:2d
                Exponent: 65537 (0x10001)
        X509v3 extensions:
            X509v3 Key Usage: 
                Digital Signature, Key Encipherment
            X509v3 Basic Constraints: 
                CA:FALSE
            Netscape Cert Type: 
                SSL Server
            Netscape Comment: 
                OpenSSL Generated Server Certificate
            X509v3 Subject Key Identifier: 
                53:3F:ED:5D:09:07:B3:65:7B:AB:45:C9:24:5B:09:77:80:0A:96:ED
            X509v3 Authority Key Identifier: 
                keyid:F4:A7:C0:CC:91:46:AF:64:F3:91:F2:27:F8:C8:B2:6F:8A:87:32:73
                DirName:/C=DE/ST=Hessen/O=privacyidea/CN=CA001
                serial:FB:C8:EB:AC:83:CD:12:07

            X509v3 Extended Key Usage: 
                TLS Web Server Authentication
    Signature Algorithm: sha1WithRSAEncryption
         95:d9:7a:e0:02:ad:b3:de:55:4a:4e:a5:dd:51:ce:c5:6c:db:
         06:49:e9:1b:c6:b9:0b:f2:88:57:56:9c:93:6d:b0:ed:8e:5c:
         d7:82:d4:88:52:be:16:bd:f5:dd:0f:63:1e:99:11:be:f4:bf:
         a6:e7:47:90:46:53:be:8b:3f:e1:f7:7a:ef:2b:0c:9c:26:f1:
         c0:ff:05:fc:f6:4f:64:8f:bc:5d:3d:6d:64:f3:15:7f:4d:c3:
         43:3a:5a:12:af:97:51:91:91:b4:d2:39:a7:05:56:fa:b6:56:
         0c:e5:1e:cb:7f:cc:ee:3a:c7:1d:1f:ed:24:ab:36:5a:e9:fd:
         c5:e2:c2:87:9d:a5:92:dc:15:0b:b8:47:7c:cd:f0:76:24:5b:
         d1:96:8d:0d:8e:ba:11:43:2e:3a:09:5f:4e:97:95:b4:10:97:
         af:7b:d2:8c:27:8e:88:d1:1f:bd:d5:64:18:39:2d:39:94:08:
         8b:36:a2:2d:65:15:d9:cb:f4:b6:7c:18:5c:42:02:59:4f:96:
         7f:25:b5:b5:d6:43:d6:8e:94:aa:13:83:c5:84:3c:2f:2d:9e:
         34:3a:f2:1d:42:b4:9a:52:6e:2b:6e:ac:98:40:72:50:0a:a9:
         2b:cf:a1:29:c5:b3:b6:d4:8b:58:e9:48:5b:8d:00:34:7a:0c:
         79:4e:5c:ee
-----BEGIN CERTIFICATE-----
MIIEJjCCAw6gAwIBAgIEEAAAwjANBgkqhkiG9w0BAQUFADBEMQswCQYDVQQGEwJE
RTEPMA0GA1UECAwGSGVzc2VuMRQwEgYDVQQKDAtwcml2YWN5aWRlYTEOMAwGA1UE
AwwFQ0EwMDEwHhcNMTUwOTI2MTM0NjM1WhcNMTYwOTI1MTM0NjM1WjBUMQswCQYD
VQQGEwJERTEPMA0GA1UECAwGSGVzc2VuMRQwEgYDVQQKDAtwcml2YWN5aWRlYTEe
MBwGA1UEAwwVcmVxdWVzdGVyLmxvY2FsZG9tYWluMIIBIjANBgkqhkiG9w0BAQEF
AAOCAQ8AMIIBCgKCAQEAzb4UT/rOAT9CIhsdnK/dktJ/22y3PjlDQ2sTA/EF9Ad0
vHZpKAuvGY7X/OPNxljyyn8IbVP8BwJEJMa0NEyMBP4zDkDiILoCc1r39U9jbszG
tt9UHTc5fVE2Jl+93D+oi2uirrad1iHn30G4eigqaEjKqC3t4elGXlpybbSEOIeR
/ZQRCyiExsIvKvsB+TZ6CXXRM4g8c0FbyL+UiXCh8MC5LlBTHrEXZGn0LYHgqQ0O
Mum6VYqF8RtvSXm0f4jDDT5UiJs9HziMBPPuamMr9cbbtIOqxHhBOn1L4cg+ccob
YVnqxsTKMl7J6b8SKebGw2P+oFXaevFgmE0m7fpwLQIDAQABo4IBDjCCAQowCwYD
VR0PBAQDAgWgMAkGA1UdEwQCMAAwEQYJYIZIAYb4QgEBBAQDAgZAMDMGCWCGSAGG
+EIBDQQmFiRPcGVuU1NMIEdlbmVyYXRlZCBTZXJ2ZXIgQ2VydGlmaWNhdGUwHQYD
VR0OBBYEFFM/7V0JB7Nle6tFySRbCXeACpbtMHQGA1UdIwRtMGuAFPSnwMyRRq9k
85HyJ/jIsm+KhzJzoUikRjBEMQswCQYDVQQGEwJERTEPMA0GA1UECAwGSGVzc2Vu
MRQwEgYDVQQKDAtwcml2YWN5aWRlYTEOMAwGA1UEAwwFQ0EwMDGCCQD7yOusg80S
BzATBgNVHSUEDDAKBggrBgEFBQcDATANBgkqhkiG9w0BAQUFAAOCAQEAldl64AKt
s95VSk6l3VHOxWzbBknpG8a5C/KIV1ack22w7Y5c14LUiFK+Fr313Q9jHpkRvvS/
pudHkEZTvos/4fd67ysMnCbxwP8F/PZPZI+8XT1tZPMVf03DQzpaEq+XUZGRtNI5
pwVW+rZWDOUey3/M7jrHHR/tJKs2Wun9xeLCh52lktwVC7hHfM3wdiRb0ZaNDY66
EUMuOglfTpeVtBCXr3vSjCeOiNEfvdVkGDktOZQIizaiLWUV2cv0tnwYXEICWU+W
fyW1tdZD1o6UqhODxYQ8Ly2eNDryHUK0mlJuK26smEByUAqpK8+hKcWzttSLWOlI
W40ANHoMeU5c7g==
-----END CERTIFICATE-----
