Certificate:
    Data:
        Version: 3 (0x2)
        Serial Number: 268435649 (0x100000c1)
    Signature Algorithm: sha1WithRSAEncryption
        Issuer: C=DE, ST=Hessen, O=privacyidea, CN=CA001
        Validity
            Not Before: Oct  1 14:44:18 2015 GMT
            Not After : Sep 30 14:44:18 2016 GMT
        Subject: CN=selfservice,CN=user,O=realm1/emailAddress=meine
        Subject Public Key Info:
            Public Key Algorithm: rsaEncryption
                Public-Key: (2048 bit)
                Modulus:
                    00:cf:3c:d4:33:0e:12:c4:e6:da:cd:b6:56:a1:1c:
                    26:bb:26:1c:8a:4a:73:a8:58:8a:b6:1e:b3:8b:99:
                    d2:1d:07:c2:92:89:79:c0:69:d8:c8:df:28:61:98:
                    1e:b3:fe:ae:2b:bd:78:a9:f7:6e:47:dc:a3:a0:16:
                    8c:85:02:c1:4e:92:fd:72:6e:f0:c8:03:29:9b:b8:
                    00:6e:c0:83:95:c8:34:20:36:9c:b3:e5:e4:e6:76:
                    73:a3:1a:ad:40:96:e0:53:54:00:ec:76:79:9a:c6:
                    0d:7e:b6:bd:29:ec:83:f3:cb:89:a4:cb:6c:00:ba:
                    0c:c5:78:0f:ff:69:b8:94:f4:04:70:43:3f:d8:9e:
                    d7:a7:fb:5d:ce:75:8e:da:e7:c4:07:b1:9d:de:6f:
                    88:4b:b6:4d:9a:cf:f9:bc:fa:9f:cd:32:6d:f6:3a:
                    0b:0d:23:42:78:ec:97:42:bf:0e:4d:60:56:e1:d3:
                    02:f2:19:cb:84:57:90:e5:70:a1:a2:83:35:86:e2:
                    da:86:9f:f9:8a:c4:79:b3:52:28:da:cb:bb:34:ca:
                    d3:da:91:4a:cf:8d:76:a2:b2:6b:9b:f9:96:fd:09:
                    2a:da:11:23:4d:f0:cb:d6:b2:b1:0e:12:6c:9a:19:
                    65:98:87:ca:e4:ee:24:ce:44:ac:90:8f:9d:1b:c5:
                    2a:9d
                Exponent: 65537 (0x10001)
        X509v3 extensions:
            X509v3 Key Usage: 
                Digital Signature, Key Encipherment
            X509v3 Basic Constraints: 
                CA:FALSE
            Netscape Cert Type: 
                SSL Server
            Netscape Comment: 
                OpenSSL Generated Server Certificate
            X509v3 Subject Key Identifier: 
                4D:07:90:AD:FF:1D:0D:E7:1A:DD:D6:2E:FA:BA:34:CB:AA:1F:24:C6
            X509v3 Authority Key Identifier: 
                keyid:F4:A7:C0:CC:91:46:AF:64:F3:91:F2:27:F8:C8:B2:6F:8A:87:32:73
                DirName:/C=DE/ST=Hessen/O=privacyidea/CN=CA001
                serial:FB:C8:EB:AC:83:CD:12:07

            X509v3 Extended Key Usage: 
                TLS Web Server Authentication
    Signature Algorithm: sha1WithRSAEncryption
         82:6c:56:85:b0:b8:4d:7e:7f:8e:27:76:18:50:aa:e4:f5:84:
         57:97:29:fa:aa:4b:9c:6f:60:f3:28:fa:cf:13:96:ac:84:0e:
         86:62:ed:a4:a0:a5:6b:74:62:7a:18:18:2a:bd:e7:4f:bc:77:
         a7:be:aa:57:a0:be:aa:b0:2a:0e:2c:82:06:d3:d5:fa:3b:7a:
         bc:0e:0f:55:07:01:53:05:22:ee:be:0f:57:07:f7:38:b8:79:
         78:f8:39:42:28:65:79:28:25:35:47:27:61:13:c3:58:d0:6d:
         70:d6:28:27:93:ee:3f:43:95:8b:15:48:ac:25:33:7f:46:50:
         2f:24:2f:d3:be:b4:3a:af:18:cf:1c:ff:5d:a6:2e:ee:d2:13:
         5c:bd:d4:eb:d1:80:b2:41:c0:61:4c:07:83:7a:b7:df:bc:4c:
         ac:26:54:13:f1:42:0c:08:99:c1:9e:be:6e:bc:54:ca:4e:36:
         06:47:77:49:f8:08:cd:a8:b3:ec:1d:ec:e3:5a:ef:dd:48:6c:
         f6:7a:bd:b0:1d:64:00:2e:56:c8:ae:ea:f5:e1:44:aa:fb:2e:
         24:94:0e:33:7e:94:7b:7e:4d:ce:60:fa:69:3b:6b:ee:91:44:
         6f:fa:e6:4e:4f:e8:28:e9:c7:cd:b4:aa:1a:77:3e:8f:a6:fd:
         6b:46:bf:0b
-----BEGIN CERTIFICATE-----
MIIEDzCCAvegAwIBAgIEEAAAwTANBgkqhkiG9w0BAQUFADBEMQswCQYDVQQGEwJE
RTEPMA0GA1UECAwGSGVzc2VuMRQwEgYDVQQKDAtwcml2YWN5aWRlYTEOMAwGA1UE
AwwFQ0EwMDEwHhcNMTUxMDAxMTQ0NDE4WhcNMTYwOTMwMTQ0NDE4WjA9MSUwIwYD
VQQDExxzZWxmc2VydmljZSxDTj11c2VyLE89cmVhbG0xMRQwEgYJKoZIhvcNAQkB
FgVtZWluZTCCASIwDQYJKoZIhvcNAQEBBQADggEPADCCAQoCggEBAM881DMOEsTm
2s22VqEcJrsmHIpKc6hYirYes4uZ0h0HwpKJecBp2MjfKGGYHrP+riu9eKn3bkfc
o6AWjIUCwU6S/XJu8MgDKZu4AG7Ag5XINCA2nLPl5OZ2c6MarUCW4FNUAOx2eZrG
DX62vSnsg/PLiaTLbAC6DMV4D/9puJT0BHBDP9ie16f7Xc51jtrnxAexnd5viEu2
TZrP+bz6n80ybfY6Cw0jQnjsl0K/Dk1gVuHTAvIZy4RXkOVwoaKDNYbi2oaf+YrE
ebNSKNrLuzTK09qRSs+NdqKya5v5lv0JKtoRI03wy9aysQ4SbJoZZZiHyuTuJM5E
rJCPnRvFKp0CAwEAAaOCAQ4wggEKMAsGA1UdDwQEAwIFoDAJBgNVHRMEAjAAMBEG
CWCGSAGG+EIBAQQEAwIGQDAzBglghkgBhvhCAQ0EJhYkT3BlblNTTCBHZW5lcmF0
ZWQgU2VydmVyIENlcnRpZmljYXRlMB0GA1UdDgQWBBRNB5Ct/x0N5xrd1i76ujTL
qh8kxjB0BgNVHSMEbTBrgBT0p8DMkUavZPOR8if4yLJviocyc6FIpEYwRDELMAkG
A1UEBhMCREUxDzANBgNVBAgMBkhlc3NlbjEUMBIGA1UECgwLcHJpdmFjeWlkZWEx
DjAMBgNVBAMMBUNBMDAxggkA+8jrrIPNEgcwEwYDVR0lBAwwCgYIKwYBBQUHAwEw
DQYJKoZIhvcNAQEFBQADggEBAIJsVoWwuE1+f44ndhhQquT1hFeXKfqqS5xvYPMo
+s8TlqyEDoZi7aSgpWt0YnoYGCq950+8d6e+qlegvqqwKg4sggbT1fo7erwOD1UH
AVMFIu6+D1cH9zi4eXj4OUIoZXkoJTVHJ2ETw1jQbXDWKCeT7j9DlYsVSKwlM39G
UC8kL9O+tDqvGM8c/12mLu7SE1y91OvRgLJBwGFMB4N6t9+8TKwmVBPxQgwImcGe
vm68VMpONgZHd0n4CM2os+wd7ONa791IbPZ6vbAdZAAuVsiu6vXhRKr7LiSUDjN+
lHt+Tc5g+mk7a+6RRG/65k5P6Cjpx820qhp3Po+m/WtGvws=
-----END CERTIFICATE-----
