Certificate:
    Data:
        Version: 3 (0x2)
        Serial Number: 268435647 (0x100000bf)
    Signature Algorithm: sha1WithRSAEncryption
        Issuer: C=DE, ST=Hessen, O=privacyidea, CN=CA001
        Validity
            Not Before: Oct  1 14:42:32 2015 GMT
            Not After : Sep 30 14:42:32 2016 GMT
        Subject: CN=Steve Test/emailAddress=steve@openssl.org
        Subject Public Key Info:
            Public Key Algorithm: rsaEncryption
                Public-Key: (2048 bit)
                Modulus:
                    00:d2:81:89:20:51:48:0f:73:f4:11:32:24:d5:1f:
                    1c:fd:5c:f5:b6:e6:c5:f0:52:81:dc:d2:af:66:4a:
                    7c:93:31:61:5c:af:d1:6d:06:70:03:60:7c:72:0c:
                    88:dd:49:cd:9e:02:6c:d2:5a:d7:53:0f:f3:da:be:
                    69:64:b5:0f:0c:00:e3:b3:50:47:a3:b3:9b:ba:13:
                    50:d6:58:5a:4b:ab:39:e0:11:ca:0a:27:67:03:78:
                    22:66:6d:92:1e:1b:5c:49:ae:e6:6b:d1:8e:3b:9d:
                    06:d3:c6:ac:4d:53:43:10:ab:e8:96:c1:87:82:97:
                    99:8f:20:d3:99:12:37:31:84:e1:8a:ff:29:03:5f:
                    22:90:3e:7f:9b:e0:20:c1:ad:dc:ae:4c:39:1a:31:
                    96:17:02:8c:b2:d9:b4:0d:20:12:9b:7d:86:54:fd:
                    33:fd:c1:2a:62:46:f8:60:96:cf:6e:01:6f:22:df:
                    13:47:e7:97:ec:05:72:23:a3:62:f8:fa:ef:ac:9c:
                    72:f0:37:cb:2f:37:cf:90:a8:27:51:86:c6:d7:78:
                    08:8f:7e:25:a2:15:70:a2:fb:1c:b6:15:5e:a0:97:
                    8b:81:4c:09:28:8a:27:3b:94:bc:71:db:5b:71:37:
                    9a:2b:16:e0:6f:b5:c9:f5:4b:4f:20:ba:65:cf:af:
                    ad:ad
                Exponent: 65537 (0x10001)
        X509v3 extensions:
            X509v3 Key Usage: 
                Digital Signature, Key Encipherment
            X509v3 Basic Constraints: 
                CA:FALSE
            Netscape Cert Type: 
                SSL Server
            Netscape Comment: 
                OpenSSL Generated Server Certificate
            X509v3 Subject Key Identifier: 
                E5:25:6D:3E:AF:0D:DD:3F:4C:F2:45:19:39:D5:14:DB:7E:9C:C0:AD
            X509v3 Authority Key Identifier: 
                keyid:F4:A7:C0:CC:91:46:AF:64:F3:91:F2:27:F8:C8:B2:6F:8A:87:32:73
                DirName:/C=DE/ST=Hessen/O=privacyidea/CN=CA001
                serial:FB:C8:EB:AC:83:CD:12:07

            X509v3 Extended Key Usage: 
                TLS Web Server Authentication
    Signature Algorithm: sha1WithRSAEncryption
         3c:eb:ed:5b:3e:a7:aa:82:b3:33:94:83:5b:0d:85:20:48:29:
         d1:cc:01:0c:d6:3a:aa:35:bf:86:a7:e9:01:bb:6b:fd:4f:04:
         0a:4f:97:ce:4e:89:72:a4:89:8e:8b:3e:96:4c:db:69:d0:32:
         07:8a:61:80:b6:43:ac:09:6b:8e:25:85:4f:8a:73:85:5a:ee:
         ec:22:fe:09:77:5e:42:1d:0f:96:3c:59:2f:01:7a:d0:95:c9:
         a2:29:21:ac:66:e5:2c:05:ab:ea:18:41:fc:b8:0a:d3:b8:56:
         84:89:30:c1:34:23:45:54:33:3e:b0:b1:46:d1:05:70:75:b1:
         18:bc:2c:cb:df:1e:c6:78:6d:ba:a8:49:77:12:9c:43:ed:d7:
         eb:c0:32:02:67:c3:ec:d1:f6:f6:44:16:f6:da:df:9b:61:43:
         1b:10:09:ca:1d:f6:d4:b6:34:cf:d0:22:3c:87:f9:cf:b7:3e:
         b3:c2:cf:7b:15:1f:d4:fd:67:53:75:b5:b9:08:c4:95:ee:3a:
         ce:75:8d:2e:6b:f2:9e:3c:74:84:f7:d1:d2:95:d4:e2:d0:4e:
         7f:a4:98:3e:e7:ed:ae:f0:b6:a9:98:d4:f4:6f:73:64:54:a8:
         8c:a3:22:c6:61:c6:9b:73:aa:10:92:a2:32:41:ec:59:61:54:
         c9:83:57:e0
-----BEGIN CERTIFICATE-----
MIIECTCCAvGgAwIBAgIEEAAAvzANBgkqhkiG9w0BAQUFADBEMQswCQYDVQQGEwJE
RTEPMA0GA1UECAwGSGVzc2VuMRQwEgYDVQQKDAtwcml2YWN5aWRlYTEOMAwGA1UE
AwwFQ0EwMDEwHhcNMTUxMDAxMTQ0MjMyWhcNMTYwOTMwMTQ0MjMyWjA3MRMwEQYD
VQQDEwpTdGV2ZSBUZXN0MSAwHgYJKoZIhvcNAQkBFhFzdGV2ZUBvcGVuc3NsLm9y
ZzCCASIwDQYJKoZIhvcNAQEBBQADggEPADCCAQoCggEBANKBiSBRSA9z9BEyJNUf
HP1c9bbmxfBSgdzSr2ZKfJMxYVyv0W0GcANgfHIMiN1JzZ4CbNJa11MP89q+aWS1
DwwA47NQR6Ozm7oTUNZYWkurOeARygonZwN4ImZtkh4bXEmu5mvRjjudBtPGrE1T
QxCr6JbBh4KXmY8g05kSNzGE4Yr/KQNfIpA+f5vgIMGt3K5MORoxlhcCjLLZtA0g
Ept9hlT9M/3BKmJG+GCWz24BbyLfE0fnl+wFciOjYvj676yccvA3yy83z5CoJ1GG
xtd4CI9+JaIVcKL7HLYVXqCXi4FMCSiKJzuUvHHbW3E3misW4G+1yfVLTyC6Zc+v
ra0CAwEAAaOCAQ4wggEKMAsGA1UdDwQEAwIFoDAJBgNVHRMEAjAAMBEGCWCGSAGG
+EIBAQQEAwIGQDAzBglghkgBhvhCAQ0EJhYkT3BlblNTTCBHZW5lcmF0ZWQgU2Vy
dmVyIENlcnRpZmljYXRlMB0GA1UdDgQWBBTlJW0+rw3dP0zyRRk51RTbfpzArTB0
BgNVHSMEbTBrgBT0p8DMkUavZPOR8if4yLJviocyc6FIpEYwRDELMAkGA1UEBhMC
REUxDzANBgNVBAgMBkhlc3NlbjEUMBIGA1UECgwLcHJpdmFjeWlkZWExDjAMBgNV
BAMMBUNBMDAxggkA+8jrrIPNEgcwEwYDVR0lBAwwCgYIKwYBBQUHAwEwDQYJKoZI
hvcNAQEFBQADggEBADzr7Vs+p6qCszOUg1sNhSBIKdHMAQzWOqo1v4an6QG7a/1P
BApPl85OiXKkiY6LPpZM22nQMgeKYYC2Q6wJa44lhU+Kc4Va7uwi/gl3XkIdD5Y8
WS8BetCVyaIpIaxm5SwFq+oYQfy4CtO4VoSJMME0I0VUMz6wsUbRBXB1sRi8LMvf
HsZ4bbqoSXcSnEPt1+vAMgJnw+zR9vZEFvba35thQxsQCcod9tS2NM/QIjyH+c+3
PrPCz3sVH9T9Z1N1tbkIxJXuOs51jS5r8p48dIT30dKV1OLQTn+kmD7n7a7wtqmY
1PRvc2RUqIyjIsZhxptzqhCSojJB7FlhVMmDV+A=
-----END CERTIFICATE-----
