Certificate:
    Data:
        Version: 3 (0x2)
        Serial Number: 268435652 (0x100000c4)
    Signature Algorithm: sha1WithRSAEncryption
        Issuer: C=DE, ST=Hessen, O=privacyidea, CN=CA001
        Validity
            Not Before: Sep 26 13:47:05 2015 GMT
            Not After : Sep 25 13:47:05 2016 GMT
        Subject: C=DE, ST=Hessen, O=privacyidea, CN=usercert
        Subject Public Key Info:
            Public Key Algorithm: rsaEncryption
                Public-Key: (2048 bit)
                Modulus:
                    00:dc:2f:d1:5f:29:97:d4:7c:c3:53:c8:30:bd:4b:
                    67:70:2c:24:6b:b8:5e:eb:21:7a:48:12:56:7c:81:
                    5c:48:75:b6:68:eb:f6:f2:98:4e:50:51:d1:7f:6c:
                    73:f3:0a:a7:ae:be:48:5e:e5:d6:e1:d9:2a:7c:32:
                    6e:4e:fd:08:f6:5a:54:49:23:73:c3:b9:07:18:d1:
                    ef:b3:ac:f8:8a:dc:94:96:a4:90:3a:8e:74:df:e6:
                    0d:37:1b:bd:5b:b7:25:1a:56:39:da:6f:91:aa:5e:
                    1c:74:f3:f9:7c:14:01:83:12:65:76:c7:bb:fe:36:
                    5b:95:e9:72:65:83:ed:3e:98:30:71:fa:87:dd:a3:
                    36:5a:30:03:2e:26:e0:61:d1:bf:02:3f:b6:06:1f:
                    4a:89:28:1c:5c:a2:ff:4e:be:94:e6:8c:e0:da:82:
                    f1:9d:29:32:48:30:73:b4:04:f6:42:1e:be:f7:e2:
                    32:32:27:3c:9d:89:2f:70:3e:85:9a:6f:5c:c5:09:
                    c0:8c:32:2f:72:22:c9:d2:95:1f:b6:ac:72:60:72:
                    b7:82:4d:6b:ce:5b:e3:00:d0:d2:2f:58:c6:e0:10:
                    e5:51:ca:4d:3b:2e:e6:7e:ab:84:d6:56:f1:93:35:
                    a0:93:64:26:81:75:2f:91:b5:16:06:38:0b:db:cc:
                    2d:07
                Exponent: 65537 (0x10001)
        X509v3 extensions:
            X509v3 Key Usage: 
                Digital Signature, Key Encipherment
            X509v3 Basic Constraints: 
                CA:FALSE
            Netscape Cert Type: 
                SSL Server
            Netscape Comment: 
                OpenSSL Generated Server Certificate
            X509v3 Subject Key Identifier: 
                FC:14:D1:F0:4B:8D:00:90:F2:F5:B8:71:9E:4E:97:C3:92:54:AD:0B
            X509v3 Authority Key Identifier: 
                keyid:F4:A7:C0:CC:91:46:AF:64:F3:91:F2:27:F8:C8:B2:6F:8A:87:32:73
                DirName:/C=DE/ST=Hessen/O=privacyidea/CN=CA001
                serial:FB:C8:EB:AC:83:CD:12:07

            X509v3 Extended Key Usage: 
                TLS Web Server Authentication
    Signature Algorithm: sha1WithRSAEncryption
         08:7f:65:1a:22:06:e6:d9:22:c0:5a:ba:f6:f1:4e:9d:17:54:
         bb:65:8f:c3:87:47:b5:96:6f:f1:11:55:99:e7:34:b2:5e:1f:
         07:54:57:50:2a:98:b2:2b:20:22:9d:72:74:38:38:0f:c4:13:
         8c:c4:34:a6:db:7d:ea:de:19:db:d8:37:32:89:01:8a:8a:d3:
         45:06:71:1f:ee:e5:24:53:28:4c:f1:57:70:a4:70:d7:33:2f:
         b6:eb:84:64:af:c4:42:34:b5:d1:9e:24:b1:fe:db:9d:0e:ba:
         d6:04:75:dd:8f:84:6f:da:60:9f:88:83:6a:02:4a:17:0b:99:
         ea:e2:05:ed:41:e6:9f:20:dd:d4:40:70:b9:d3:89:0c:56:27:
         cc:f8:ed:0f:2c:1d:e0:45:9b:8a:05:01:cb:ab:13:fe:51:9e:
         34:5b:48:97:56:7d:28:60:09:0e:c7:d0:be:09:31:bf:7e:5e:
         c0:28:c6:ef:dc:05:d1:9b:83:9b:74:e0:af:5e:63:d1:75:13:
         f3:59:9b:c9:0a:23:21:f4:4c:54:82:b6:5d:34:8f:24:fc:b2:
         80:89:53:10:d8:d3:b1:26:b1:cc:97:69:0c:5f:b9:4b:fe:6f:
         93:be:76:22:fa:81:66:75:80:b3:5c:7b:3d:16:39:27:80:b9:
         da:cd:8c:70
-----BEGIN CERTIFICATE-----
MIIEGTCCAwGgAwIBAgIEEAAAxDANBgkqhkiG9w0BAQUFADBEMQswCQYDVQQGEwJE
RTEPMA0GA1UECAwGSGVzc2VuMRQwEgYDVQQKDAtwcml2YWN5aWRlYTEOMAwGA1UE
AwwFQ0EwMDEwHhcNMTUwOTI2MTM0NzA1WhcNMTYwOTI1MTM0NzA1WjBHMQswCQYD
VQQGEwJERTEPMA0GA1UECAwGSGVzc2VuMRQwEgYDVQQKDAtwcml2YWN5aWRlYTER
MA8GA1UEAwwIdXNlcmNlcnQwggEiMA0GCSqGSIb3DQEBAQUAA4IBDwAwggEKAoIB
AQDcL9FfKZfUfMNTyDC9S2dwLCRruF7rIXpIElZ8gVxIdbZo6/bymE5QUdF/bHPz
Cqeuvkhe5dbh2Sp8Mm5O/Qj2WlRJI3PDuQcY0e+zrPiK3JSWpJA6jnTf5g03G71b
tyUaVjnab5GqXhx08/l8FAGDEmV2x7v+NluV6XJlg+0+mDBx+ofdozZaMAMuJuBh
0b8CP7YGH0qJKBxcov9OvpTmjODagvGdKTJIMHO0BPZCHr734jIyJzydiS9wPoWa
b1zFCcCMMi9yIsnSlR+2rHJgcreCTWvOW+MA0NIvWMbgEOVRyk07LuZ+q4TWVvGT
NaCTZCaBdS+RtRYGOAvbzC0HAgMBAAGjggEOMIIBCjALBgNVHQ8EBAMCBaAwCQYD
VR0TBAIwADARBglghkgBhvhCAQEEBAMCBkAwMwYJYIZIAYb4QgENBCYWJE9wZW5T
U0wgR2VuZXJhdGVkIFNlcnZlciBDZXJ0aWZpY2F0ZTAdBgNVHQ4EFgQU/BTR8EuN
AJDy9bhxnk6Xw5JUrQswdAYDVR0jBG0wa4AU9KfAzJFGr2TzkfIn+Miyb4qHMnOh
SKRGMEQxCzAJBgNVBAYTAkRFMQ8wDQYDVQQIDAZIZXNzZW4xFDASBgNVBAoMC3By
aXZhY3lpZGVhMQ4wDAYDVQQDDAVDQTAwMYIJAPvI66yDzRIHMBMGA1UdJQQMMAoG
CCsGAQUFBwMBMA0GCSqGSIb3DQEBBQUAA4IBAQAIf2UaIgbm2SLAWrr28U6dF1S7
ZY/Dh0e1lm/xEVWZ5zSyXh8HVFdQKpiyKyAinXJ0ODgPxBOMxDSm233q3hnb2Dcy
iQGKitNFBnEf7uUkUyhM8VdwpHDXMy+264Rkr8RCNLXRniSx/tudDrrWBHXdj4Rv
2mCfiINqAkoXC5nq4gXtQeafIN3UQHC504kMVifM+O0PLB3gRZuKBQHLqxP+UZ40
W0iXVn0oYAkOx9C+CTG/fl7AKMbv3AXRm4ObdOCvXmPRdRPzWZvJCiMh9ExUgrZd
NI8k/LKAiVMQ2NOxJrHMl2kMX7lL/m+TvnYi+oFmdYCzXHs9FjkngLnazYxw
-----END CERTIFICATE-----
