Certificate:
    Data:
        Version: 3 (0x2)
        Serial Number: 268435654 (0x100000c6)
    Signature Algorithm: sha1WithRSAEncryption
        Issuer: C=DE, ST=Hessen, O=privacyidea, CN=CA001
        Validity
            Not Before: Sep 26 13:47:55 2015 GMT
            Not After : Sep 25 13:47:55 2016 GMT
        Subject: C=DE, ST=Hessen, O=privacyidea, CN=requester.localdomain
        Subject Public Key Info:
            Public Key Algorithm: rsaEncryption
                Public-Key: (2048 bit)
                Modulus:
                    00:cd:be:14:4f:fa:ce:01:3f:42:22:1b:1d:9c:af:
                    dd:92:d2:7f:db:6c:b7:3e:39:43:43:6b:13:03:f1:
                    05:f4:07:74:bc:76:69:28:0b:af:19:8e:d7:fc:e3:
                    cd:c6:58:f2:ca:7f:08:6d:53:fc:07:02:44:24:c6:
                    b4:34:4c:8c:04:fe:33:0e:40:e2:20:ba:02:73:5a:
                    f7:f5:4f:63:6e:cc:c6:b6:df:54:1d:37:39:7d:51:
                    36:26:5f:bd:dc:3f:a8:8b:6b:a2:ae:b6:9d:d6:21:
                    e7:df:41:b8:7a:28:2a:68:48:ca:a8:2d:ed:e1:e9:
                    46:5e:5a:72:6d:b4:84:38:87:91:fd:94:11:0b:28:
                    84:c6:c2:2f:2a:fb:01:f9:36:7a:09:75:d1:33:88:
                    3c:73:41:5b:c8:bf:94:89:70:a1:f0:c0:b9:2e:50:
                    53:1e:b1:17:64:69:f4:2d:81:e0:a9:0d:0e:32:e9:
                    ba:55:8a:85:f1:1b:6f:49:79:b4:7f:88:c3:0d:3e:
                    54:88:9b:3d:1f:38:8c:04:f3:ee:6a:63:2b:f5:c6:
                    db:b4:83:aa:c4:78:41:3a:7d:4b:e1:c8:3e:71:ca:
                    1b:61:59:ea:c6:c4:ca:32:5e:c9:e9:bf:12:29:e6:
                    c6:c3:63:fe:a0:55:da:7a:f1:60:98:4d:26:ed:fa:
                    70:2d
                Exponent: 65537 (0x10001)
        X509v3 extensions:
            X509v3 Key Usage: 
                Digital Signature, Key Encipherment
            X509v3 Basic Constraints: 
                CA:FALSE
            Netscape Cert Type: 
                SSL Server
            Netscape Comment: 
                OpenSSL Generated Server Certificate
            X509v3 Subject Key Identifier: 
                53:3F:ED:5D:09:07:B3:65:7B:AB:45:C9:24:5B:09:77:80:0A:96:ED
            X509v3 Authority Key Identifier: 
                keyid:F4:A7:C0:CC:91:46:AF:64:F3:91:F2:27:F8:C8:B2:6F:8A:87:32:73
                DirName:/C=DE/ST=Hessen/O=privacyidea/CN=CA001
                serial:FB:C8:EB:AC:83:CD:12:07

            X509v3 Extended Key Usage: 
                TLS Web Server Authentication
    Signature Algorithm: sha1WithRSAEncryption
         22:54:1c:11:34:29:3f:c3:12:9b:22:8a:9f:d2:b2:a5:ce:04:
         00:b7:a4:f7:db:28:f8:5a:7b:48:7b:62:e6:72:e6:91:70:23:
         a1:5b:e1:fa:de:6e:7a:16:ae:ea:3f:0c:f2:82:be:53:a0:96:
         a6:b5:7c:08:cd:aa:70:53:fb:6c:8f:64:04:68:c0:a1:2d:44:
         ac:40:ae:19:1b:27:49:ad:06:80:fd:f7:0e:cc:45:39:9a:77:
         18:1c:c9:24:97:12:d5:9e:36:e7:5c:fd:38:9e:89:2b:a5:a9:
         14:46:56:3c:fa:30:b0:c3:17:25:39:08:9f:0f:42:8c:61:c1:
         b6:71:61:18:c4:63:fc:8f:98:d8:59:ee:f8:b8:4a:66:61:48:
         1b:e0:65:c4:7a:fb:b1:3a:22:13:42:96:86:d0:fa:b1:69:3b:
         bb:4c:d8:0b:65:4d:f5:53:f3:a1:84:59:14:32:79:38:4a:5c:
         b8:41:0a:a5:33:1b:db:12:e8:0f:cd:0b:f5:e3:a2:06:30:47:
         3e:46:ff:f1:9d:68:6e:5c:36:89:8a:45:bc:a1:d7:07:e8:d3:
         e9:be:b7:61:26:e5:ac:65:f4:4b:d2:c8:63:21:76:26:2e:31:
         44:82:e9:f5:45:34:13:a0:e4:e8:a5:79:40:66:fc:23:c7:b8:
         f2:1f:c4:b1
-----BEGIN CERTIFICATE-----
MIIEJjCCAw6gAwIBAgIEEAAAxjANBgkqhkiG9w0BAQUFADBEMQswCQYDVQQGEwJE
RTEPMA0GA1UECAwGSGVzc2VuMRQwEgYDVQQKDAtwcml2YWN5aWRlYTEOMAwGA1UE
AwwFQ0EwMDEwHhcNMTUwOTI2MTM0NzU1WhcNMTYwOTI1MTM0NzU1WjBUMQswCQYD
VQQGEwJERTEPMA0GA1UECAwGSGVzc2VuMRQwEgYDVQQKDAtwcml2YWN5aWRlYTEe
MBwGA1UEAwwVcmVxdWVzdGVyLmxvY2FsZG9tYWluMIIBIjANBgkqhkiG9w0BAQEF
AAOCAQ8AMIIBCgKCAQEAzb4UT/rOAT9CIhsdnK/dktJ/22y3PjlDQ2sTA/EF9Ad0
vHZpKAuvGY7X/OPNxljyyn8IbVP8BwJEJMa0NEyMBP4zDkDiILoCc1r39U9jbszG
tt9UHTc5fVE2Jl+93D+oi2uirrad1iHn30G4eigqaEjKqC3t4elGXlpybbSEOIeR
/ZQRCyiExsIvKvsB+TZ6CXXRM4g8c0FbyL+UiXCh8MC5LlBTHrEXZGn0LYHgqQ0O
Mum6VYqF8RtvSXm0f4jDDT5UiJs9HziMBPPuamMr9cbbtIOqxHhBOn1L4cg+ccob
YVnqxsTKMl7J6b8SKebGw2P+oFXaevFgmE0m7fpwLQIDAQABo4IBDjCCAQowCwYD
VR0PBAQDAgWgMAkGA1UdEwQCMAAwEQYJYIZIAYb4QgEBBAQDAgZAMDMGCWCGSAGG
+EIBDQQmFiRPcGVuU1NMIEdlbmVyYXRlZCBTZXJ2ZXIgQ2VydGlmaWNhdGUwHQYD
VR0OBBYEFFM/7V0JB7Nle6tFySRbCXeACpbtMHQGA1UdIwRtMGuAFPSnwMyRRq9k
85HyJ/jIsm+KhzJzoUikRjBEMQswCQYDVQQGEwJERTEPMA0GA1UECAwGSGVzc2Vu
MRQwEgYDVQQKDAtwcml2YWN5aWRlYTEOMAwGA1UEAwwFQ0EwMDGCCQD7yOusg80S
BzATBgNVHSUEDDAKBggrBgEFBQcDATANBgkqhkiG9w0BAQUFAAOCAQEAIlQcETQp
P8MSmyKKn9Kypc4EALek99so+Fp7SHti5nLmkXAjoVvh+t5uehau6j8M8oK+U6CW
prV8CM2qcFP7bI9kBGjAoS1ErECuGRsnSa0GgP33DsxFOZp3GBzJJJcS1Z4251z9
OJ6JK6WpFEZWPPowsMMXJTkInw9CjGHBtnFhGMRj/I+Y2Fnu+LhKZmFIG+BlxHr7
sToiE0KWhtD6sWk7u0zYC2VN9VPzoYRZFDJ5OEpcuEEKpTMb2xLoD80L9eOiBjBH
Pkb/8Z1oblw2iYpFvKHXB+jT6b63YSblrGX0S9LIYyF2Ji4xRILp9UU0E6Dk6KV5
QGb8I8e48h/EsQ==
-----END CERTIFICATE-----
