Certificate:
    Data:
        Version: 3 (0x2)
        Serial Number: 268435653 (0x100000c5)
    Signature Algorithm: sha1WithRSAEncryption
        Issuer: C=DE, ST=Hessen, O=privacyidea, CN=CA001
        Validity
            Not Before: Sep 26 13:47:06 2015 GMT
            Not After : Sep 25 13:47:06 2016 GMT
        Subject: CN=Steve Test/emailAddress=steve@openssl.org
        Subject Public Key Info:
            Public Key Algorithm: rsaEncryption
                Public-Key: (2048 bit)
                Modulus:
                    00:d2:81:89:20:51:48:0f:73:f4:11:32:24:d5:1f:
                    1c:fd:5c:f5:b6:e6:c5:f0:52:81:dc:d2:af:66:4a:
                    7c:93:31:61:5c:af:d1:6d:06:70:03:60:7c:72:0c:
                    88:dd:49:cd:9e:02:6c:d2:5a:d7:53:0f:f3:da:be:
                    69:64:b5:0f:0c:00:e3:b3:50:47:a3:b3:9b:ba:13:
                    50:d6:58:5a:4b:ab:39:e0:11:ca:0a:27:67:03:78:
                    22:66:6d:92:1e:1b:5c:49:ae:e6:6b:d1:8e:3b:9d:
                    06:d3:c6:ac:4d:53:43:10:ab:e8:96:c1:87:82:97:
                    99:8f:20:d3:99:12:37:31:84:e1:8a:ff:29:03:5f:
                    22:90:3e:7f:9b:e0:20:c1:ad:dc:ae:4c:39:1a:31:
                    96:17:02:8c:b2:d9:b4:0d:20:12:9b:7d:86:54:fd:
                    33:fd:c1:2a:62:46:f8:60:96:cf:6e:01:6f:22:df:
                    13:47:e7:97:ec:05:72:23:a3:62:f8:fa:ef:ac:9c:
                    72:f0:37:cb:2f:37:cf:90:a8:27:51:86:c6:d7:78:
                    08:8f:7e:25:a2:15:70:a2:fb:1c:b6:15:5e:a0:97:
                    8b:81:4c:09:28:8a:27:3b:94:bc:71:db:5b:71:37:
                    9a:2b:16:e0:6f:b5:c9:f5:4b:4f:20:ba:65:cf:af:
                    ad:ad
                Exponent: 65537 (0x10001)
        X509v3 extensions:
            X509v3 Key Usage: 
                Digital Signature, Key Encipherment
            X509v3 Basic Constraints: 
                CA:FALSE
            Netscape Cert Type: 
                SSL Server
            Netscape Comment: 
                OpenSSL Generated Server Certificate
            X509v3 Subject Key Identifier: 
                E5:25:6D:3E:AF:0D:DD:3F:4C:F2:45:19:39:D5:14:DB:7E:9C:C0:AD
            X509v3 Authority Key Identifier: 
                keyid:F4:A7:C0:CC:91:46:AF:64:F3:91:F2:27:F8:C8:B2:6F:8A:87:32:73
                DirName:/C=DE/ST=Hessen/O=privacyidea/CN=CA001
                serial:FB:C8:EB:AC:83:CD:12:07

            X509v3 Extended Key Usage: 
                TLS Web Server Authentication
    Signature Algorithm: sha1WithRSAEncryption
         2d:dc:66:8b:dc:f0:f0:b4:69:0c:82:74:f4:da:75:33:32:86:
         d8:0c:c7:8e:fc:cd:60:84:54:c0:c3:38:03:58:7d:1a:7a:ec:
         c8:ef:91:8a:62:a6:36:9d:0b:56:53:93:c7:c6:be:73:2a:f8:
         f4:bd:2c:a8:96:88:a9:19:6a:80:d2:60:25:7f:55:5c:29:32:
         32:de:56:bd:73:7e:73:a0:d7:9d:fb:9f:87:26:15:80:36:be:
         d9:c0:a6:6d:a1:d1:02:b9:02:52:26:fc:f5:ce:9a:44:25:85:
         45:84:a2:1b:aa:6e:d6:ba:8a:b7:71:c5:8f:a4:c1:09:c7:b1:
         55:ef:6e:f1:55:24:44:74:5b:ff:fe:23:93:9a:3e:82:2f:37:
         ef:c5:08:3d:5d:88:22:fa:62:8f:8d:ad:f7:a9:95:3f:a3:fa:
         95:60:4d:16:1b:a2:84:da:36:8b:b8:7c:fe:0d:e6:d9:e9:34:
         5f:6d:dc:18:30:27:5c:f7:23:d1:9c:e9:9a:85:7e:3e:56:71:
         d2:80:ea:b7:fe:5d:92:8b:d8:a1:28:b0:b5:e4:dd:40:31:50:
         78:e9:91:85:b2:a9:a5:c9:1b:b7:b1:fc:18:3b:32:d7:ff:70:
         79:29:69:b0:90:c8:bf:67:da:be:49:2b:50:dc:61:c7:0f:95:
         8a:8c:12:36
-----BEGIN CERTIFICATE-----
MIIECTCCAvGgAwIBAgIEEAAAxTANBgkqhkiG9w0BAQUFADBEMQswCQYDVQQGEwJE
RTEPMA0GA1UECAwGSGVzc2VuMRQwEgYDVQQKDAtwcml2YWN5aWRlYTEOMAwGA1UE
AwwFQ0EwMDEwHhcNMTUwOTI2MTM0NzA2WhcNMTYwOTI1MTM0NzA2WjA3MRMwEQYD
VQQDEwpTdGV2ZSBUZXN0MSAwHgYJKoZIhvcNAQkBFhFzdGV2ZUBvcGVuc3NsLm9y
ZzCCASIwDQYJKoZIhvcNAQEBBQADggEPADCCAQoCggEBANKBiSBRSA9z9BEyJNUf
HP1c9bbmxfBSgdzSr2ZKfJMxYVyv0W0GcANgfHIMiN1JzZ4CbNJa11MP89q+aWS1
DwwA47NQR6Ozm7oTUNZYWkurOeARygonZwN4ImZtkh4bXEmu5mvRjjudBtPGrE1T
QxCr6JbBh4KXmY8g05kSNzGE4Yr/KQNfIpA+f5vgIMGt3K5MORoxlhcCjLLZtA0g
Ept9hlT9M/3BKmJG+GCWz24BbyLfE0fnl+wFciOjYvj676yccvA3yy83z5CoJ1GG
xtd4CI9+JaIVcKL7HLYVXqCXi4FMCSiKJzuUvHHbW3E3misW4G+1yfVLTyC6Zc+v
ra0CAwEAAaOCAQ4wggEKMAsGA1UdDwQEAwIFoDAJBgNVHRMEAjAAMBEGCWCGSAGG
+EIBAQQEAwIGQDAzBglghkgBhvhCAQ0EJhYkT3BlblNTTCBHZW5lcmF0ZWQgU2Vy
dmVyIENlcnRpZmljYXRlMB0GA1UdDgQWBBTlJW0+rw3dP0zyRRk51RTbfpzArTB0
BgNVHSMEbTBrgBT0p8DMkUavZPOR8if4yLJviocyc6FIpEYwRDELMAkGA1UEBhMC
REUxDzANBgNVBAgMBkhlc3NlbjEUMBIGA1UECgwLcHJpdmFjeWlkZWExDjAMBgNV
BAMMBUNBMDAxggkA+8jrrIPNEgcwEwYDVR0lBAwwCgYIKwYBBQUHAwEwDQYJKoZI
hvcNAQEFBQADggEBAC3cZovc8PC0aQyCdPTadTMyhtgMx478zWCEVMDDOANYfRp6
7MjvkYpipjadC1ZTk8fGvnMq+PS9LKiWiKkZaoDSYCV/VVwpMjLeVr1zfnOg1537
n4cmFYA2vtnApm2h0QK5AlIm/PXOmkQlhUWEohuqbta6irdxxY+kwQnHsVXvbvFV
JER0W//+I5OaPoIvN+/FCD1diCL6Yo+NrfeplT+j+pVgTRYbooTaNou4fP4N5tnp
NF9t3BgwJ1z3I9Gc6ZqFfj5WcdKA6rf+XZKL2KEosLXk3UAxUHjpkYWyqaXJG7ex
/Bg7Mtf/cHkpabCQyL9n2r5JK1DcYccPlYqMEjY=
-----END CERTIFICATE-----
