Certificate:
    Data:
        Version: 3 (0x2)
        Serial Number: 268435644 (0x100000bc)
    Signature Algorithm: sha1WithRSAEncryption
        Issuer: C=DE, ST=Hessen, O=privacyidea, CN=CA001
        Validity
            Not Before: Oct  1 14:42:02 2015 GMT
            Not After : Sep 30 14:42:02 2016 GMT
        Subject: C=DE, ST=Hessen, O=privacyidea, CN=requester.localdomain
        Subject Public Key Info:
            Public Key Algorithm: rsaEncryption
                Public-Key: (2048 bit)
                Modulus:
                    00:cd:be:14:4f:fa:ce:01:3f:42:22:1b:1d:9c:af:
                    dd:92:d2:7f:db:6c:b7:3e:39:43:43:6b:13:03:f1:
                    05:f4:07:74:bc:76:69:28:0b:af:19:8e:d7:fc:e3:
                    cd:c6:58:f2:ca:7f:08:6d:53:fc:07:02:44:24:c6:
                    b4:34:4c:8c:04:fe:33:0e:40:e2:20:ba:02:73:5a:
                    f7:f5:4f:63:6e:cc:c6:b6:df:54:1d:37:39:7d:51:
                    36:26:5f:bd:dc:3f:a8:8b:6b:a2:ae:b6:9d:d6:21:
                    e7:df:41:b8:7a:28:2a:68:48:ca:a8:2d:ed:e1:e9:
                    46:5e:5a:72:6d:b4:84:38:87:91:fd:94:11:0b:28:
                    84:c6:c2:2f:2a:fb:01:f9:36:7a:09:75:d1:33:88:
                    3c:73:41:5b:c8:bf:94:89:70:a1:f0:c0:b9:2e:50:
                    53:1e:b1:17:64:69:f4:2d:81:e0:a9:0d:0e:32:e9:
                    ba:55:8a:85:f1:1b:6f:49:79:b4:7f:88:c3:0d:3e:
                    54:88:9b:3d:1f:38:8c:04:f3:ee:6a:63:2b:f5:c6:
                    db:b4:83:aa:c4:78:41:3a:7d:4b:e1:c8:3e:71:ca:
                    1b:61:59:ea:c6:c4:ca:32:5e:c9:e9:bf:12:29:e6:
                    c6:c3:63:fe:a0:55:da:7a:f1:60:98:4d:26:ed:fa:
                    70:2d
                Exponent: 65537 (0x10001)
        X509v3 extensions:
            X509v3 Key Usage: 
                Digital Signature, Key Encipherment
            X509v3 Basic Constraints: 
                CA:FALSE
            Netscape Cert Type: 
                SSL Server
            Netscape Comment: 
                OpenSSL Generated Server Certificate
            X509v3 Subject Key Identifier: 
                53:3F:ED:5D:09:07:B3:65:7B:AB:45:C9:24:5B:09:77:80:0A:96:ED
            X509v3 Authority Key Identifier: 
                keyid:F4:A7:C0:CC:91:46:AF:64:F3:91:F2:27:F8:C8:B2:6F:8A:87:32:73
                DirName:/C=DE/ST=Hessen/O=privacyidea/CN=CA001
                serial:FB:C8:EB:AC:83:CD:12:07

            X509v3 Extended Key Usage: 
                TLS Web Server Authentication
    Signature Algorithm: sha1WithRSAEncryption
         ab:2c:02:4a:c5:0b:e6:8e:89:34:9a:30:94:fb:1a:57:10:c0:
         a0:31:aa:e7:0e:8b:64:c6:54:a7:08:ac:bb:62:44:53:ac:8f:
         35:d9:ad:07:e3:e6:47:bc:63:6d:06:86:2a:44:ce:7e:11:87:
         a2:ca:e8:04:69:1e:bc:8e:c2:c7:b3:61:70:e0:50:e5:47:52:
         51:cb:b5:0d:ac:94:ac:cd:9a:4d:f2:59:c6:b1:fa:ca:49:1e:
         a8:02:10:c6:ed:3d:47:6b:fd:98:79:44:22:a6:24:4e:ad:73:
         0b:ae:17:6a:1e:8b:0c:74:09:fc:49:12:20:d0:92:83:c4:0b:
         4b:7f:37:cf:05:31:23:e1:2e:9e:42:f8:3b:ea:a9:ff:f5:1f:
         cd:84:b7:98:2d:69:04:83:3e:24:4f:74:56:7f:d4:aa:c8:28:
         a2:20:a8:86:5a:29:b2:74:91:a5:3d:dd:4d:c3:ca:a5:e1:d9:
         81:34:23:ba:49:c4:d0:df:90:69:34:dc:88:5e:c5:7c:52:4c:
         ba:46:91:13:15:09:e6:6f:d3:67:9f:a1:b5:f4:11:ec:2b:88:
         b0:17:07:f8:cf:04:b0:16:40:f5:56:f3:9b:ac:4a:a1:57:ab:
         6b:1a:7d:95:ef:13:f4:02:18:c5:e5:9e:40:c6:be:c7:dc:6c:
         f7:54:c9:13
-----BEGIN CERTIFICATE-----
MIIEJjCCAw6gAwIBAgIEEAAAvDANBgkqhkiG9w0BAQUFADBEMQswCQYDVQQGEwJE
RTEPMA0GA1UECAwGSGVzc2VuMRQwEgYDVQQKDAtwcml2YWN5aWRlYTEOMAwGA1UE
AwwFQ0EwMDEwHhcNMTUxMDAxMTQ0MjAyWhcNMTYwOTMwMTQ0MjAyWjBUMQswCQYD
VQQGEwJERTEPMA0GA1UECAwGSGVzc2VuMRQwEgYDVQQKDAtwcml2YWN5aWRlYTEe
MBwGA1UEAwwVcmVxdWVzdGVyLmxvY2FsZG9tYWluMIIBIjANBgkqhkiG9w0BAQEF
AAOCAQ8AMIIBCgKCAQEAzb4UT/rOAT9CIhsdnK/dktJ/22y3PjlDQ2sTA/EF9Ad0
vHZpKAuvGY7X/OPNxljyyn8IbVP8BwJEJMa0NEyMBP4zDkDiILoCc1r39U9jbszG
tt9UHTc5fVE2Jl+93D+oi2uirrad1iHn30G4eigqaEjKqC3t4elGXlpybbSEOIeR
/ZQRCyiExsIvKvsB+TZ6CXXRM4g8c0FbyL+UiXCh8MC5LlBTHrEXZGn0LYHgqQ0O
Mum6VYqF8RtvSXm0f4jDDT5UiJs9HziMBPPuamMr9cbbtIOqxHhBOn1L4cg+ccob
YVnqxsTKMl7J6b8SKebGw2P+oFXaevFgmE0m7fpwLQIDAQABo4IBDjCCAQowCwYD
VR0PBAQDAgWgMAkGA1UdEwQCMAAwEQYJYIZIAYb4QgEBBAQDAgZAMDMGCWCGSAGG
+EIBDQQmFiRPcGVuU1NMIEdlbmVyYXRlZCBTZXJ2ZXIgQ2VydGlmaWNhdGUwHQYD
VR0OBBYEFFM/7V0JB7Nle6tFySRbCXeACpbtMHQGA1UdIwRtMGuAFPSnwMyRRq9k
85HyJ/jIsm+KhzJzoUikRjBEMQswCQYDVQQGEwJERTEPMA0GA1UECAwGSGVzc2Vu
MRQwEgYDVQQKDAtwcml2YWN5aWRlYTEOMAwGA1UEAwwFQ0EwMDGCCQD7yOusg80S
BzATBgNVHSUEDDAKBggrBgEFBQcDATANBgkqhkiG9w0BAQUFAAOCAQEAqywCSsUL
5o6JNJowlPsaVxDAoDGq5w6LZMZUpwisu2JEU6yPNdmtB+PmR7xjbQaGKkTOfhGH
osroBGkevI7Cx7NhcOBQ5UdSUcu1DayUrM2aTfJZxrH6ykkeqAIQxu09R2v9mHlE
IqYkTq1zC64Xah6LDHQJ/EkSINCSg8QLS383zwUxI+EunkL4O+qp//UfzYS3mC1p
BIM+JE90Vn/UqsgooiCohlopsnSRpT3dTcPKpeHZgTQjuknE0N+QaTTciF7FfFJM
ukaRExUJ5m/TZ5+htfQR7CuIsBcH+M8EsBZA9Vbzm6xKoVeraxp9le8T9AIYxeWe
QMa+x9xs91TJEw==
-----END CERTIFICATE-----
