Certificate:
    Data:
        Version: 3 (0x2)
        Serial Number: 268435645 (0x100000bd)
    Signature Algorithm: sha1WithRSAEncryption
        Issuer: C=DE, ST=Hessen, O=privacyidea, CN=CA001
        Validity
            Not Before: Oct  1 14:42:32 2015 GMT
            Not After : Sep 30 14:42:32 2016 GMT
        Subject: C=DE, ST=Hessen, O=privacyidea, CN=requester.localdomain
        Subject Public Key Info:
            Public Key Algorithm: rsaEncryption
                Public-Key: (2048 bit)
                Modulus:
                    00:cd:be:14:4f:fa:ce:01:3f:42:22:1b:1d:9c:af:
                    dd:92:d2:7f:db:6c:b7:3e:39:43:43:6b:13:03:f1:
                    05:f4:07:74:bc:76:69:28:0b:af:19:8e:d7:fc:e3:
                    cd:c6:58:f2:ca:7f:08:6d:53:fc:07:02:44:24:c6:
                    b4:34:4c:8c:04:fe:33:0e:40:e2:20:ba:02:73:5a:
                    f7:f5:4f:63:6e:cc:c6:b6:df:54:1d:37:39:7d:51:
                    36:26:5f:bd:dc:3f:a8:8b:6b:a2:ae:b6:9d:d6:21:
                    e7:df:41:b8:7a:28:2a:68:48:ca:a8:2d:ed:e1:e9:
                    46:5e:5a:72:6d:b4:84:38:87:91:fd:94:11:0b:28:
                    84:c6:c2:2f:2a:fb:01:f9:36:7a:09:75:d1:33:88:
                    3c:73:41:5b:c8:bf:94:89:70:a1:f0:c0:b9:2e:50:
                    53:1e:b1:17:64:69:f4:2d:81:e0:a9:0d:0e:32:e9:
                    ba:55:8a:85:f1:1b:6f:49:79:b4:7f:88:c3:0d:3e:
                    54:88:9b:3d:1f:38:8c:04:f3:ee:6a:63:2b:f5:c6:
                    db:b4:83:aa:c4:78:41:3a:7d:4b:e1:c8:3e:71:ca:
                    1b:61:59:ea:c6:c4:ca:32:5e:c9:e9:bf:12:29:e6:
                    c6:c3:63:fe:a0:55:da:7a:f1:60:98:4d:26:ed:fa:
                    70:2d
                Exponent: 65537 (0x10001)
        X509v3 extensions:
            X509v3 Key Usage: 
                Digital Signature, Key Encipherment
            X509v3 Basic Constraints: 
                CA:FALSE
            Netscape Cert Type: 
                SSL Server
            Netscape Comment: 
                OpenSSL Generated Server Certificate
            X509v3 Subject Key Identifier: 
                53:3F:ED:5D:09:07:B3:65:7B:AB:45:C9:24:5B:09:77:80:0A:96:ED
            X509v3 Authority Key Identifier: 
                keyid:F4:A7:C0:CC:91:46:AF:64:F3:91:F2:27:F8:C8:B2:6F:8A:87:32:73
                DirName:/C=DE/ST=Hessen/O=privacyidea/CN=CA001
                serial:FB:C8:EB:AC:83:CD:12:07

            X509v3 Extended Key Usage: 
                TLS Web Server Authentication
    Signature Algorithm: sha1WithRSAEncryption
         38:e4:97:8d:f2:5f:92:36:e8:bd:07:1a:48:28:ff:c9:12:53:
         16:16:bf:46:2c:3e:58:7b:32:d1:f3:06:02:ed:70:8e:e5:e7:
         a8:55:6a:a4:06:24:6b:88:04:ae:61:b5:46:5c:72:de:82:e5:
         84:d6:64:1f:f0:75:71:09:4f:7d:c3:ce:31:3a:c6:b9:18:4b:
         8f:d0:4d:b6:59:6e:78:ea:c6:d8:49:95:dc:54:53:c5:86:13:
         96:b5:5a:0b:ab:d9:c2:6a:e2:eb:09:69:6e:cd:57:e2:af:9b:
         32:bc:8a:a3:30:e1:0d:0a:b8:cf:12:4d:85:4d:78:8a:c3:61:
         21:48:ab:51:23:7c:c1:db:cc:67:4e:2a:60:46:18:7a:7a:22:
         a2:7f:b2:07:6b:da:18:95:a3:3c:60:88:af:1e:6c:6d:31:81:
         9e:63:e0:36:55:53:59:50:d8:67:c3:9a:85:80:6d:d0:a1:98:
         0d:f9:8f:83:c7:a7:ab:9b:d5:49:d1:93:76:94:4e:84:66:5c:
         b1:a0:b8:a9:0c:b3:13:ff:3a:fc:2d:55:b6:48:1e:2b:bd:4c:
         74:c7:86:97:f4:f6:5d:bb:a4:be:7c:d4:9d:e4:70:c3:03:44:
         4b:c2:a3:14:35:40:d2:a5:2c:80:4a:2e:97:f4:44:b3:3a:44:
         ce:34:91:2c
-----BEGIN CERTIFICATE-----
MIIEJjCCAw6gAwIBAgIEEAAAvTANBgkqhkiG9w0BAQUFADBEMQswCQYDVQQGEwJE
RTEPMA0GA1UECAwGSGVzc2VuMRQwEgYDVQQKDAtwcml2YWN5aWRlYTEOMAwGA1UE
AwwFQ0EwMDEwHhcNMTUxMDAxMTQ0MjMyWhcNMTYwOTMwMTQ0MjMyWjBUMQswCQYD
VQQGEwJERTEPMA0GA1UECAwGSGVzc2VuMRQwEgYDVQQKDAtwcml2YWN5aWRlYTEe
MBwGA1UEAwwVcmVxdWVzdGVyLmxvY2FsZG9tYWluMIIBIjANBgkqhkiG9w0BAQEF
AAOCAQ8AMIIBCgKCAQEAzb4UT/rOAT9CIhsdnK/dktJ/22y3PjlDQ2sTA/EF9Ad0
vHZpKAuvGY7X/OPNxljyyn8IbVP8BwJEJMa0NEyMBP4zDkDiILoCc1r39U9jbszG
tt9UHTc5fVE2Jl+93D+oi2uirrad1iHn30G4eigqaEjKqC3t4elGXlpybbSEOIeR
/ZQRCyiExsIvKvsB+TZ6CXXRM4g8c0FbyL+UiXCh8MC5LlBTHrEXZGn0LYHgqQ0O
Mum6VYqF8RtvSXm0f4jDDT5UiJs9HziMBPPuamMr9cbbtIOqxHhBOn1L4cg+ccob
YVnqxsTKMl7J6b8SKebGw2P+oFXaevFgmE0m7fpwLQIDAQABo4IBDjCCAQowCwYD
VR0PBAQDAgWgMAkGA1UdEwQCMAAwEQYJYIZIAYb4QgEBBAQDAgZAMDMGCWCGSAGG
+EIBDQQmFiRPcGVuU1NMIEdlbmVyYXRlZCBTZXJ2ZXIgQ2VydGlmaWNhdGUwHQYD
VR0OBBYEFFM/7V0JB7Nle6tFySRbCXeACpbtMHQGA1UdIwRtMGuAFPSnwMyRRq9k
85HyJ/jIsm+KhzJzoUikRjBEMQswCQYDVQQGEwJERTEPMA0GA1UECAwGSGVzc2Vu
MRQwEgYDVQQKDAtwcml2YWN5aWRlYTEOMAwGA1UEAwwFQ0EwMDGCCQD7yOusg80S
BzATBgNVHSUEDDAKBggrBgEFBQcDATANBgkqhkiG9w0BAQUFAAOCAQEAOOSXjfJf
kjbovQcaSCj/yRJTFha/Riw+WHsy0fMGAu1wjuXnqFVqpAYka4gErmG1Rlxy3oLl
hNZkH/B1cQlPfcPOMTrGuRhLj9BNtllueOrG2EmV3FRTxYYTlrVaC6vZwmri6wlp
bs1X4q+bMryKozDhDQq4zxJNhU14isNhIUirUSN8wdvMZ04qYEYYenoion+yB2va
GJWjPGCIrx5sbTGBnmPgNlVTWVDYZ8OahYBt0KGYDfmPg8enq5vVSdGTdpROhGZc
saC4qQyzE/86/C1VtkgeK71MdMeGl/T2XbukvnzUneRwwwNES8KjFDVA0qUsgEou
l/REszpEzjSRLA==
-----END CERTIFICATE-----
