Certificate:
    Data:
        Version: 3 (0x2)
        Serial Number: 268435651 (0x100000c3)
    Signature Algorithm: sha1WithRSAEncryption
        Issuer: C=DE, ST=Hessen, O=privacyidea, CN=CA001
        Validity
            Not Before: Sep 26 13:47:05 2015 GMT
            Not After : Sep 25 13:47:05 2016 GMT
        Subject: C=DE, ST=Hessen, O=privacyidea, CN=requester.localdomain
        Subject Public Key Info:
            Public Key Algorithm: rsaEncryption
                Public-Key: (2048 bit)
                Modulus:
                    00:cd:be:14:4f:fa:ce:01:3f:42:22:1b:1d:9c:af:
                    dd:92:d2:7f:db:6c:b7:3e:39:43:43:6b:13:03:f1:
                    05:f4:07:74:bc:76:69:28:0b:af:19:8e:d7:fc:e3:
                    cd:c6:58:f2:ca:7f:08:6d:53:fc:07:02:44:24:c6:
                    b4:34:4c:8c:04:fe:33:0e:40:e2:20:ba:02:73:5a:
                    f7:f5:4f:63:6e:cc:c6:b6:df:54:1d:37:39:7d:51:
                    36:26:5f:bd:dc:3f:a8:8b:6b:a2:ae:b6:9d:d6:21:
                    e7:df:41:b8:7a:28:2a:68:48:ca:a8:2d:ed:e1:e9:
                    46:5e:5a:72:6d:b4:84:38:87:91:fd:94:11:0b:28:
                    84:c6:c2:2f:2a:fb:01:f9:36:7a:09:75:d1:33:88:
                    3c:73:41:5b:c8:bf:94:89:70:a1:f0:c0:b9:2e:50:
                    53:1e:b1:17:64:69:f4:2d:81:e0:a9:0d:0e:32:e9:
                    ba:55:8a:85:f1:1b:6f:49:79:b4:7f:88:c3:0d:3e:
                    54:88:9b:3d:1f:38:8c:04:f3:ee:6a:63:2b:f5:c6:
                    db:b4:83:aa:c4:78:41:3a:7d:4b:e1:c8:3e:71:ca:
                    1b:61:59:ea:c6:c4:ca:32:5e:c9:e9:bf:12:29:e6:
                    c6:c3:63:fe:a0:55:da:7a:f1:60:98:4d:26:ed:fa:
                    70:2d
                Exponent: 65537 (0x10001)
        X509v3 extensions:
            X509v3 Key Usage: 
                Digital Signature, Key Encipherment
            X509v3 Basic Constraints: 
                CA:FALSE
            Netscape Cert Type: 
                SSL Server
            Netscape Comment: 
                OpenSSL Generated Server Certificate
            X509v3 Subject Key Identifier: 
                53:3F:ED:5D:09:07:B3:65:7B:AB:45:C9:24:5B:09:77:80:0A:96:ED
            X509v3 Authority Key Identifier: 
                keyid:F4:A7:C0:CC:91:46:AF:64:F3:91:F2:27:F8:C8:B2:6F:8A:87:32:73
                DirName:/C=DE/ST=Hessen/O=privacyidea/CN=CA001
                serial:FB:C8:EB:AC:83:CD:12:07

            X509v3 Extended Key Usage: 
                TLS Web Server Authentication
    Signature Algorithm: sha1WithRSAEncryption
         88:fa:a1:df:fa:4d:ac:f5:58:56:84:5c:f1:29:d8:93:07:64:
         e6:af:49:4e:7f:1e:11:05:09:14:a4:59:e2:63:21:b6:9e:cb:
         7d:d5:f9:f1:33:11:f6:ac:51:ed:9f:9b:6b:e0:a6:9b:cd:18:
         04:ca:0b:7f:9c:31:95:a1:27:02:b9:59:7d:45:4a:f7:46:a9:
         dc:d0:43:9a:e1:04:88:5f:42:d1:ed:7c:8d:f1:8e:3c:d7:b0:
         b4:06:ef:db:c1:eb:88:94:11:4e:c2:28:71:7f:ed:4c:16:84:
         d8:01:83:2e:1f:12:ad:d5:df:82:a0:52:a6:16:ce:6a:b3:da:
         50:ae:2b:8e:94:c2:54:de:f1:16:cb:88:1b:89:51:bd:8f:b4:
         c5:1a:48:16:56:be:0d:e5:1f:aa:16:8d:a1:a0:f9:0a:f7:92:
         8f:fe:6d:8e:c5:8f:0d:38:87:ae:0b:ba:b4:73:28:b0:6f:95:
         cc:d2:c4:60:e4:5f:26:72:26:91:eb:15:b3:d7:cb:19:9e:0e:
         da:2a:e0:94:dc:38:98:e8:67:c0:38:8b:15:9d:e9:a4:ea:ce:
         9c:69:87:fb:a7:ef:3f:55:92:c3:e3:89:81:09:84:cf:ad:d2:
         97:b8:84:39:9e:0b:34:6a:fd:95:15:0e:07:1f:eb:63:b1:d8:
         ff:5a:e6:4f
-----BEGIN CERTIFICATE-----
MIIEJjCCAw6gAwIBAgIEEAAAwzANBgkqhkiG9w0BAQUFADBEMQswCQYDVQQGEwJE
RTEPMA0GA1UECAwGSGVzc2VuMRQwEgYDVQQKDAtwcml2YWN5aWRlYTEOMAwGA1UE
AwwFQ0EwMDEwHhcNMTUwOTI2MTM0NzA1WhcNMTYwOTI1MTM0NzA1WjBUMQswCQYD
VQQGEwJERTEPMA0GA1UECAwGSGVzc2VuMRQwEgYDVQQKDAtwcml2YWN5aWRlYTEe
MBwGA1UEAwwVcmVxdWVzdGVyLmxvY2FsZG9tYWluMIIBIjANBgkqhkiG9w0BAQEF
AAOCAQ8AMIIBCgKCAQEAzb4UT/rOAT9CIhsdnK/dktJ/22y3PjlDQ2sTA/EF9Ad0
vHZpKAuvGY7X/OPNxljyyn8IbVP8BwJEJMa0NEyMBP4zDkDiILoCc1r39U9jbszG
tt9UHTc5fVE2Jl+93D+oi2uirrad1iHn30G4eigqaEjKqC3t4elGXlpybbSEOIeR
/ZQRCyiExsIvKvsB+TZ6CXXRM4g8c0FbyL+UiXCh8MC5LlBTHrEXZGn0LYHgqQ0O
Mum6VYqF8RtvSXm0f4jDDT5UiJs9HziMBPPuamMr9cbbtIOqxHhBOn1L4cg+ccob
YVnqxsTKMl7J6b8SKebGw2P+oFXaevFgmE0m7fpwLQIDAQABo4IBDjCCAQowCwYD
VR0PBAQDAgWgMAkGA1UdEwQCMAAwEQYJYIZIAYb4QgEBBAQDAgZAMDMGCWCGSAGG
+EIBDQQmFiRPcGVuU1NMIEdlbmVyYXRlZCBTZXJ2ZXIgQ2VydGlmaWNhdGUwHQYD
VR0OBBYEFFM/7V0JB7Nle6tFySRbCXeACpbtMHQGA1UdIwRtMGuAFPSnwMyRRq9k
85HyJ/jIsm+KhzJzoUikRjBEMQswCQYDVQQGEwJERTEPMA0GA1UECAwGSGVzc2Vu
MRQwEgYDVQQKDAtwcml2YWN5aWRlYTEOMAwGA1UEAwwFQ0EwMDGCCQD7yOusg80S
BzATBgNVHSUEDDAKBggrBgEFBQcDATANBgkqhkiG9w0BAQUFAAOCAQEAiPqh3/pN
rPVYVoRc8SnYkwdk5q9JTn8eEQUJFKRZ4mMhtp7LfdX58TMR9qxR7Z+ba+Cmm80Y
BMoLf5wxlaEnArlZfUVK90ap3NBDmuEEiF9C0e18jfGOPNewtAbv28HriJQRTsIo
cX/tTBaE2AGDLh8SrdXfgqBSphbOarPaUK4rjpTCVN7xFsuIG4lRvY+0xRpIFla+
DeUfqhaNoaD5CveSj/5tjsWPDTiHrgu6tHMosG+VzNLEYORfJnImkesVs9fLGZ4O
2irglNw4mOhnwDiLFZ3ppOrOnGmH+6fvP1WSw+OJgQmEz63Sl7iEOZ4LNGr9lRUO
Bx/rY7HY/1rmTw==
-----END CERTIFICATE-----
