Certificate:
    Data:
        Version: 3 (0x2)
        Serial Number: 268435638 (0x100000b6)
    Signature Algorithm: sha1WithRSAEncryption
        Issuer: C=DE, ST=Hessen, O=privacyidea, CN=CA001
        Validity
            Not Before: Oct  5 15:32:41 2015 GMT
            Not After : Oct  4 15:32:41 2016 GMT
        Subject: C=DE, ST=Hessen, O=privacyidea, CN=requester.localdomain
        Subject Public Key Info:
            Public Key Algorithm: rsaEncryption
                Public-Key: (2048 bit)
                Modulus:
                    00:cd:be:14:4f:fa:ce:01:3f:42:22:1b:1d:9c:af:
                    dd:92:d2:7f:db:6c:b7:3e:39:43:43:6b:13:03:f1:
                    05:f4:07:74:bc:76:69:28:0b:af:19:8e:d7:fc:e3:
                    cd:c6:58:f2:ca:7f:08:6d:53:fc:07:02:44:24:c6:
                    b4:34:4c:8c:04:fe:33:0e:40:e2:20:ba:02:73:5a:
                    f7:f5:4f:63:6e:cc:c6:b6:df:54:1d:37:39:7d:51:
                    36:26:5f:bd:dc:3f:a8:8b:6b:a2:ae:b6:9d:d6:21:
                    e7:df:41:b8:7a:28:2a:68:48:ca:a8:2d:ed:e1:e9:
                    46:5e:5a:72:6d:b4:84:38:87:91:fd:94:11:0b:28:
                    84:c6:c2:2f:2a:fb:01:f9:36:7a:09:75:d1:33:88:
                    3c:73:41:5b:c8:bf:94:89:70:a1:f0:c0:b9:2e:50:
                    53:1e:b1:17:64:69:f4:2d:81:e0:a9:0d:0e:32:e9:
                    ba:55:8a:85:f1:1b:6f:49:79:b4:7f:88:c3:0d:3e:
                    54:88:9b:3d:1f:38:8c:04:f3:ee:6a:63:2b:f5:c6:
                    db:b4:83:aa:c4:78:41:3a:7d:4b:e1:c8:3e:71:ca:
                    1b:61:59:ea:c6:c4:ca:32:5e:c9:e9:bf:12:29:e6:
                    c6:c3:63:fe:a0:55:da:7a:f1:60:98:4d:26:ed:fa:
                    70:2d
                Exponent: 65537 (0x10001)
        X509v3 extensions:
            X509v3 Key Usage: 
                Digital Signature, Key Encipherment
            X509v3 Basic Constraints: 
                CA:FALSE
            Netscape Cert Type: 
                SSL Server
            Netscape Comment: 
                OpenSSL Generated Server Certificate
            X509v3 Subject Key Identifier: 
                53:3F:ED:5D:09:07:B3:65:7B:AB:45:C9:24:5B:09:77:80:0A:96:ED
            X509v3 Authority Key Identifier: 
                keyid:F4:A7:C0:CC:91:46:AF:64:F3:91:F2:27:F8:C8:B2:6F:8A:87:32:73
                DirName:/C=DE/ST=Hessen/O=privacyidea/CN=CA001
                serial:FB:C8:EB:AC:83:CD:12:07

            X509v3 Extended Key Usage: 
                TLS Web Server Authentication
    Signature Algorithm: sha1WithRSAEncryption
         97:d2:dc:46:90:1c:ca:a9:f6:57:7d:cb:f0:6d:6c:cb:60:f5:
         56:e9:3d:04:cd:c7:11:cb:e3:69:f8:a9:0f:8a:ff:ac:cf:58:
         0e:a4:15:6d:2c:6e:f8:bc:5b:7d:98:70:25:78:91:83:dd:ad:
         f2:22:c8:55:51:fe:9a:ac:2e:a8:9b:86:50:75:60:b0:9c:3d:
         f6:0c:36:4d:04:c3:30:cf:39:27:67:d1:bf:11:17:ae:4d:4b:
         77:31:c6:7e:db:3f:58:e4:5d:8c:b2:76:51:6e:16:70:f1:18:
         3b:0e:7c:59:64:43:ec:cb:e9:a9:2a:9c:e4:6d:d3:4e:31:94:
         e9:b5:79:80:9a:ad:ca:36:4f:bf:4f:8f:25:cc:a1:f1:3a:da:
         af:dd:05:0f:cd:81:c8:74:39:9d:d8:5d:3d:7a:da:4d:9e:9d:
         ce:52:9a:1c:a1:29:ee:38:0d:ea:e6:00:dd:61:53:b8:19:be:
         89:4b:08:6e:98:97:fd:52:52:b6:fc:73:de:2d:b5:47:ca:42:
         9b:8d:64:1e:f2:88:99:5a:72:32:3c:f0:81:6c:6f:ba:1a:fd:
         f1:5f:95:fc:6e:6d:a6:42:81:b8:01:fc:34:18:33:e4:82:e5:
         e6:06:0b:9d:cb:9a:e9:a5:ad:ae:5f:5e:6d:a7:5d:64:6f:32:
         44:4d:d7:72
-----BEGIN CERTIFICATE-----
MIIEJjCCAw6gAwIBAgIEEAAAtjANBgkqhkiG9w0BAQUFADBEMQswCQYDVQQGEwJE
RTEPMA0GA1UECAwGSGVzc2VuMRQwEgYDVQQKDAtwcml2YWN5aWRlYTEOMAwGA1UE
AwwFQ0EwMDEwHhcNMTUxMDA1MTUzMjQxWhcNMTYxMDA0MTUzMjQxWjBUMQswCQYD
VQQGEwJERTEPMA0GA1UECAwGSGVzc2VuMRQwEgYDVQQKDAtwcml2YWN5aWRlYTEe
MBwGA1UEAwwVcmVxdWVzdGVyLmxvY2FsZG9tYWluMIIBIjANBgkqhkiG9w0BAQEF
AAOCAQ8AMIIBCgKCAQEAzb4UT/rOAT9CIhsdnK/dktJ/22y3PjlDQ2sTA/EF9Ad0
vHZpKAuvGY7X/OPNxljyyn8IbVP8BwJEJMa0NEyMBP4zDkDiILoCc1r39U9jbszG
tt9UHTc5fVE2Jl+93D+oi2uirrad1iHn30G4eigqaEjKqC3t4elGXlpybbSEOIeR
/ZQRCyiExsIvKvsB+TZ6CXXRM4g8c0FbyL+UiXCh8MC5LlBTHrEXZGn0LYHgqQ0O
Mum6VYqF8RtvSXm0f4jDDT5UiJs9HziMBPPuamMr9cbbtIOqxHhBOn1L4cg+ccob
YVnqxsTKMl7J6b8SKebGw2P+oFXaevFgmE0m7fpwLQIDAQABo4IBDjCCAQowCwYD
VR0PBAQDAgWgMAkGA1UdEwQCMAAwEQYJYIZIAYb4QgEBBAQDAgZAMDMGCWCGSAGG
+EIBDQQmFiRPcGVuU1NMIEdlbmVyYXRlZCBTZXJ2ZXIgQ2VydGlmaWNhdGUwHQYD
VR0OBBYEFFM/7V0JB7Nle6tFySRbCXeACpbtMHQGA1UdIwRtMGuAFPSnwMyRRq9k
85HyJ/jIsm+KhzJzoUikRjBEMQswCQYDVQQGEwJERTEPMA0GA1UECAwGSGVzc2Vu
MRQwEgYDVQQKDAtwcml2YWN5aWRlYTEOMAwGA1UEAwwFQ0EwMDGCCQD7yOusg80S
BzATBgNVHSUEDDAKBggrBgEFBQcDATANBgkqhkiG9w0BAQUFAAOCAQEAl9LcRpAc
yqn2V33L8G1sy2D1Vuk9BM3HEcvjafipD4r/rM9YDqQVbSxu+LxbfZhwJXiRg92t
8iLIVVH+mqwuqJuGUHVgsJw99gw2TQTDMM85J2fRvxEXrk1LdzHGfts/WORdjLJ2
UW4WcPEYOw58WWRD7MvpqSqc5G3TTjGU6bV5gJqtyjZPv0+PJcyh8Trar90FD82B
yHQ5ndhdPXraTZ6dzlKaHKEp7jgN6uYA3WFTuBm+iUsIbpiX/VJStvxz3i21R8pC
m41kHvKImVpyMjzwgWxvuhr98V+V/G5tpkKBuAH8NBgz5ILl5gYLncua6aWtrl9e
baddZG8yRE3Xcg==
-----END CERTIFICATE-----
