Certificate:
    Data:
        Version: 3 (0x2)
        Serial Number: 268435664 (0x100000d0)
    Signature Algorithm: sha1WithRSAEncryption
        Issuer: C=DE, ST=Hessen, O=privacyidea, CN=CA001
        Validity
            Not Before: Sep 26 14:28:45 2015 GMT
            Not After : Sep 25 14:28:45 2016 GMT
        Subject: CN=Steve Test/emailAddress=steve@openssl.org
        Subject Public Key Info:
            Public Key Algorithm: rsaEncryption
                Public-Key: (2048 bit)
                Modulus:
                    00:d2:81:89:20:51:48:0f:73:f4:11:32:24:d5:1f:
                    1c:fd:5c:f5:b6:e6:c5:f0:52:81:dc:d2:af:66:4a:
                    7c:93:31:61:5c:af:d1:6d:06:70:03:60:7c:72:0c:
                    88:dd:49:cd:9e:02:6c:d2:5a:d7:53:0f:f3:da:be:
                    69:64:b5:0f:0c:00:e3:b3:50:47:a3:b3:9b:ba:13:
                    50:d6:58:5a:4b:ab:39:e0:11:ca:0a:27:67:03:78:
                    22:66:6d:92:1e:1b:5c:49:ae:e6:6b:d1:8e:3b:9d:
                    06:d3:c6:ac:4d:53:43:10:ab:e8:96:c1:87:82:97:
                    99:8f:20:d3:99:12:37:31:84:e1:8a:ff:29:03:5f:
                    22:90:3e:7f:9b:e0:20:c1:ad:dc:ae:4c:39:1a:31:
                    96:17:02:8c:b2:d9:b4:0d:20:12:9b:7d:86:54:fd:
                    33:fd:c1:2a:62:46:f8:60:96:cf:6e:01:6f:22:df:
                    13:47:e7:97:ec:05:72:23:a3:62:f8:fa:ef:ac:9c:
                    72:f0:37:cb:2f:37:cf:90:a8:27:51:86:c6:d7:78:
                    08:8f:7e:25:a2:15:70:a2:fb:1c:b6:15:5e:a0:97:
                    8b:81:4c:09:28:8a:27:3b:94:bc:71:db:5b:71:37:
                    9a:2b:16:e0:6f:b5:c9:f5:4b:4f:20:ba:65:cf:af:
                    ad:ad
                Exponent: 65537 (0x10001)
        X509v3 extensions:
            X509v3 Key Usage: 
                Digital Signature, Key Encipherment
            X509v3 Basic Constraints: 
                CA:FALSE
            Netscape Cert Type: 
                SSL Server
            Netscape Comment: 
                OpenSSL Generated Server Certificate
            X509v3 Subject Key Identifier: 
                E5:25:6D:3E:AF:0D:DD:3F:4C:F2:45:19:39:D5:14:DB:7E:9C:C0:AD
            X509v3 Authority Key Identifier: 
                keyid:F4:A7:C0:CC:91:46:AF:64:F3:91:F2:27:F8:C8:B2:6F:8A:87:32:73
                DirName:/C=DE/ST=Hessen/O=privacyidea/CN=CA001
                serial:FB:C8:EB:AC:83:CD:12:07

            X509v3 Extended Key Usage: 
                TLS Web Server Authentication
    Signature Algorithm: sha1WithRSAEncryption
         87:7c:0f:93:57:16:e3:14:82:c2:eb:0a:9d:47:72:29:3e:a8:
         f1:d3:c5:4d:ef:42:b0:ff:be:96:d3:50:39:51:fa:02:bd:3b:
         d9:58:12:3f:80:e8:05:f2:16:c5:4a:30:58:62:91:78:c8:a3:
         6f:72:c9:55:5e:eb:a5:21:70:58:8d:ec:a2:37:52:a4:fc:96:
         73:3a:df:12:fb:35:4f:5d:99:a0:49:de:18:af:35:83:21:00:
         e6:b1:ae:f4:70:82:13:13:52:15:66:9a:2f:88:ff:d4:f1:a4:
         6b:bf:ac:83:21:4d:6b:fa:40:11:88:fc:18:43:10:cb:7a:31:
         65:44:de:30:35:79:51:13:7e:6e:b3:d7:9f:90:7f:c2:a6:71:
         48:51:7c:52:cc:aa:20:2e:ab:b7:c8:c3:8d:6c:96:3c:bf:76:
         ab:d3:60:4e:ed:3b:b1:f2:03:1f:84:ae:03:f2:e1:c1:75:45:
         2d:68:a9:9b:da:7d:e8:3e:1a:63:1e:6f:ff:a9:ad:46:89:29:
         75:f8:ac:bd:85:58:6d:e0:6b:75:8c:86:d0:d4:4a:1f:08:85:
         e0:aa:98:b5:e2:9e:0b:6b:e9:18:00:cf:98:5e:f5:0b:17:8b:
         d8:2f:2e:2f:01:97:fd:1e:c5:15:bd:56:7a:6d:ae:10:50:6a:
         e5:f8:3e:8b
-----BEGIN CERTIFICATE-----
MIIECTCCAvGgAwIBAgIEEAAA0DANBgkqhkiG9w0BAQUFADBEMQswCQYDVQQGEwJE
RTEPMA0GA1UECAwGSGVzc2VuMRQwEgYDVQQKDAtwcml2YWN5aWRlYTEOMAwGA1UE
AwwFQ0EwMDEwHhcNMTUwOTI2MTQyODQ1WhcNMTYwOTI1MTQyODQ1WjA3MRMwEQYD
VQQDEwpTdGV2ZSBUZXN0MSAwHgYJKoZIhvcNAQkBFhFzdGV2ZUBvcGVuc3NsLm9y
ZzCCASIwDQYJKoZIhvcNAQEBBQADggEPADCCAQoCggEBANKBiSBRSA9z9BEyJNUf
HP1c9bbmxfBSgdzSr2ZKfJMxYVyv0W0GcANgfHIMiN1JzZ4CbNJa11MP89q+aWS1
DwwA47NQR6Ozm7oTUNZYWkurOeARygonZwN4ImZtkh4bXEmu5mvRjjudBtPGrE1T
QxCr6JbBh4KXmY8g05kSNzGE4Yr/KQNfIpA+f5vgIMGt3K5MORoxlhcCjLLZtA0g
Ept9hlT9M/3BKmJG+GCWz24BbyLfE0fnl+wFciOjYvj676yccvA3yy83z5CoJ1GG
xtd4CI9+JaIVcKL7HLYVXqCXi4FMCSiKJzuUvHHbW3E3misW4G+1yfVLTyC6Zc+v
ra0CAwEAAaOCAQ4wggEKMAsGA1UdDwQEAwIFoDAJBgNVHRMEAjAAMBEGCWCGSAGG
+EIBAQQEAwIGQDAzBglghkgBhvhCAQ0EJhYkT3BlblNTTCBHZW5lcmF0ZWQgU2Vy
dmVyIENlcnRpZmljYXRlMB0GA1UdDgQWBBTlJW0+rw3dP0zyRRk51RTbfpzArTB0
BgNVHSMEbTBrgBT0p8DMkUavZPOR8if4yLJviocyc6FIpEYwRDELMAkGA1UEBhMC
REUxDzANBgNVBAgMBkhlc3NlbjEUMBIGA1UECgwLcHJpdmFjeWlkZWExDjAMBgNV
BAMMBUNBMDAxggkA+8jrrIPNEgcwEwYDVR0lBAwwCgYIKwYBBQUHAwEwDQYJKoZI
hvcNAQEFBQADggEBAId8D5NXFuMUgsLrCp1Hcik+qPHTxU3vQrD/vpbTUDlR+gK9
O9lYEj+A6AXyFsVKMFhikXjIo29yyVVe66UhcFiN7KI3UqT8lnM63xL7NU9dmaBJ
3hivNYMhAOaxrvRwghMTUhVmmi+I/9TxpGu/rIMhTWv6QBGI/BhDEMt6MWVE3jA1
eVETfm6z15+Qf8KmcUhRfFLMqiAuq7fIw41sljy/dqvTYE7tO7HyAx+ErgPy4cF1
RS1oqZvafeg+GmMeb/+prUaJKXX4rL2FWG3ga3WMhtDUSh8IheCqmLXingtr6RgA
z5he9QsXi9gvLi8Bl/0exRW9VnptrhBQauX4Pos=
-----END CERTIFICATE-----
