Certificate:
    Data:
        Version: 3 (0x2)
        Serial Number: 268435640 (0x100000b8)
    Signature Algorithm: sha1WithRSAEncryption
        Issuer: C=DE, ST=Hessen, O=privacyidea, CN=CA001
        Validity
            Not Before: Oct  5 15:33:27 2015 GMT
            Not After : Oct  4 15:33:27 2016 GMT
        Subject: C=DE, ST=Hessen, O=privacyidea, CN=usercert
        Subject Public Key Info:
            Public Key Algorithm: rsaEncryption
                Public-Key: (2048 bit)
                Modulus:
                    00:dc:2f:d1:5f:29:97:d4:7c:c3:53:c8:30:bd:4b:
                    67:70:2c:24:6b:b8:5e:eb:21:7a:48:12:56:7c:81:
                    5c:48:75:b6:68:eb:f6:f2:98:4e:50:51:d1:7f:6c:
                    73:f3:0a:a7:ae:be:48:5e:e5:d6:e1:d9:2a:7c:32:
                    6e:4e:fd:08:f6:5a:54:49:23:73:c3:b9:07:18:d1:
                    ef:b3:ac:f8:8a:dc:94:96:a4:90:3a:8e:74:df:e6:
                    0d:37:1b:bd:5b:b7:25:1a:56:39:da:6f:91:aa:5e:
                    1c:74:f3:f9:7c:14:01:83:12:65:76:c7:bb:fe:36:
                    5b:95:e9:72:65:83:ed:3e:98:30:71:fa:87:dd:a3:
                    36:5a:30:03:2e:26:e0:61:d1:bf:02:3f:b6:06:1f:
                    4a:89:28:1c:5c:a2:ff:4e:be:94:e6:8c:e0:da:82:
                    f1:9d:29:32:48:30:73:b4:04:f6:42:1e:be:f7:e2:
                    32:32:27:3c:9d:89:2f:70:3e:85:9a:6f:5c:c5:09:
                    c0:8c:32:2f:72:22:c9:d2:95:1f:b6:ac:72:60:72:
                    b7:82:4d:6b:ce:5b:e3:00:d0:d2:2f:58:c6:e0:10:
                    e5:51:ca:4d:3b:2e:e6:7e:ab:84:d6:56:f1:93:35:
                    a0:93:64:26:81:75:2f:91:b5:16:06:38:0b:db:cc:
                    2d:07
                Exponent: 65537 (0x10001)
        X509v3 extensions:
            X509v3 Key Usage: 
                Digital Signature, Key Encipherment
            X509v3 Basic Constraints: 
                CA:FALSE
            Netscape Cert Type: 
                SSL Server
            Netscape Comment: 
                OpenSSL Generated Server Certificate
            X509v3 Subject Key Identifier: 
                FC:14:D1:F0:4B:8D:00:90:F2:F5:B8:71:9E:4E:97:C3:92:54:AD:0B
            X509v3 Authority Key Identifier: 
                keyid:F4:A7:C0:CC:91:46:AF:64:F3:91:F2:27:F8:C8:B2:6F:8A:87:32:73
                DirName:/C=DE/ST=Hessen/O=privacyidea/CN=CA001
                serial:FB:C8:EB:AC:83:CD:12:07

            X509v3 Extended Key Usage: 
                TLS Web Server Authentication
    Signature Algorithm: sha1WithRSAEncryption
         4e:03:e9:d7:06:fa:65:34:c5:56:6b:83:d7:cc:ff:b4:95:7c:
         db:1d:68:b1:4b:b1:16:fd:26:aa:9a:ec:93:07:fa:9d:de:32:
         1c:e9:47:87:c9:64:71:65:cb:28:cc:1c:c4:c6:8d:10:70:66:
         1d:a3:1e:5f:c6:88:ed:c9:08:85:6c:b1:54:44:43:41:9a:08:
         67:56:5c:c2:61:b9:84:2f:a5:fc:f4:36:1c:29:e7:c3:51:ea:
         49:21:1f:d2:f8:d9:41:87:d3:cc:ae:80:17:e0:95:a0:b2:a9:
         e6:bb:8e:cb:b3:44:8b:62:89:99:bb:4b:99:cb:23:a2:ce:f4:
         d5:a0:b2:06:71:eb:54:a2:00:d4:57:9c:79:55:70:47:1d:72:
         56:c5:00:12:6a:98:5f:d6:fa:ce:97:0e:2c:c8:cb:ab:ca:51:
         60:84:f7:72:f0:05:e4:a0:6e:46:c1:41:7e:c9:c0:85:79:ba:
         53:96:1b:61:b4:0b:2c:28:4d:37:0a:6e:62:e3:e2:6e:39:ae:
         43:6b:90:a5:32:fe:08:d2:fd:72:35:b5:30:b5:b9:b3:c5:35:
         83:d0:36:71:9a:71:3c:1c:cd:61:cb:66:1f:50:5b:42:d5:11:
         b9:da:da:0b:82:3e:e0:a9:af:2d:ce:8a:c3:60:5d:f5:26:34:
         8f:96:05:a2
-----BEGIN CERTIFICATE-----
MIIEGTCCAwGgAwIBAgIEEAAAuDANBgkqhkiG9w0BAQUFADBEMQswCQYDVQQGEwJE
RTEPMA0GA1UECAwGSGVzc2VuMRQwEgYDVQQKDAtwcml2YWN5aWRlYTEOMAwGA1UE
AwwFQ0EwMDEwHhcNMTUxMDA1MTUzMzI3WhcNMTYxMDA0MTUzMzI3WjBHMQswCQYD
VQQGEwJERTEPMA0GA1UECAwGSGVzc2VuMRQwEgYDVQQKDAtwcml2YWN5aWRlYTER
MA8GA1UEAwwIdXNlcmNlcnQwggEiMA0GCSqGSIb3DQEBAQUAA4IBDwAwggEKAoIB
AQDcL9FfKZfUfMNTyDC9S2dwLCRruF7rIXpIElZ8gVxIdbZo6/bymE5QUdF/bHPz
Cqeuvkhe5dbh2Sp8Mm5O/Qj2WlRJI3PDuQcY0e+zrPiK3JSWpJA6jnTf5g03G71b
tyUaVjnab5GqXhx08/l8FAGDEmV2x7v+NluV6XJlg+0+mDBx+ofdozZaMAMuJuBh
0b8CP7YGH0qJKBxcov9OvpTmjODagvGdKTJIMHO0BPZCHr734jIyJzydiS9wPoWa
b1zFCcCMMi9yIsnSlR+2rHJgcreCTWvOW+MA0NIvWMbgEOVRyk07LuZ+q4TWVvGT
NaCTZCaBdS+RtRYGOAvbzC0HAgMBAAGjggEOMIIBCjALBgNVHQ8EBAMCBaAwCQYD
VR0TBAIwADARBglghkgBhvhCAQEEBAMCBkAwMwYJYIZIAYb4QgENBCYWJE9wZW5T
U0wgR2VuZXJhdGVkIFNlcnZlciBDZXJ0aWZpY2F0ZTAdBgNVHQ4EFgQU/BTR8EuN
AJDy9bhxnk6Xw5JUrQswdAYDVR0jBG0wa4AU9KfAzJFGr2TzkfIn+Miyb4qHMnOh
SKRGMEQxCzAJBgNVBAYTAkRFMQ8wDQYDVQQIDAZIZXNzZW4xFDASBgNVBAoMC3By
aXZhY3lpZGVhMQ4wDAYDVQQDDAVDQTAwMYIJAPvI66yDzRIHMBMGA1UdJQQMMAoG
CCsGAQUFBwMBMA0GCSqGSIb3DQEBBQUAA4IBAQBOA+nXBvplNMVWa4PXzP+0lXzb
HWixS7EW/SaqmuyTB/qd3jIc6UeHyWRxZcsozBzExo0QcGYdox5fxojtyQiFbLFU
RENBmghnVlzCYbmEL6X89DYcKefDUepJIR/S+NlBh9PMroAX4JWgsqnmu47Ls0SL
YomZu0uZyyOizvTVoLIGcetUogDUV5x5VXBHHXJWxQASaphf1vrOlw4syMurylFg
hPdy8AXkoG5GwUF+ycCFebpTlhthtAssKE03Cm5i4+JuOa5Da5ClMv4I0v1yNbUw
tbmzxTWD0DZxmnE8HM1hy2YfUFtC1RG52toLgj7gqa8tzorDYF31JjSPlgWi
-----END CERTIFICATE-----
