Certificate:
    Data:
        Version: 3 (0x2)
        Serial Number: 268435643 (0x100000bb)
    Signature Algorithm: sha1WithRSAEncryption
        Issuer: C=DE, ST=Hessen, O=privacyidea, CN=CA001
        Validity
            Not Before: Nov 16 10:02:50 2015 GMT
            Not After : Nov 15 10:02:50 2016 GMT
        Subject: CN=selfservice,CN=user,O=realm1/emailAddress=meine
        Subject Public Key Info:
            Public Key Algorithm: rsaEncryption
                Public-Key: (2048 bit)
                Modulus:
                    00:cf:3c:d4:33:0e:12:c4:e6:da:cd:b6:56:a1:1c:
                    26:bb:26:1c:8a:4a:73:a8:58:8a:b6:1e:b3:8b:99:
                    d2:1d:07:c2:92:89:79:c0:69:d8:c8:df:28:61:98:
                    1e:b3:fe:ae:2b:bd:78:a9:f7:6e:47:dc:a3:a0:16:
                    8c:85:02:c1:4e:92:fd:72:6e:f0:c8:03:29:9b:b8:
                    00:6e:c0:83:95:c8:34:20:36:9c:b3:e5:e4:e6:76:
                    73:a3:1a:ad:40:96:e0:53:54:00:ec:76:79:9a:c6:
                    0d:7e:b6:bd:29:ec:83:f3:cb:89:a4:cb:6c:00:ba:
                    0c:c5:78:0f:ff:69:b8:94:f4:04:70:43:3f:d8:9e:
                    d7:a7:fb:5d:ce:75:8e:da:e7:c4:07:b1:9d:de:6f:
                    88:4b:b6:4d:9a:cf:f9:bc:fa:9f:cd:32:6d:f6:3a:
                    0b:0d:23:42:78:ec:97:42:bf:0e:4d:60:56:e1:d3:
                    02:f2:19:cb:84:57:90:e5:70:a1:a2:83:35:86:e2:
                    da:86:9f:f9:8a:c4:79:b3:52:28:da:cb:bb:34:ca:
                    d3:da:91:4a:cf:8d:76:a2:b2:6b:9b:f9:96:fd:09:
                    2a:da:11:23:4d:f0:cb:d6:b2:b1:0e:12:6c:9a:19:
                    65:98:87:ca:e4:ee:24:ce:44:ac:90:8f:9d:1b:c5:
                    2a:9d
                Exponent: 65537 (0x10001)
        X509v3 extensions:
            X509v3 Key Usage: 
                Digital Signature, Key Encipherment
            X509v3 Basic Constraints: 
                CA:FALSE
            Netscape Cert Type: 
                SSL Server
            Netscape Comment: 
                OpenSSL Generated Server Certificate
            X509v3 Subject Key Identifier: 
                4D:07:90:AD:FF:1D:0D:E7:1A:DD:D6:2E:FA:BA:34:CB:AA:1F:24:C6
            X509v3 Authority Key Identifier: 
                keyid:F4:A7:C0:CC:91:46:AF:64:F3:91:F2:27:F8:C8:B2:6F:8A:87:32:73
                DirName:/C=DE/ST=Hessen/O=privacyidea/CN=CA001
                serial:FB:C8:EB:AC:83:CD:12:07

            X509v3 Extended Key Usage: 
                TLS Web Server Authentication
    Signature Algorithm: sha1WithRSAEncryption
         00:c5:30:98:cd:9e:5d:98:a1:89:0c:e1:2f:e6:bd:97:25:e7:
         a1:46:29:e7:77:43:f1:73:13:f3:9f:df:f3:6b:64:a6:9f:59:
         c5:e5:3e:61:b8:00:f9:67:17:59:89:61:76:84:ea:a2:40:54:
         c7:48:85:ad:e3:a7:e9:a9:7f:fe:8f:37:fe:2e:48:44:af:69:
         68:fc:c0:3b:a0:9f:2d:18:47:ed:9d:84:d1:6d:ff:89:cc:34:
         db:e5:87:53:03:05:8b:a3:a9:c1:38:ea:1d:8e:08:26:03:90:
         e0:b3:c2:5e:59:1e:2d:06:68:6d:ab:e4:92:7b:b5:c1:43:94:
         bc:28:58:a9:42:61:04:08:c1:c6:82:7b:d7:d1:0d:5f:22:44:
         ab:ea:d5:3b:ab:20:38:d2:7b:60:ab:c4:07:96:81:a7:2e:cf:
         ef:0e:1d:95:5c:b5:fd:89:61:0a:c5:99:44:45:3c:3f:e2:ec:
         d9:7d:d3:f9:c4:91:00:38:20:0b:c6:28:37:25:82:1c:af:09:
         ec:64:92:22:d0:91:11:ad:eb:ec:b8:87:6a:9d:a9:ff:b0:71:
         90:7d:a0:8a:30:f7:f6:ca:dd:bc:fe:e0:cf:46:0d:a3:ed:39:
         36:bf:3a:63:34:f9:49:fa:0b:88:1f:1b:17:b2:26:ca:55:de:
         41:16:2a:8c
-----BEGIN CERTIFICATE-----
MIIEDzCCAvegAwIBAgIEEAAAuzANBgkqhkiG9w0BAQUFADBEMQswCQYDVQQGEwJE
RTEPMA0GA1UECAwGSGVzc2VuMRQwEgYDVQQKDAtwcml2YWN5aWRlYTEOMAwGA1UE
AwwFQ0EwMDEwHhcNMTUxMTE2MTAwMjUwWhcNMTYxMTE1MTAwMjUwWjA9MSUwIwYD
VQQDExxzZWxmc2VydmljZSxDTj11c2VyLE89cmVhbG0xMRQwEgYJKoZIhvcNAQkB
FgVtZWluZTCCASIwDQYJKoZIhvcNAQEBBQADggEPADCCAQoCggEBAM881DMOEsTm
2s22VqEcJrsmHIpKc6hYirYes4uZ0h0HwpKJecBp2MjfKGGYHrP+riu9eKn3bkfc
o6AWjIUCwU6S/XJu8MgDKZu4AG7Ag5XINCA2nLPl5OZ2c6MarUCW4FNUAOx2eZrG
DX62vSnsg/PLiaTLbAC6DMV4D/9puJT0BHBDP9ie16f7Xc51jtrnxAexnd5viEu2
TZrP+bz6n80ybfY6Cw0jQnjsl0K/Dk1gVuHTAvIZy4RXkOVwoaKDNYbi2oaf+YrE
ebNSKNrLuzTK09qRSs+NdqKya5v5lv0JKtoRI03wy9aysQ4SbJoZZZiHyuTuJM5E
rJCPnRvFKp0CAwEAAaOCAQ4wggEKMAsGA1UdDwQEAwIFoDAJBgNVHRMEAjAAMBEG
CWCGSAGG+EIBAQQEAwIGQDAzBglghkgBhvhCAQ0EJhYkT3BlblNTTCBHZW5lcmF0
ZWQgU2VydmVyIENlcnRpZmljYXRlMB0GA1UdDgQWBBRNB5Ct/x0N5xrd1i76ujTL
qh8kxjB0BgNVHSMEbTBrgBT0p8DMkUavZPOR8if4yLJviocyc6FIpEYwRDELMAkG
A1UEBhMCREUxDzANBgNVBAgMBkhlc3NlbjEUMBIGA1UECgwLcHJpdmFjeWlkZWEx
DjAMBgNVBAMMBUNBMDAxggkA+8jrrIPNEgcwEwYDVR0lBAwwCgYIKwYBBQUHAwEw
DQYJKoZIhvcNAQEFBQADggEBAADFMJjNnl2YoYkM4S/mvZcl56FGKed3Q/FzE/Of
3/NrZKafWcXlPmG4APlnF1mJYXaE6qJAVMdIha3jp+mpf/6PN/4uSESvaWj8wDug
ny0YR+2dhNFt/4nMNNvlh1MDBYujqcE46h2OCCYDkOCzwl5ZHi0GaG2r5JJ7tcFD
lLwoWKlCYQQIwcaCe9fRDV8iRKvq1TurIDjSe2CrxAeWgacuz+8OHZVctf2JYQrF
mURFPD/i7Nl90/nEkQA4IAvGKDclghyvCexkkiLQkRGt6+y4h2qdqf+wcZB9oIow
9/bK3bz+4M9GDaPtOTa/OmM0+Un6C4gfGxeyJspV3kEWKow=
-----END CERTIFICATE-----
