Certificate:
    Data:
        Version: 3 (0x2)
        Serial Number: 268435649 (0x100000c1)
    Signature Algorithm: sha1WithRSAEncryption
        Issuer: C=DE, ST=Hessen, O=privacyidea, CN=CA001
        Validity
            Not Before: Nov 16 10:28:32 2015 GMT
            Not After : Nov 15 10:28:32 2016 GMT
        Subject: CN=selfservice,CN=user,O=realm1/emailAddress=meine
        Subject Public Key Info:
            Public Key Algorithm: rsaEncryption
                Public-Key: (2048 bit)
                Modulus:
                    00:cf:3c:d4:33:0e:12:c4:e6:da:cd:b6:56:a1:1c:
                    26:bb:26:1c:8a:4a:73:a8:58:8a:b6:1e:b3:8b:99:
                    d2:1d:07:c2:92:89:79:c0:69:d8:c8:df:28:61:98:
                    1e:b3:fe:ae:2b:bd:78:a9:f7:6e:47:dc:a3:a0:16:
                    8c:85:02:c1:4e:92:fd:72:6e:f0:c8:03:29:9b:b8:
                    00:6e:c0:83:95:c8:34:20:36:9c:b3:e5:e4:e6:76:
                    73:a3:1a:ad:40:96:e0:53:54:00:ec:76:79:9a:c6:
                    0d:7e:b6:bd:29:ec:83:f3:cb:89:a4:cb:6c:00:ba:
                    0c:c5:78:0f:ff:69:b8:94:f4:04:70:43:3f:d8:9e:
                    d7:a7:fb:5d:ce:75:8e:da:e7:c4:07:b1:9d:de:6f:
                    88:4b:b6:4d:9a:cf:f9:bc:fa:9f:cd:32:6d:f6:3a:
                    0b:0d:23:42:78:ec:97:42:bf:0e:4d:60:56:e1:d3:
                    02:f2:19:cb:84:57:90:e5:70:a1:a2:83:35:86:e2:
                    da:86:9f:f9:8a:c4:79:b3:52:28:da:cb:bb:34:ca:
                    d3:da:91:4a:cf:8d:76:a2:b2:6b:9b:f9:96:fd:09:
                    2a:da:11:23:4d:f0:cb:d6:b2:b1:0e:12:6c:9a:19:
                    65:98:87:ca:e4:ee:24:ce:44:ac:90:8f:9d:1b:c5:
                    2a:9d
                Exponent: 65537 (0x10001)
        X509v3 extensions:
            X509v3 Key Usage: 
                Digital Signature, Key Encipherment
            X509v3 Basic Constraints: 
                CA:FALSE
            Netscape Cert Type: 
                SSL Server
            Netscape Comment: 
                OpenSSL Generated Server Certificate
            X509v3 Subject Key Identifier: 
                4D:07:90:AD:FF:1D:0D:E7:1A:DD:D6:2E:FA:BA:34:CB:AA:1F:24:C6
            X509v3 Authority Key Identifier: 
                keyid:F4:A7:C0:CC:91:46:AF:64:F3:91:F2:27:F8:C8:B2:6F:8A:87:32:73
                DirName:/C=DE/ST=Hessen/O=privacyidea/CN=CA001
                serial:FB:C8:EB:AC:83:CD:12:07

            X509v3 Extended Key Usage: 
                TLS Web Server Authentication
    Signature Algorithm: sha1WithRSAEncryption
         4f:c2:88:97:06:16:24:bc:c9:e0:6e:9b:55:4f:2c:4a:c2:38:
         ba:75:90:d1:10:b3:97:d4:f4:20:45:d1:75:00:0a:a3:92:f0:
         f8:4f:fb:3e:0f:ee:79:1b:c6:f2:67:96:f4:03:f0:66:05:4b:
         11:cd:86:fb:fa:a5:bd:ae:7d:7a:f8:eb:6a:cb:f7:99:bb:fb:
         c0:b6:73:dc:99:14:de:1c:90:8a:9b:b4:35:59:a0:cd:ca:71:
         a6:4c:f2:33:52:9f:65:74:af:c1:ee:49:ca:7b:72:b2:0a:8c:
         e9:a0:0c:f2:b6:10:87:9d:50:3c:49:31:9f:58:a6:6c:69:c7:
         a3:56:68:0a:c6:31:9e:22:7b:a2:77:33:bf:2b:ba:8c:72:b0:
         97:e6:63:ad:e9:b1:7d:a3:7d:d8:1b:bf:68:01:90:97:31:e5:
         4d:7f:c3:a8:91:ec:92:e2:9d:ed:d0:7d:35:2e:9f:52:2a:3a:
         04:16:71:20:10:8f:54:aa:3c:ba:1c:33:81:34:24:9d:89:77:
         dd:58:b6:d7:f5:55:8f:c1:5e:42:b9:6d:2c:6c:f3:b0:3a:86:
         b8:c3:c9:5a:b4:57:c5:94:b8:ca:3d:e4:e6:1e:69:4e:fa:8b:
         cc:cd:14:27:38:4b:60:c8:18:89:b5:f1:ca:e6:db:9f:4b:f5:
         3b:eb:b8:40
-----BEGIN CERTIFICATE-----
MIIEDzCCAvegAwIBAgIEEAAAwTANBgkqhkiG9w0BAQUFADBEMQswCQYDVQQGEwJE
RTEPMA0GA1UECAwGSGVzc2VuMRQwEgYDVQQKDAtwcml2YWN5aWRlYTEOMAwGA1UE
AwwFQ0EwMDEwHhcNMTUxMTE2MTAyODMyWhcNMTYxMTE1MTAyODMyWjA9MSUwIwYD
VQQDExxzZWxmc2VydmljZSxDTj11c2VyLE89cmVhbG0xMRQwEgYJKoZIhvcNAQkB
FgVtZWluZTCCASIwDQYJKoZIhvcNAQEBBQADggEPADCCAQoCggEBAM881DMOEsTm
2s22VqEcJrsmHIpKc6hYirYes4uZ0h0HwpKJecBp2MjfKGGYHrP+riu9eKn3bkfc
o6AWjIUCwU6S/XJu8MgDKZu4AG7Ag5XINCA2nLPl5OZ2c6MarUCW4FNUAOx2eZrG
DX62vSnsg/PLiaTLbAC6DMV4D/9puJT0BHBDP9ie16f7Xc51jtrnxAexnd5viEu2
TZrP+bz6n80ybfY6Cw0jQnjsl0K/Dk1gVuHTAvIZy4RXkOVwoaKDNYbi2oaf+YrE
ebNSKNrLuzTK09qRSs+NdqKya5v5lv0JKtoRI03wy9aysQ4SbJoZZZiHyuTuJM5E
rJCPnRvFKp0CAwEAAaOCAQ4wggEKMAsGA1UdDwQEAwIFoDAJBgNVHRMEAjAAMBEG
CWCGSAGG+EIBAQQEAwIGQDAzBglghkgBhvhCAQ0EJhYkT3BlblNTTCBHZW5lcmF0
ZWQgU2VydmVyIENlcnRpZmljYXRlMB0GA1UdDgQWBBRNB5Ct/x0N5xrd1i76ujTL
qh8kxjB0BgNVHSMEbTBrgBT0p8DMkUavZPOR8if4yLJviocyc6FIpEYwRDELMAkG
A1UEBhMCREUxDzANBgNVBAgMBkhlc3NlbjEUMBIGA1UECgwLcHJpdmFjeWlkZWEx
DjAMBgNVBAMMBUNBMDAxggkA+8jrrIPNEgcwEwYDVR0lBAwwCgYIKwYBBQUHAwEw
DQYJKoZIhvcNAQEFBQADggEBAE/CiJcGFiS8yeBum1VPLErCOLp1kNEQs5fU9CBF
0XUACqOS8PhP+z4P7nkbxvJnlvQD8GYFSxHNhvv6pb2ufXr462rL95m7+8C2c9yZ
FN4ckIqbtDVZoM3KcaZM8jNSn2V0r8HuScp7crIKjOmgDPK2EIedUDxJMZ9Ypmxp
x6NWaArGMZ4ie6J3M78ruoxysJfmY63psX2jfdgbv2gBkJcx5U1/w6iR7JLine3Q
fTUun1IqOgQWcSAQj1SqPLocM4E0JJ2Jd91Yttf1VY/BXkK5bSxs87A6hrjDyVq0
V8WUuMo95OYeaU76i8zNFCc4S2DIGIm18crm259L9TvruEA=
-----END CERTIFICATE-----
