Certificate:
    Data:
        Version: 3 (0x2)
        Serial Number: 268435651 (0x100000c3)
    Signature Algorithm: sha1WithRSAEncryption
        Issuer: C=DE, ST=Hessen, O=privacyidea, CN=CA001
        Validity
            Not Before: Oct 31 17:49:47 2015 GMT
            Not After : Oct 30 17:49:47 2016 GMT
        Subject: C=DE, ST=Hessen, O=privacyidea, CN=usercert
        Subject Public Key Info:
            Public Key Algorithm: rsaEncryption
                Public-Key: (2048 bit)
                Modulus:
                    00:dc:2f:d1:5f:29:97:d4:7c:c3:53:c8:30:bd:4b:
                    67:70:2c:24:6b:b8:5e:eb:21:7a:48:12:56:7c:81:
                    5c:48:75:b6:68:eb:f6:f2:98:4e:50:51:d1:7f:6c:
                    73:f3:0a:a7:ae:be:48:5e:e5:d6:e1:d9:2a:7c:32:
                    6e:4e:fd:08:f6:5a:54:49:23:73:c3:b9:07:18:d1:
                    ef:b3:ac:f8:8a:dc:94:96:a4:90:3a:8e:74:df:e6:
                    0d:37:1b:bd:5b:b7:25:1a:56:39:da:6f:91:aa:5e:
                    1c:74:f3:f9:7c:14:01:83:12:65:76:c7:bb:fe:36:
                    5b:95:e9:72:65:83:ed:3e:98:30:71:fa:87:dd:a3:
                    36:5a:30:03:2e:26:e0:61:d1:bf:02:3f:b6:06:1f:
                    4a:89:28:1c:5c:a2:ff:4e:be:94:e6:8c:e0:da:82:
                    f1:9d:29:32:48:30:73:b4:04:f6:42:1e:be:f7:e2:
                    32:32:27:3c:9d:89:2f:70:3e:85:9a:6f:5c:c5:09:
                    c0:8c:32:2f:72:22:c9:d2:95:1f:b6:ac:72:60:72:
                    b7:82:4d:6b:ce:5b:e3:00:d0:d2:2f:58:c6:e0:10:
                    e5:51:ca:4d:3b:2e:e6:7e:ab:84:d6:56:f1:93:35:
                    a0:93:64:26:81:75:2f:91:b5:16:06:38:0b:db:cc:
                    2d:07
                Exponent: 65537 (0x10001)
        X509v3 extensions:
            X509v3 Key Usage: 
                Digital Signature, Key Encipherment
            X509v3 Basic Constraints: 
                CA:FALSE
            Netscape Cert Type: 
                SSL Server
            Netscape Comment: 
                OpenSSL Generated Server Certificate
            X509v3 Subject Key Identifier: 
                FC:14:D1:F0:4B:8D:00:90:F2:F5:B8:71:9E:4E:97:C3:92:54:AD:0B
            X509v3 Authority Key Identifier: 
                keyid:F4:A7:C0:CC:91:46:AF:64:F3:91:F2:27:F8:C8:B2:6F:8A:87:32:73
                DirName:/C=DE/ST=Hessen/O=privacyidea/CN=CA001
                serial:FB:C8:EB:AC:83:CD:12:07

            X509v3 Extended Key Usage: 
                TLS Web Server Authentication
    Signature Algorithm: sha1WithRSAEncryption
         83:17:2e:e0:1c:7b:df:ed:47:2f:83:db:8f:90:55:84:91:c5:
         4c:0e:23:05:11:71:5e:b0:ac:ac:20:e7:b2:ef:e4:17:b0:c9:
         da:b6:25:4e:af:d5:ab:59:bf:0c:e9:2a:e7:db:a0:da:a8:ab:
         85:6e:a4:60:4e:b1:66:7e:92:49:f9:0e:08:60:ea:29:f1:65:
         ac:25:bb:6c:63:1c:cc:ea:9e:91:c4:38:28:05:64:61:f4:df:
         7c:65:4f:fb:2e:3a:be:1c:ff:de:f9:6b:65:f2:75:65:26:20:
         e9:1f:8b:b1:a0:73:6c:9b:2c:ac:cc:85:1a:8c:16:f4:b2:b8:
         c4:1e:83:e6:38:33:33:08:63:2a:2f:c4:b9:9e:24:26:6d:d9:
         6c:58:31:e6:02:91:07:34:00:35:77:19:ef:d8:88:27:43:74:
         11:5c:61:f7:e3:f8:66:db:74:02:cc:4e:bd:a4:13:ad:03:7c:
         fb:0f:d0:2f:cb:68:e9:21:06:2d:b4:45:fb:7b:3e:39:ae:09:
         24:31:42:b6:95:69:d4:5b:63:32:0a:db:8c:43:2d:c5:0e:64:
         33:a4:1d:c0:eb:ab:8d:33:13:f3:89:3c:6c:70:3f:8e:ad:3a:
         d7:c8:2d:45:73:a5:88:e1:66:2f:47:3e:cb:fc:5e:70:0e:7f:
         f0:8b:2f:99
-----BEGIN CERTIFICATE-----
MIIEGTCCAwGgAwIBAgIEEAAAwzANBgkqhkiG9w0BAQUFADBEMQswCQYDVQQGEwJE
RTEPMA0GA1UECAwGSGVzc2VuMRQwEgYDVQQKDAtwcml2YWN5aWRlYTEOMAwGA1UE
AwwFQ0EwMDEwHhcNMTUxMDMxMTc0OTQ3WhcNMTYxMDMwMTc0OTQ3WjBHMQswCQYD
VQQGEwJERTEPMA0GA1UECAwGSGVzc2VuMRQwEgYDVQQKDAtwcml2YWN5aWRlYTER
MA8GA1UEAwwIdXNlcmNlcnQwggEiMA0GCSqGSIb3DQEBAQUAA4IBDwAwggEKAoIB
AQDcL9FfKZfUfMNTyDC9S2dwLCRruF7rIXpIElZ8gVxIdbZo6/bymE5QUdF/bHPz
Cqeuvkhe5dbh2Sp8Mm5O/Qj2WlRJI3PDuQcY0e+zrPiK3JSWpJA6jnTf5g03G71b
tyUaVjnab5GqXhx08/l8FAGDEmV2x7v+NluV6XJlg+0+mDBx+ofdozZaMAMuJuBh
0b8CP7YGH0qJKBxcov9OvpTmjODagvGdKTJIMHO0BPZCHr734jIyJzydiS9wPoWa
b1zFCcCMMi9yIsnSlR+2rHJgcreCTWvOW+MA0NIvWMbgEOVRyk07LuZ+q4TWVvGT
NaCTZCaBdS+RtRYGOAvbzC0HAgMBAAGjggEOMIIBCjALBgNVHQ8EBAMCBaAwCQYD
VR0TBAIwADARBglghkgBhvhCAQEEBAMCBkAwMwYJYIZIAYb4QgENBCYWJE9wZW5T
U0wgR2VuZXJhdGVkIFNlcnZlciBDZXJ0aWZpY2F0ZTAdBgNVHQ4EFgQU/BTR8EuN
AJDy9bhxnk6Xw5JUrQswdAYDVR0jBG0wa4AU9KfAzJFGr2TzkfIn+Miyb4qHMnOh
SKRGMEQxCzAJBgNVBAYTAkRFMQ8wDQYDVQQIDAZIZXNzZW4xFDASBgNVBAoMC3By
aXZhY3lpZGVhMQ4wDAYDVQQDDAVDQTAwMYIJAPvI66yDzRIHMBMGA1UdJQQMMAoG
CCsGAQUFBwMBMA0GCSqGSIb3DQEBBQUAA4IBAQCDFy7gHHvf7Ucvg9uPkFWEkcVM
DiMFEXFesKysIOey7+QXsMnatiVOr9WrWb8M6Srn26DaqKuFbqRgTrFmfpJJ+Q4I
YOop8WWsJbtsYxzM6p6RxDgoBWRh9N98ZU/7Ljq+HP/e+Wtl8nVlJiDpH4uxoHNs
myyszIUajBb0srjEHoPmODMzCGMqL8S5niQmbdlsWDHmApEHNAA1dxnv2IgnQ3QR
XGH34/hm23QCzE69pBOtA3z7D9Avy2jpIQYttEX7ez45rgkkMUK2lWnUW2MyCtuM
Qy3FDmQzpB3A66uNMxPziTxscD+OrTrXyC1Fc6WI4WYvRz7L/F5wDn/wiy+Z
-----END CERTIFICATE-----
