((dp1
Vmember.views
p2
(dp3
S'funcs'
p4
(lp5
sS'classes'
p6
(dp7
S'UpdateUsernameEmailMember'
p8
(lp9
S'get_form'
p10
aS'get_success_url'
p11
aS'update_profile'
p12
asS'SendValidationEmailView'
p13
(lp14
S'form_valid'
p15
aS'get_error_message'
p16
ag10
aS'get_success_template'
p17
aS'get_user'
p18
aS'post'
p19
asS'UpdatePasswordMember'
p20
(lp21
g10
aS'get_success_message'
p22
ag11
ag19
ag12
asS'RegisterView'
p23
(lp24
g15
ag10
aS'get_object'
p25
ag17
ag19
asS'UpdateMember'
p26
(lp27
S'dispatch'
p28
ag15
ag16
ag10
ag25
ag22
ag11
ag19
aS'save_profile'
p29
ag12
asS'MemberDetail'
p30
(lp31
S'get_context_data'
p32
ag25
asssVmember.forms
p33
(dp34
g4
(lp35
sg6
(dp36
S'ChangePasswordForm'
p37
(lp38
sS'ChangeUserForm'
p39
(lp40
S'clean'
p41
aS'throw_error'
p42
asS'UsernameAndEmailForm'
p43
(lp44
sS'NewPasswordForm'
p45
(lp46
g41
asS'KarmaForm'
p47
(lp48
sS'RegisterForm'
p49
(lp50
g42
asssVmember.models
p51
(dp52
g4
(lp53
sg6
(dp54
S'TokenForgotPassword'
p55
(lp56
S'get_next_by_date_end'
p57
aS'get_previous_by_date_end'
p58
asS'KarmaNote'
p59
(lp60
S'get_next_by_create_at'
p61
aS'get_previous_by_create_at'
p62
asS'TokenRegister'
p63
(lp64
g57
ag58
asss(dp65
t.