Certificate:
    Data:
        Version: 3 (0x2)
        Serial Number: 268435658 (0x100000ca)
    Signature Algorithm: sha1WithRSAEncryption
        Issuer: C=DE, ST=Hessen, O=privacyidea, CN=CA001
        Validity
            Not Before: Oct 31 19:09:34 2015 GMT
            Not After : Oct 30 19:09:34 2016 GMT
        Subject: CN=Steve Test/emailAddress=steve@openssl.org
        Subject Public Key Info:
            Public Key Algorithm: rsaEncryption
                Public-Key: (2048 bit)
                Modulus:
                    00:d2:81:89:20:51:48:0f:73:f4:11:32:24:d5:1f:
                    1c:fd:5c:f5:b6:e6:c5:f0:52:81:dc:d2:af:66:4a:
                    7c:93:31:61:5c:af:d1:6d:06:70:03:60:7c:72:0c:
                    88:dd:49:cd:9e:02:6c:d2:5a:d7:53:0f:f3:da:be:
                    69:64:b5:0f:0c:00:e3:b3:50:47:a3:b3:9b:ba:13:
                    50:d6:58:5a:4b:ab:39:e0:11:ca:0a:27:67:03:78:
                    22:66:6d:92:1e:1b:5c:49:ae:e6:6b:d1:8e:3b:9d:
                    06:d3:c6:ac:4d:53:43:10:ab:e8:96:c1:87:82:97:
                    99:8f:20:d3:99:12:37:31:84:e1:8a:ff:29:03:5f:
                    22:90:3e:7f:9b:e0:20:c1:ad:dc:ae:4c:39:1a:31:
                    96:17:02:8c:b2:d9:b4:0d:20:12:9b:7d:86:54:fd:
                    33:fd:c1:2a:62:46:f8:60:96:cf:6e:01:6f:22:df:
                    13:47:e7:97:ec:05:72:23:a3:62:f8:fa:ef:ac:9c:
                    72:f0:37:cb:2f:37:cf:90:a8:27:51:86:c6:d7:78:
                    08:8f:7e:25:a2:15:70:a2:fb:1c:b6:15:5e:a0:97:
                    8b:81:4c:09:28:8a:27:3b:94:bc:71:db:5b:71:37:
                    9a:2b:16:e0:6f:b5:c9:f5:4b:4f:20:ba:65:cf:af:
                    ad:ad
                Exponent: 65537 (0x10001)
        X509v3 extensions:
            X509v3 Key Usage: 
                Digital Signature, Key Encipherment
            X509v3 Basic Constraints: 
                CA:FALSE
            Netscape Cert Type: 
                SSL Server
            Netscape Comment: 
                OpenSSL Generated Server Certificate
            X509v3 Subject Key Identifier: 
                E5:25:6D:3E:AF:0D:DD:3F:4C:F2:45:19:39:D5:14:DB:7E:9C:C0:AD
            X509v3 Authority Key Identifier: 
                keyid:F4:A7:C0:CC:91:46:AF:64:F3:91:F2:27:F8:C8:B2:6F:8A:87:32:73
                DirName:/C=DE/ST=Hessen/O=privacyidea/CN=CA001
                serial:FB:C8:EB:AC:83:CD:12:07

            X509v3 Extended Key Usage: 
                TLS Web Server Authentication
    Signature Algorithm: sha1WithRSAEncryption
         2a:12:89:df:fc:e6:a8:02:1b:be:11:e4:c6:25:4e:84:63:6e:
         a0:4f:d2:86:dc:0a:af:9d:1f:12:4e:1f:21:f2:37:25:31:6b:
         3c:70:79:9c:fb:f6:f7:e8:71:81:3a:e3:8d:d3:88:8c:75:32:
         01:08:8a:41:ed:6c:3c:fb:a4:b4:49:27:b3:26:00:22:4c:a0:
         e7:88:1e:35:98:60:14:96:f5:c4:83:cb:ae:1c:bc:dc:24:fb:
         ad:c9:58:96:d4:34:87:5c:99:55:81:fb:6b:e1:6f:27:4d:f4:
         d0:2c:d7:fb:32:31:53:60:5d:67:ef:88:9e:c5:ec:0b:71:fa:
         b1:a4:74:6d:4a:ee:cd:ef:1d:19:7f:e3:96:20:ca:7a:54:6f:
         35:b9:82:3c:4a:8b:7b:30:9e:b0:88:63:5e:2e:bb:de:04:f6:
         2d:06:5c:43:e1:9a:7c:cf:5a:c6:3b:70:ee:b0:b1:fb:50:5c:
         23:07:b5:8e:fa:15:79:73:8c:e4:94:a2:4d:56:3e:3d:5f:58:
         77:b1:ad:c3:9d:31:8b:db:15:a4:6d:b7:8e:eb:f8:56:15:6d:
         45:e5:30:34:6a:73:14:09:33:c8:6c:99:8d:94:1a:4e:2f:ce:
         dd:a3:07:bc:e4:3e:d1:65:48:8b:ed:37:35:02:b2:07:d2:40:
         df:2a:72:b1
-----BEGIN CERTIFICATE-----
MIIECTCCAvGgAwIBAgIEEAAAyjANBgkqhkiG9w0BAQUFADBEMQswCQYDVQQGEwJE
RTEPMA0GA1UECAwGSGVzc2VuMRQwEgYDVQQKDAtwcml2YWN5aWRlYTEOMAwGA1UE
AwwFQ0EwMDEwHhcNMTUxMDMxMTkwOTM0WhcNMTYxMDMwMTkwOTM0WjA3MRMwEQYD
VQQDEwpTdGV2ZSBUZXN0MSAwHgYJKoZIhvcNAQkBFhFzdGV2ZUBvcGVuc3NsLm9y
ZzCCASIwDQYJKoZIhvcNAQEBBQADggEPADCCAQoCggEBANKBiSBRSA9z9BEyJNUf
HP1c9bbmxfBSgdzSr2ZKfJMxYVyv0W0GcANgfHIMiN1JzZ4CbNJa11MP89q+aWS1
DwwA47NQR6Ozm7oTUNZYWkurOeARygonZwN4ImZtkh4bXEmu5mvRjjudBtPGrE1T
QxCr6JbBh4KXmY8g05kSNzGE4Yr/KQNfIpA+f5vgIMGt3K5MORoxlhcCjLLZtA0g
Ept9hlT9M/3BKmJG+GCWz24BbyLfE0fnl+wFciOjYvj676yccvA3yy83z5CoJ1GG
xtd4CI9+JaIVcKL7HLYVXqCXi4FMCSiKJzuUvHHbW3E3misW4G+1yfVLTyC6Zc+v
ra0CAwEAAaOCAQ4wggEKMAsGA1UdDwQEAwIFoDAJBgNVHRMEAjAAMBEGCWCGSAGG
+EIBAQQEAwIGQDAzBglghkgBhvhCAQ0EJhYkT3BlblNTTCBHZW5lcmF0ZWQgU2Vy
dmVyIENlcnRpZmljYXRlMB0GA1UdDgQWBBTlJW0+rw3dP0zyRRk51RTbfpzArTB0
BgNVHSMEbTBrgBT0p8DMkUavZPOR8if4yLJviocyc6FIpEYwRDELMAkGA1UEBhMC
REUxDzANBgNVBAgMBkhlc3NlbjEUMBIGA1UECgwLcHJpdmFjeWlkZWExDjAMBgNV
BAMMBUNBMDAxggkA+8jrrIPNEgcwEwYDVR0lBAwwCgYIKwYBBQUHAwEwDQYJKoZI
hvcNAQEFBQADggEBACoSid/85qgCG74R5MYlToRjbqBP0obcCq+dHxJOHyHyNyUx
azxweZz79vfocYE6443TiIx1MgEIikHtbDz7pLRJJ7MmACJMoOeIHjWYYBSW9cSD
y64cvNwk+63JWJbUNIdcmVWB+2vhbydN9NAs1/syMVNgXWfviJ7F7Atx+rGkdG1K
7s3vHRl/45YgynpUbzW5gjxKi3swnrCIY14uu94E9i0GXEPhmnzPWsY7cO6wsftQ
XCMHtY76FXlzjOSUok1WPj1fWHexrcOdMYvbFaRtt47r+FYVbUXlMDRqcxQJM8hs
mY2UGk4vzt2jB7zkPtFlSIvtNzUCsgfSQN8qcrE=
-----END CERTIFICATE-----
