Certificate:
    Data:
        Version: 3 (0x2)
        Serial Number: 268435639 (0x100000b7)
    Signature Algorithm: sha1WithRSAEncryption
        Issuer: C=DE, ST=Hessen, O=privacyidea, CN=CA001
        Validity
            Not Before: Nov 16 09:53:53 2015 GMT
            Not After : Nov 15 09:53:53 2016 GMT
        Subject: C=DE, ST=Hessen, O=privacyidea, CN=requester.localdomain
        Subject Public Key Info:
            Public Key Algorithm: rsaEncryption
                Public-Key: (2048 bit)
                Modulus:
                    00:cd:be:14:4f:fa:ce:01:3f:42:22:1b:1d:9c:af:
                    dd:92:d2:7f:db:6c:b7:3e:39:43:43:6b:13:03:f1:
                    05:f4:07:74:bc:76:69:28:0b:af:19:8e:d7:fc:e3:
                    cd:c6:58:f2:ca:7f:08:6d:53:fc:07:02:44:24:c6:
                    b4:34:4c:8c:04:fe:33:0e:40:e2:20:ba:02:73:5a:
                    f7:f5:4f:63:6e:cc:c6:b6:df:54:1d:37:39:7d:51:
                    36:26:5f:bd:dc:3f:a8:8b:6b:a2:ae:b6:9d:d6:21:
                    e7:df:41:b8:7a:28:2a:68:48:ca:a8:2d:ed:e1:e9:
                    46:5e:5a:72:6d:b4:84:38:87:91:fd:94:11:0b:28:
                    84:c6:c2:2f:2a:fb:01:f9:36:7a:09:75:d1:33:88:
                    3c:73:41:5b:c8:bf:94:89:70:a1:f0:c0:b9:2e:50:
                    53:1e:b1:17:64:69:f4:2d:81:e0:a9:0d:0e:32:e9:
                    ba:55:8a:85:f1:1b:6f:49:79:b4:7f:88:c3:0d:3e:
                    54:88:9b:3d:1f:38:8c:04:f3:ee:6a:63:2b:f5:c6:
                    db:b4:83:aa:c4:78:41:3a:7d:4b:e1:c8:3e:71:ca:
                    1b:61:59:ea:c6:c4:ca:32:5e:c9:e9:bf:12:29:e6:
                    c6:c3:63:fe:a0:55:da:7a:f1:60:98:4d:26:ed:fa:
                    70:2d
                Exponent: 65537 (0x10001)
        X509v3 extensions:
            X509v3 Key Usage: 
                Digital Signature, Key Encipherment
            X509v3 Basic Constraints: 
                CA:FALSE
            Netscape Cert Type: 
                SSL Server
            Netscape Comment: 
                OpenSSL Generated Server Certificate
            X509v3 Subject Key Identifier: 
                53:3F:ED:5D:09:07:B3:65:7B:AB:45:C9:24:5B:09:77:80:0A:96:ED
            X509v3 Authority Key Identifier: 
                keyid:F4:A7:C0:CC:91:46:AF:64:F3:91:F2:27:F8:C8:B2:6F:8A:87:32:73
                DirName:/C=DE/ST=Hessen/O=privacyidea/CN=CA001
                serial:FB:C8:EB:AC:83:CD:12:07

            X509v3 Extended Key Usage: 
                TLS Web Server Authentication
    Signature Algorithm: sha1WithRSAEncryption
         1e:77:60:c7:43:4e:1e:5a:1c:cb:18:9d:c4:5a:2f:0b:e5:55:
         b9:24:a1:52:73:54:b4:b0:38:0d:08:da:58:65:92:7e:15:fb:
         b2:a7:4f:d1:95:b1:f8:01:5f:32:88:2a:ce:5c:2d:1f:11:06:
         54:26:3a:8e:f2:ac:28:9d:75:89:a5:f1:81:eb:37:69:eb:79:
         dc:6a:a2:ea:ea:c0:d2:3b:a5:82:4f:67:96:0a:81:b7:9a:34:
         03:c8:38:6d:70:63:ff:b7:f9:50:08:e3:94:1c:31:56:86:8b:
         72:86:70:32:2a:55:e9:14:60:82:4b:2f:17:03:f5:66:48:7f:
         6e:7b:94:fc:46:cb:57:50:08:e6:c8:b2:60:fe:f3:2e:82:df:
         56:e9:3c:e9:45:7e:87:5b:92:eb:3f:c1:68:fd:f3:f1:f6:b9:
         40:bd:2f:48:d0:78:ef:c3:f8:d0:d2:29:eb:f7:14:17:11:30:
         d4:2b:d2:c1:2a:a1:e7:33:cd:c3:30:9a:38:ce:0b:3c:40:d4:
         b4:9c:67:4c:eb:6f:f6:5c:3d:41:3f:46:3b:69:7e:b9:78:70:
         bc:2d:33:d5:b0:fe:7b:cd:86:bf:98:fe:01:cc:aa:47:10:6c:
         00:29:ce:97:bd:ed:ea:fe:30:67:0b:a0:31:95:6e:f8:76:df:
         04:0c:5b:ad
-----BEGIN CERTIFICATE-----
MIIEJjCCAw6gAwIBAgIEEAAAtzANBgkqhkiG9w0BAQUFADBEMQswCQYDVQQGEwJE
RTEPMA0GA1UECAwGSGVzc2VuMRQwEgYDVQQKDAtwcml2YWN5aWRlYTEOMAwGA1UE
AwwFQ0EwMDEwHhcNMTUxMTE2MDk1MzUzWhcNMTYxMTE1MDk1MzUzWjBUMQswCQYD
VQQGEwJERTEPMA0GA1UECAwGSGVzc2VuMRQwEgYDVQQKDAtwcml2YWN5aWRlYTEe
MBwGA1UEAwwVcmVxdWVzdGVyLmxvY2FsZG9tYWluMIIBIjANBgkqhkiG9w0BAQEF
AAOCAQ8AMIIBCgKCAQEAzb4UT/rOAT9CIhsdnK/dktJ/22y3PjlDQ2sTA/EF9Ad0
vHZpKAuvGY7X/OPNxljyyn8IbVP8BwJEJMa0NEyMBP4zDkDiILoCc1r39U9jbszG
tt9UHTc5fVE2Jl+93D+oi2uirrad1iHn30G4eigqaEjKqC3t4elGXlpybbSEOIeR
/ZQRCyiExsIvKvsB+TZ6CXXRM4g8c0FbyL+UiXCh8MC5LlBTHrEXZGn0LYHgqQ0O
Mum6VYqF8RtvSXm0f4jDDT5UiJs9HziMBPPuamMr9cbbtIOqxHhBOn1L4cg+ccob
YVnqxsTKMl7J6b8SKebGw2P+oFXaevFgmE0m7fpwLQIDAQABo4IBDjCCAQowCwYD
VR0PBAQDAgWgMAkGA1UdEwQCMAAwEQYJYIZIAYb4QgEBBAQDAgZAMDMGCWCGSAGG
+EIBDQQmFiRPcGVuU1NMIEdlbmVyYXRlZCBTZXJ2ZXIgQ2VydGlmaWNhdGUwHQYD
VR0OBBYEFFM/7V0JB7Nle6tFySRbCXeACpbtMHQGA1UdIwRtMGuAFPSnwMyRRq9k
85HyJ/jIsm+KhzJzoUikRjBEMQswCQYDVQQGEwJERTEPMA0GA1UECAwGSGVzc2Vu
MRQwEgYDVQQKDAtwcml2YWN5aWRlYTEOMAwGA1UEAwwFQ0EwMDGCCQD7yOusg80S
BzATBgNVHSUEDDAKBggrBgEFBQcDATANBgkqhkiG9w0BAQUFAAOCAQEAHndgx0NO
HlocyxidxFovC+VVuSShUnNUtLA4DQjaWGWSfhX7sqdP0ZWx+AFfMogqzlwtHxEG
VCY6jvKsKJ11iaXxges3aet53Gqi6urA0julgk9nlgqBt5o0A8g4bXBj/7f5UAjj
lBwxVoaLcoZwMipV6RRggksvFwP1Zkh/bnuU/EbLV1AI5siyYP7zLoLfVuk86UV+
h1uS6z/BaP3z8fa5QL0vSNB478P40NIp6/cUFxEw1CvSwSqh5zPNwzCaOM4LPEDU
tJxnTOtv9lw9QT9GO2l+uXhwvC0z1bD+e82Gv5j+AcyqRxBsACnOl73t6v4wZwug
MZVu+HbfBAxbrQ==
-----END CERTIFICATE-----
