Certificate:
    Data:
        Version: 3 (0x2)
        Serial Number: 268435644 (0x100000bc)
    Signature Algorithm: sha1WithRSAEncryption
        Issuer: C=DE, ST=Hessen, O=privacyidea, CN=CA001
        Validity
            Not Before: Nov 16 10:18:50 2015 GMT
            Not After : Nov 15 10:18:50 2016 GMT
        Subject: C=DE, ST=Hessen, O=privacyidea, CN=requester.localdomain
        Subject Public Key Info:
            Public Key Algorithm: rsaEncryption
                Public-Key: (2048 bit)
                Modulus:
                    00:cd:be:14:4f:fa:ce:01:3f:42:22:1b:1d:9c:af:
                    dd:92:d2:7f:db:6c:b7:3e:39:43:43:6b:13:03:f1:
                    05:f4:07:74:bc:76:69:28:0b:af:19:8e:d7:fc:e3:
                    cd:c6:58:f2:ca:7f:08:6d:53:fc:07:02:44:24:c6:
                    b4:34:4c:8c:04:fe:33:0e:40:e2:20:ba:02:73:5a:
                    f7:f5:4f:63:6e:cc:c6:b6:df:54:1d:37:39:7d:51:
                    36:26:5f:bd:dc:3f:a8:8b:6b:a2:ae:b6:9d:d6:21:
                    e7:df:41:b8:7a:28:2a:68:48:ca:a8:2d:ed:e1:e9:
                    46:5e:5a:72:6d:b4:84:38:87:91:fd:94:11:0b:28:
                    84:c6:c2:2f:2a:fb:01:f9:36:7a:09:75:d1:33:88:
                    3c:73:41:5b:c8:bf:94:89:70:a1:f0:c0:b9:2e:50:
                    53:1e:b1:17:64:69:f4:2d:81:e0:a9:0d:0e:32:e9:
                    ba:55:8a:85:f1:1b:6f:49:79:b4:7f:88:c3:0d:3e:
                    54:88:9b:3d:1f:38:8c:04:f3:ee:6a:63:2b:f5:c6:
                    db:b4:83:aa:c4:78:41:3a:7d:4b:e1:c8:3e:71:ca:
                    1b:61:59:ea:c6:c4:ca:32:5e:c9:e9:bf:12:29:e6:
                    c6:c3:63:fe:a0:55:da:7a:f1:60:98:4d:26:ed:fa:
                    70:2d
                Exponent: 65537 (0x10001)
        X509v3 extensions:
            X509v3 Key Usage: 
                Digital Signature, Key Encipherment
            X509v3 Basic Constraints: 
                CA:FALSE
            Netscape Cert Type: 
                SSL Server
            Netscape Comment: 
                OpenSSL Generated Server Certificate
            X509v3 Subject Key Identifier: 
                53:3F:ED:5D:09:07:B3:65:7B:AB:45:C9:24:5B:09:77:80:0A:96:ED
            X509v3 Authority Key Identifier: 
                keyid:F4:A7:C0:CC:91:46:AF:64:F3:91:F2:27:F8:C8:B2:6F:8A:87:32:73
                DirName:/C=DE/ST=Hessen/O=privacyidea/CN=CA001
                serial:FB:C8:EB:AC:83:CD:12:07

            X509v3 Extended Key Usage: 
                TLS Web Server Authentication
    Signature Algorithm: sha1WithRSAEncryption
         ad:3c:5a:2e:72:5b:4e:13:85:cf:ea:3c:ea:8e:09:7c:5c:5d:
         00:ca:92:60:f7:46:b7:f3:c8:db:e3:5d:f9:a5:78:00:44:b2:
         b0:95:91:31:98:0d:94:eb:c8:05:24:d2:ae:62:32:f2:a5:e7:
         be:dd:7d:27:5c:5a:03:ff:ec:d6:95:83:a5:3e:c6:d4:d8:4c:
         1d:69:e1:fc:15:8f:d0:5e:fa:7b:ce:2c:80:2b:05:5d:38:c5:
         62:d5:aa:30:81:3b:3a:2c:93:58:5a:73:9f:a1:d8:67:fa:3c:
         52:0d:11:88:6a:5d:f9:36:19:42:5c:3e:51:3f:64:e5:1f:09:
         07:6d:92:ad:39:c3:27:b2:3e:a8:c0:42:36:78:b0:95:3e:dc:
         01:5e:39:31:88:68:cb:57:98:0a:d2:a1:e3:67:9d:0d:a8:79:
         d6:f3:36:66:7b:58:17:05:7b:0c:cc:73:4e:a2:8d:68:0b:5f:
         f1:99:ff:58:24:c6:b7:0b:2d:12:3a:77:d0:41:b1:6d:cb:89:
         6f:5b:e5:2d:94:74:59:ee:60:78:54:92:53:bc:11:a1:83:01:
         e8:41:83:20:32:6e:57:4b:33:41:2a:91:b4:5d:9e:ef:46:fa:
         11:57:0c:81:75:68:5e:35:a2:ec:a1:e0:17:46:88:10:72:4d:
         92:a8:6a:c6
-----BEGIN CERTIFICATE-----
MIIEJjCCAw6gAwIBAgIEEAAAvDANBgkqhkiG9w0BAQUFADBEMQswCQYDVQQGEwJE
RTEPMA0GA1UECAwGSGVzc2VuMRQwEgYDVQQKDAtwcml2YWN5aWRlYTEOMAwGA1UE
AwwFQ0EwMDEwHhcNMTUxMTE2MTAxODUwWhcNMTYxMTE1MTAxODUwWjBUMQswCQYD
VQQGEwJERTEPMA0GA1UECAwGSGVzc2VuMRQwEgYDVQQKDAtwcml2YWN5aWRlYTEe
MBwGA1UEAwwVcmVxdWVzdGVyLmxvY2FsZG9tYWluMIIBIjANBgkqhkiG9w0BAQEF
AAOCAQ8AMIIBCgKCAQEAzb4UT/rOAT9CIhsdnK/dktJ/22y3PjlDQ2sTA/EF9Ad0
vHZpKAuvGY7X/OPNxljyyn8IbVP8BwJEJMa0NEyMBP4zDkDiILoCc1r39U9jbszG
tt9UHTc5fVE2Jl+93D+oi2uirrad1iHn30G4eigqaEjKqC3t4elGXlpybbSEOIeR
/ZQRCyiExsIvKvsB+TZ6CXXRM4g8c0FbyL+UiXCh8MC5LlBTHrEXZGn0LYHgqQ0O
Mum6VYqF8RtvSXm0f4jDDT5UiJs9HziMBPPuamMr9cbbtIOqxHhBOn1L4cg+ccob
YVnqxsTKMl7J6b8SKebGw2P+oFXaevFgmE0m7fpwLQIDAQABo4IBDjCCAQowCwYD
VR0PBAQDAgWgMAkGA1UdEwQCMAAwEQYJYIZIAYb4QgEBBAQDAgZAMDMGCWCGSAGG
+EIBDQQmFiRPcGVuU1NMIEdlbmVyYXRlZCBTZXJ2ZXIgQ2VydGlmaWNhdGUwHQYD
VR0OBBYEFFM/7V0JB7Nle6tFySRbCXeACpbtMHQGA1UdIwRtMGuAFPSnwMyRRq9k
85HyJ/jIsm+KhzJzoUikRjBEMQswCQYDVQQGEwJERTEPMA0GA1UECAwGSGVzc2Vu
MRQwEgYDVQQKDAtwcml2YWN5aWRlYTEOMAwGA1UEAwwFQ0EwMDGCCQD7yOusg80S
BzATBgNVHSUEDDAKBggrBgEFBQcDATANBgkqhkiG9w0BAQUFAAOCAQEArTxaLnJb
ThOFz+o86o4JfFxdAMqSYPdGt/PI2+Nd+aV4AESysJWRMZgNlOvIBSTSrmIy8qXn
vt19J1xaA//s1pWDpT7G1NhMHWnh/BWP0F76e84sgCsFXTjFYtWqMIE7OiyTWFpz
n6HYZ/o8Ug0RiGpd+TYZQlw+UT9k5R8JB22SrTnDJ7I+qMBCNniwlT7cAV45MYho
y1eYCtKh42edDah51vM2ZntYFwV7DMxzTqKNaAtf8Zn/WCTGtwstEjp30EGxbcuJ
b1vlLZR0We5geFSSU7wRoYMB6EGDIDJuV0szQSqRtF2e70b6EVcMgXVoXjWi7KHg
F0aIEHJNkqhqxg==
-----END CERTIFICATE-----
