Certificate:
    Data:
        Version: 3 (0x2)
        Serial Number: 268435650 (0x100000c2)
    Signature Algorithm: sha1WithRSAEncryption
        Issuer: C=DE, ST=Hessen, O=privacyidea, CN=CA001
        Validity
            Not Before: Oct 31 17:49:46 2015 GMT
            Not After : Oct 30 17:49:46 2016 GMT
        Subject: C=DE, ST=Hessen, O=privacyidea, CN=requester.localdomain
        Subject Public Key Info:
            Public Key Algorithm: rsaEncryption
                Public-Key: (2048 bit)
                Modulus:
                    00:cd:be:14:4f:fa:ce:01:3f:42:22:1b:1d:9c:af:
                    dd:92:d2:7f:db:6c:b7:3e:39:43:43:6b:13:03:f1:
                    05:f4:07:74:bc:76:69:28:0b:af:19:8e:d7:fc:e3:
                    cd:c6:58:f2:ca:7f:08:6d:53:fc:07:02:44:24:c6:
                    b4:34:4c:8c:04:fe:33:0e:40:e2:20:ba:02:73:5a:
                    f7:f5:4f:63:6e:cc:c6:b6:df:54:1d:37:39:7d:51:
                    36:26:5f:bd:dc:3f:a8:8b:6b:a2:ae:b6:9d:d6:21:
                    e7:df:41:b8:7a:28:2a:68:48:ca:a8:2d:ed:e1:e9:
                    46:5e:5a:72:6d:b4:84:38:87:91:fd:94:11:0b:28:
                    84:c6:c2:2f:2a:fb:01:f9:36:7a:09:75:d1:33:88:
                    3c:73:41:5b:c8:bf:94:89:70:a1:f0:c0:b9:2e:50:
                    53:1e:b1:17:64:69:f4:2d:81:e0:a9:0d:0e:32:e9:
                    ba:55:8a:85:f1:1b:6f:49:79:b4:7f:88:c3:0d:3e:
                    54:88:9b:3d:1f:38:8c:04:f3:ee:6a:63:2b:f5:c6:
                    db:b4:83:aa:c4:78:41:3a:7d:4b:e1:c8:3e:71:ca:
                    1b:61:59:ea:c6:c4:ca:32:5e:c9:e9:bf:12:29:e6:
                    c6:c3:63:fe:a0:55:da:7a:f1:60:98:4d:26:ed:fa:
                    70:2d
                Exponent: 65537 (0x10001)
        X509v3 extensions:
            X509v3 Key Usage: 
                Digital Signature, Key Encipherment
            X509v3 Basic Constraints: 
                CA:FALSE
            Netscape Cert Type: 
                SSL Server
            Netscape Comment: 
                OpenSSL Generated Server Certificate
            X509v3 Subject Key Identifier: 
                53:3F:ED:5D:09:07:B3:65:7B:AB:45:C9:24:5B:09:77:80:0A:96:ED
            X509v3 Authority Key Identifier: 
                keyid:F4:A7:C0:CC:91:46:AF:64:F3:91:F2:27:F8:C8:B2:6F:8A:87:32:73
                DirName:/C=DE/ST=Hessen/O=privacyidea/CN=CA001
                serial:FB:C8:EB:AC:83:CD:12:07

            X509v3 Extended Key Usage: 
                TLS Web Server Authentication
    Signature Algorithm: sha1WithRSAEncryption
         36:9d:e1:17:d0:fe:5d:2e:a8:5f:c7:6a:3f:26:f8:c5:08:c0:
         3c:b3:ae:c8:26:97:60:75:9e:bb:60:4b:8b:88:ce:87:80:9a:
         17:f5:ca:09:5f:0d:5d:7c:36:28:e6:cd:28:3b:58:af:73:2b:
         3d:eb:4c:db:36:5c:2f:e5:5a:c2:95:fb:51:d5:76:67:cd:31:
         e5:52:58:76:7c:62:81:8a:c8:f7:cd:57:56:9d:78:ff:a6:bd:
         a2:80:53:23:d0:14:e3:54:7b:47:9e:5c:0b:01:1c:e1:b2:57:
         ec:40:43:66:35:43:8d:77:e8:c7:60:61:20:cb:e1:a7:ac:6a:
         73:07:18:d7:ab:16:99:6f:f1:a4:2b:e4:4c:6e:b4:a5:2b:32:
         73:b4:58:72:3c:c5:db:57:f0:ac:5b:63:a2:93:53:a4:1a:c3:
         a3:b0:b4:97:5b:25:49:c2:31:c5:72:32:69:f0:8b:4a:9c:b6:
         37:c8:28:4b:ec:ce:32:7d:6d:7b:d6:e3:74:b3:e6:7f:ea:03:
         6d:6f:29:38:d2:54:1d:35:3f:2a:57:c9:dc:aa:d5:e5:4f:ca:
         6d:27:0b:0d:1c:da:ba:e7:56:4d:2b:3e:f3:d9:a3:71:56:b7:
         91:07:16:6d:42:ad:43:84:1b:64:54:92:29:35:2f:43:68:1e:
         79:61:d5:12
-----BEGIN CERTIFICATE-----
MIIEJjCCAw6gAwIBAgIEEAAAwjANBgkqhkiG9w0BAQUFADBEMQswCQYDVQQGEwJE
RTEPMA0GA1UECAwGSGVzc2VuMRQwEgYDVQQKDAtwcml2YWN5aWRlYTEOMAwGA1UE
AwwFQ0EwMDEwHhcNMTUxMDMxMTc0OTQ2WhcNMTYxMDMwMTc0OTQ2WjBUMQswCQYD
VQQGEwJERTEPMA0GA1UECAwGSGVzc2VuMRQwEgYDVQQKDAtwcml2YWN5aWRlYTEe
MBwGA1UEAwwVcmVxdWVzdGVyLmxvY2FsZG9tYWluMIIBIjANBgkqhkiG9w0BAQEF
AAOCAQ8AMIIBCgKCAQEAzb4UT/rOAT9CIhsdnK/dktJ/22y3PjlDQ2sTA/EF9Ad0
vHZpKAuvGY7X/OPNxljyyn8IbVP8BwJEJMa0NEyMBP4zDkDiILoCc1r39U9jbszG
tt9UHTc5fVE2Jl+93D+oi2uirrad1iHn30G4eigqaEjKqC3t4elGXlpybbSEOIeR
/ZQRCyiExsIvKvsB+TZ6CXXRM4g8c0FbyL+UiXCh8MC5LlBTHrEXZGn0LYHgqQ0O
Mum6VYqF8RtvSXm0f4jDDT5UiJs9HziMBPPuamMr9cbbtIOqxHhBOn1L4cg+ccob
YVnqxsTKMl7J6b8SKebGw2P+oFXaevFgmE0m7fpwLQIDAQABo4IBDjCCAQowCwYD
VR0PBAQDAgWgMAkGA1UdEwQCMAAwEQYJYIZIAYb4QgEBBAQDAgZAMDMGCWCGSAGG
+EIBDQQmFiRPcGVuU1NMIEdlbmVyYXRlZCBTZXJ2ZXIgQ2VydGlmaWNhdGUwHQYD
VR0OBBYEFFM/7V0JB7Nle6tFySRbCXeACpbtMHQGA1UdIwRtMGuAFPSnwMyRRq9k
85HyJ/jIsm+KhzJzoUikRjBEMQswCQYDVQQGEwJERTEPMA0GA1UECAwGSGVzc2Vu
MRQwEgYDVQQKDAtwcml2YWN5aWRlYTEOMAwGA1UEAwwFQ0EwMDGCCQD7yOusg80S
BzATBgNVHSUEDDAKBggrBgEFBQcDATANBgkqhkiG9w0BAQUFAAOCAQEANp3hF9D+
XS6oX8dqPyb4xQjAPLOuyCaXYHWeu2BLi4jOh4CaF/XKCV8NXXw2KObNKDtYr3Mr
PetM2zZcL+VawpX7UdV2Z80x5VJYdnxigYrI981XVp14/6a9ooBTI9AU41R7R55c
CwEc4bJX7EBDZjVDjXfox2BhIMvhp6xqcwcY16sWmW/xpCvkTG60pSsyc7RYcjzF
21fwrFtjopNTpBrDo7C0l1slScIxxXIyafCLSpy2N8goS+zOMn1te9bjdLPmf+oD
bW8pONJUHTU/KlfJ3KrV5U/KbScLDRzauudWTSs+89mjcVa3kQcWbUKtQ4QbZFSS
KTUvQ2geeWHVEg==
-----END CERTIFICATE-----
