Certificate:
    Data:
        Version: 3 (0x2)
        Serial Number: 268435641 (0x100000b9)
    Signature Algorithm: sha1WithRSAEncryption
        Issuer: C=DE, ST=Hessen, O=privacyidea, CN=CA001
        Validity
            Not Before: Nov 16 09:53:53 2015 GMT
            Not After : Nov 15 09:53:53 2016 GMT
        Subject: CN=Steve Test/emailAddress=steve@openssl.org
        Subject Public Key Info:
            Public Key Algorithm: rsaEncryption
                Public-Key: (2048 bit)
                Modulus:
                    00:d2:81:89:20:51:48:0f:73:f4:11:32:24:d5:1f:
                    1c:fd:5c:f5:b6:e6:c5:f0:52:81:dc:d2:af:66:4a:
                    7c:93:31:61:5c:af:d1:6d:06:70:03:60:7c:72:0c:
                    88:dd:49:cd:9e:02:6c:d2:5a:d7:53:0f:f3:da:be:
                    69:64:b5:0f:0c:00:e3:b3:50:47:a3:b3:9b:ba:13:
                    50:d6:58:5a:4b:ab:39:e0:11:ca:0a:27:67:03:78:
                    22:66:6d:92:1e:1b:5c:49:ae:e6:6b:d1:8e:3b:9d:
                    06:d3:c6:ac:4d:53:43:10:ab:e8:96:c1:87:82:97:
                    99:8f:20:d3:99:12:37:31:84:e1:8a:ff:29:03:5f:
                    22:90:3e:7f:9b:e0:20:c1:ad:dc:ae:4c:39:1a:31:
                    96:17:02:8c:b2:d9:b4:0d:20:12:9b:7d:86:54:fd:
                    33:fd:c1:2a:62:46:f8:60:96:cf:6e:01:6f:22:df:
                    13:47:e7:97:ec:05:72:23:a3:62:f8:fa:ef:ac:9c:
                    72:f0:37:cb:2f:37:cf:90:a8:27:51:86:c6:d7:78:
                    08:8f:7e:25:a2:15:70:a2:fb:1c:b6:15:5e:a0:97:
                    8b:81:4c:09:28:8a:27:3b:94:bc:71:db:5b:71:37:
                    9a:2b:16:e0:6f:b5:c9:f5:4b:4f:20:ba:65:cf:af:
                    ad:ad
                Exponent: 65537 (0x10001)
        X509v3 extensions:
            X509v3 Key Usage: 
                Digital Signature, Key Encipherment
            X509v3 Basic Constraints: 
                CA:FALSE
            Netscape Cert Type: 
                SSL Server
            Netscape Comment: 
                OpenSSL Generated Server Certificate
            X509v3 Subject Key Identifier: 
                E5:25:6D:3E:AF:0D:DD:3F:4C:F2:45:19:39:D5:14:DB:7E:9C:C0:AD
            X509v3 Authority Key Identifier: 
                keyid:F4:A7:C0:CC:91:46:AF:64:F3:91:F2:27:F8:C8:B2:6F:8A:87:32:73
                DirName:/C=DE/ST=Hessen/O=privacyidea/CN=CA001
                serial:FB:C8:EB:AC:83:CD:12:07

            X509v3 Extended Key Usage: 
                TLS Web Server Authentication
    Signature Algorithm: sha1WithRSAEncryption
         8e:0f:10:91:e6:61:6a:5a:3c:93:ee:4c:da:89:e8:9d:b6:b8:
         26:60:01:81:3e:37:9b:d0:c8:a9:d9:e1:ad:38:e4:40:8e:93:
         9b:77:3e:53:cd:32:48:9c:a2:98:7b:80:73:db:09:7e:f9:b9:
         2b:12:a9:21:d9:ef:a6:ac:8b:44:83:66:86:b6:01:a1:a4:79:
         25:59:55:fa:4b:61:4a:f8:ad:03:12:45:43:e2:5a:51:2c:37:
         f3:0f:4d:01:0e:71:68:04:28:36:c8:74:17:3e:1d:cc:dc:b6:
         fb:43:60:ff:9c:b9:24:b6:8a:68:0c:00:b4:bb:65:47:cc:45:
         e3:e1:04:3d:f7:a5:fd:f5:8b:29:69:db:3f:d1:55:d6:4d:9b:
         61:f9:99:54:76:c9:12:ef:db:63:b5:4f:45:4a:d4:2b:4e:b9:
         04:48:a8:f1:82:d6:6f:62:b0:80:c4:52:39:58:e9:21:89:a9:
         68:59:1d:87:28:fa:8b:65:e2:9b:a6:ad:bb:96:5e:75:59:34:
         5a:c6:98:06:3b:31:ac:2e:6f:23:c7:82:2f:14:f4:16:4a:a1:
         bb:ce:31:6d:2e:ef:9d:c9:44:25:de:90:3e:29:9f:37:cb:21:
         ce:4e:e5:77:b5:3c:34:c7:33:8b:1b:60:89:aa:61:16:aa:96:
         75:17:d5:df
-----BEGIN CERTIFICATE-----
MIIECTCCAvGgAwIBAgIEEAAAuTANBgkqhkiG9w0BAQUFADBEMQswCQYDVQQGEwJE
RTEPMA0GA1UECAwGSGVzc2VuMRQwEgYDVQQKDAtwcml2YWN5aWRlYTEOMAwGA1UE
AwwFQ0EwMDEwHhcNMTUxMTE2MDk1MzUzWhcNMTYxMTE1MDk1MzUzWjA3MRMwEQYD
VQQDEwpTdGV2ZSBUZXN0MSAwHgYJKoZIhvcNAQkBFhFzdGV2ZUBvcGVuc3NsLm9y
ZzCCASIwDQYJKoZIhvcNAQEBBQADggEPADCCAQoCggEBANKBiSBRSA9z9BEyJNUf
HP1c9bbmxfBSgdzSr2ZKfJMxYVyv0W0GcANgfHIMiN1JzZ4CbNJa11MP89q+aWS1
DwwA47NQR6Ozm7oTUNZYWkurOeARygonZwN4ImZtkh4bXEmu5mvRjjudBtPGrE1T
QxCr6JbBh4KXmY8g05kSNzGE4Yr/KQNfIpA+f5vgIMGt3K5MORoxlhcCjLLZtA0g
Ept9hlT9M/3BKmJG+GCWz24BbyLfE0fnl+wFciOjYvj676yccvA3yy83z5CoJ1GG
xtd4CI9+JaIVcKL7HLYVXqCXi4FMCSiKJzuUvHHbW3E3misW4G+1yfVLTyC6Zc+v
ra0CAwEAAaOCAQ4wggEKMAsGA1UdDwQEAwIFoDAJBgNVHRMEAjAAMBEGCWCGSAGG
+EIBAQQEAwIGQDAzBglghkgBhvhCAQ0EJhYkT3BlblNTTCBHZW5lcmF0ZWQgU2Vy
dmVyIENlcnRpZmljYXRlMB0GA1UdDgQWBBTlJW0+rw3dP0zyRRk51RTbfpzArTB0
BgNVHSMEbTBrgBT0p8DMkUavZPOR8if4yLJviocyc6FIpEYwRDELMAkGA1UEBhMC
REUxDzANBgNVBAgMBkhlc3NlbjEUMBIGA1UECgwLcHJpdmFjeWlkZWExDjAMBgNV
BAMMBUNBMDAxggkA+8jrrIPNEgcwEwYDVR0lBAwwCgYIKwYBBQUHAwEwDQYJKoZI
hvcNAQEFBQADggEBAI4PEJHmYWpaPJPuTNqJ6J22uCZgAYE+N5vQyKnZ4a045ECO
k5t3PlPNMkicoph7gHPbCX75uSsSqSHZ76asi0SDZoa2AaGkeSVZVfpLYUr4rQMS
RUPiWlEsN/MPTQEOcWgEKDbIdBc+HczctvtDYP+cuSS2imgMALS7ZUfMRePhBD33
pf31iylp2z/RVdZNm2H5mVR2yRLv22O1T0VK1CtOuQRIqPGC1m9isIDEUjlY6SGJ
qWhZHYco+otl4pumrbuWXnVZNFrGmAY7MawubyPHgi8U9BZKobvOMW0u753JRCXe
kD4pnzfLIc5O5Xe1PDTHM4sbYImqYRaqlnUX1d8=
-----END CERTIFICATE-----
