Certificate:
    Data:
        Version: 3 (0x2)
        Serial Number: 268435647 (0x100000bf)
    Signature Algorithm: sha1WithRSAEncryption
        Issuer: C=DE, ST=Hessen, O=privacyidea, CN=CA001
        Validity
            Not Before: Nov 16 10:19:35 2015 GMT
            Not After : Nov 15 10:19:35 2016 GMT
        Subject: CN=Steve Test/emailAddress=steve@openssl.org
        Subject Public Key Info:
            Public Key Algorithm: rsaEncryption
                Public-Key: (2048 bit)
                Modulus:
                    00:d2:81:89:20:51:48:0f:73:f4:11:32:24:d5:1f:
                    1c:fd:5c:f5:b6:e6:c5:f0:52:81:dc:d2:af:66:4a:
                    7c:93:31:61:5c:af:d1:6d:06:70:03:60:7c:72:0c:
                    88:dd:49:cd:9e:02:6c:d2:5a:d7:53:0f:f3:da:be:
                    69:64:b5:0f:0c:00:e3:b3:50:47:a3:b3:9b:ba:13:
                    50:d6:58:5a:4b:ab:39:e0:11:ca:0a:27:67:03:78:
                    22:66:6d:92:1e:1b:5c:49:ae:e6:6b:d1:8e:3b:9d:
                    06:d3:c6:ac:4d:53:43:10:ab:e8:96:c1:87:82:97:
                    99:8f:20:d3:99:12:37:31:84:e1:8a:ff:29:03:5f:
                    22:90:3e:7f:9b:e0:20:c1:ad:dc:ae:4c:39:1a:31:
                    96:17:02:8c:b2:d9:b4:0d:20:12:9b:7d:86:54:fd:
                    33:fd:c1:2a:62:46:f8:60:96:cf:6e:01:6f:22:df:
                    13:47:e7:97:ec:05:72:23:a3:62:f8:fa:ef:ac:9c:
                    72:f0:37:cb:2f:37:cf:90:a8:27:51:86:c6:d7:78:
                    08:8f:7e:25:a2:15:70:a2:fb:1c:b6:15:5e:a0:97:
                    8b:81:4c:09:28:8a:27:3b:94:bc:71:db:5b:71:37:
                    9a:2b:16:e0:6f:b5:c9:f5:4b:4f:20:ba:65:cf:af:
                    ad:ad
                Exponent: 65537 (0x10001)
        X509v3 extensions:
            X509v3 Key Usage: 
                Digital Signature, Key Encipherment
            X509v3 Basic Constraints: 
                CA:FALSE
            Netscape Cert Type: 
                SSL Server
            Netscape Comment: 
                OpenSSL Generated Server Certificate
            X509v3 Subject Key Identifier: 
                E5:25:6D:3E:AF:0D:DD:3F:4C:F2:45:19:39:D5:14:DB:7E:9C:C0:AD
            X509v3 Authority Key Identifier: 
                keyid:F4:A7:C0:CC:91:46:AF:64:F3:91:F2:27:F8:C8:B2:6F:8A:87:32:73
                DirName:/C=DE/ST=Hessen/O=privacyidea/CN=CA001
                serial:FB:C8:EB:AC:83:CD:12:07

            X509v3 Extended Key Usage: 
                TLS Web Server Authentication
    Signature Algorithm: sha1WithRSAEncryption
         59:10:95:d8:79:8c:ab:2d:55:d6:e8:7c:18:b1:89:7e:17:5b:
         02:86:50:56:d8:65:19:41:a2:51:1a:b1:65:c4:e2:4a:80:0c:
         6c:95:76:eb:ec:e2:50:d4:67:27:27:61:28:9f:59:f8:b2:3e:
         81:48:d0:30:e6:ad:6c:ab:48:aa:9b:8f:9f:fc:c9:1c:7a:0a:
         19:b9:44:81:8e:d0:57:19:6f:12:89:18:36:fd:1e:dd:b0:b8:
         25:43:02:a9:b8:13:62:ff:20:69:57:61:39:59:bd:c2:c6:d6:
         90:7e:93:59:9d:a9:36:f6:b5:79:c2:61:c4:52:69:e0:db:4f:
         24:e3:89:33:f4:34:c5:e3:2a:d1:d8:56:d9:a7:3a:57:9f:79:
         41:1f:b3:8c:59:fc:f7:4f:42:4d:99:7f:00:cf:c0:ba:61:08:
         91:88:be:c8:e8:6b:5a:a4:4d:30:33:e5:ca:98:43:18:4c:86:
         03:63:ec:38:7a:a0:d9:4a:44:02:96:67:8f:99:28:a8:28:e0:
         f7:10:33:01:2e:8e:05:86:6e:09:be:f9:40:26:64:28:52:94:
         5c:32:9a:62:ab:3e:30:1a:8e:dd:dd:39:01:44:28:ab:91:6d:
         9a:31:9d:e8:75:4d:75:9f:07:04:e3:59:58:58:18:a3:30:8b:
         2d:74:a0:d1
-----BEGIN CERTIFICATE-----
MIIECTCCAvGgAwIBAgIEEAAAvzANBgkqhkiG9w0BAQUFADBEMQswCQYDVQQGEwJE
RTEPMA0GA1UECAwGSGVzc2VuMRQwEgYDVQQKDAtwcml2YWN5aWRlYTEOMAwGA1UE
AwwFQ0EwMDEwHhcNMTUxMTE2MTAxOTM1WhcNMTYxMTE1MTAxOTM1WjA3MRMwEQYD
VQQDEwpTdGV2ZSBUZXN0MSAwHgYJKoZIhvcNAQkBFhFzdGV2ZUBvcGVuc3NsLm9y
ZzCCASIwDQYJKoZIhvcNAQEBBQADggEPADCCAQoCggEBANKBiSBRSA9z9BEyJNUf
HP1c9bbmxfBSgdzSr2ZKfJMxYVyv0W0GcANgfHIMiN1JzZ4CbNJa11MP89q+aWS1
DwwA47NQR6Ozm7oTUNZYWkurOeARygonZwN4ImZtkh4bXEmu5mvRjjudBtPGrE1T
QxCr6JbBh4KXmY8g05kSNzGE4Yr/KQNfIpA+f5vgIMGt3K5MORoxlhcCjLLZtA0g
Ept9hlT9M/3BKmJG+GCWz24BbyLfE0fnl+wFciOjYvj676yccvA3yy83z5CoJ1GG
xtd4CI9+JaIVcKL7HLYVXqCXi4FMCSiKJzuUvHHbW3E3misW4G+1yfVLTyC6Zc+v
ra0CAwEAAaOCAQ4wggEKMAsGA1UdDwQEAwIFoDAJBgNVHRMEAjAAMBEGCWCGSAGG
+EIBAQQEAwIGQDAzBglghkgBhvhCAQ0EJhYkT3BlblNTTCBHZW5lcmF0ZWQgU2Vy
dmVyIENlcnRpZmljYXRlMB0GA1UdDgQWBBTlJW0+rw3dP0zyRRk51RTbfpzArTB0
BgNVHSMEbTBrgBT0p8DMkUavZPOR8if4yLJviocyc6FIpEYwRDELMAkGA1UEBhMC
REUxDzANBgNVBAgMBkhlc3NlbjEUMBIGA1UECgwLcHJpdmFjeWlkZWExDjAMBgNV
BAMMBUNBMDAxggkA+8jrrIPNEgcwEwYDVR0lBAwwCgYIKwYBBQUHAwEwDQYJKoZI
hvcNAQEFBQADggEBAFkQldh5jKstVdbofBixiX4XWwKGUFbYZRlBolEasWXE4kqA
DGyVduvs4lDUZycnYSifWfiyPoFI0DDmrWyrSKqbj5/8yRx6Chm5RIGO0FcZbxKJ
GDb9Ht2wuCVDAqm4E2L/IGlXYTlZvcLG1pB+k1mdqTb2tXnCYcRSaeDbTyTjiTP0
NMXjKtHYVtmnOlefeUEfs4xZ/PdPQk2ZfwDPwLphCJGIvsjoa1qkTTAz5cqYQxhM
hgNj7Dh6oNlKRAKWZ4+ZKKgo4PcQMwEujgWGbgm++UAmZChSlFwymmKrPjAajt3d
OQFEKKuRbZoxneh1TXWfBwTjWVhYGKMwiy10oNE=
-----END CERTIFICATE-----
