Certificate:
    Data:
        Version: 3 (0x2)
        Serial Number: 268435661 (0x100000cd)
    Signature Algorithm: sha1WithRSAEncryption
        Issuer: C=DE, ST=Hessen, O=privacyidea, CN=CA001
        Validity
            Not Before: Sep 26 14:28:15 2015 GMT
            Not After : Sep 25 14:28:15 2016 GMT
        Subject: C=DE, ST=Hessen, O=privacyidea, CN=requester.localdomain
        Subject Public Key Info:
            Public Key Algorithm: rsaEncryption
                Public-Key: (2048 bit)
                Modulus:
                    00:cd:be:14:4f:fa:ce:01:3f:42:22:1b:1d:9c:af:
                    dd:92:d2:7f:db:6c:b7:3e:39:43:43:6b:13:03:f1:
                    05:f4:07:74:bc:76:69:28:0b:af:19:8e:d7:fc:e3:
                    cd:c6:58:f2:ca:7f:08:6d:53:fc:07:02:44:24:c6:
                    b4:34:4c:8c:04:fe:33:0e:40:e2:20:ba:02:73:5a:
                    f7:f5:4f:63:6e:cc:c6:b6:df:54:1d:37:39:7d:51:
                    36:26:5f:bd:dc:3f:a8:8b:6b:a2:ae:b6:9d:d6:21:
                    e7:df:41:b8:7a:28:2a:68:48:ca:a8:2d:ed:e1:e9:
                    46:5e:5a:72:6d:b4:84:38:87:91:fd:94:11:0b:28:
                    84:c6:c2:2f:2a:fb:01:f9:36:7a:09:75:d1:33:88:
                    3c:73:41:5b:c8:bf:94:89:70:a1:f0:c0:b9:2e:50:
                    53:1e:b1:17:64:69:f4:2d:81:e0:a9:0d:0e:32:e9:
                    ba:55:8a:85:f1:1b:6f:49:79:b4:7f:88:c3:0d:3e:
                    54:88:9b:3d:1f:38:8c:04:f3:ee:6a:63:2b:f5:c6:
                    db:b4:83:aa:c4:78:41:3a:7d:4b:e1:c8:3e:71:ca:
                    1b:61:59:ea:c6:c4:ca:32:5e:c9:e9:bf:12:29:e6:
                    c6:c3:63:fe:a0:55:da:7a:f1:60:98:4d:26:ed:fa:
                    70:2d
                Exponent: 65537 (0x10001)
        X509v3 extensions:
            X509v3 Key Usage: 
                Digital Signature, Key Encipherment
            X509v3 Basic Constraints: 
                CA:FALSE
            Netscape Cert Type: 
                SSL Server
            Netscape Comment: 
                OpenSSL Generated Server Certificate
            X509v3 Subject Key Identifier: 
                53:3F:ED:5D:09:07:B3:65:7B:AB:45:C9:24:5B:09:77:80:0A:96:ED
            X509v3 Authority Key Identifier: 
                keyid:F4:A7:C0:CC:91:46:AF:64:F3:91:F2:27:F8:C8:B2:6F:8A:87:32:73
                DirName:/C=DE/ST=Hessen/O=privacyidea/CN=CA001
                serial:FB:C8:EB:AC:83:CD:12:07

            X509v3 Extended Key Usage: 
                TLS Web Server Authentication
    Signature Algorithm: sha1WithRSAEncryption
         7c:d3:6f:8f:3a:32:4d:1b:c8:6e:e3:85:2f:03:3d:01:7d:95:
         df:92:2b:5c:65:83:a7:a9:fc:e0:32:14:d4:08:a3:64:c8:3b:
         bf:24:2b:05:97:96:61:1e:fe:51:3c:5b:69:df:07:3c:14:e5:
         83:4a:cf:aa:28:47:05:e1:2f:71:e2:0c:8f:bf:cf:3c:36:fa:
         a1:e4:fe:5c:35:a1:ce:37:5f:f7:b5:04:c9:2e:c4:ab:e0:07:
         13:ee:d8:be:a2:82:2f:92:a8:56:1a:e7:50:13:20:4f:e4:10:
         cd:4d:27:5c:49:a6:2a:75:41:83:1e:40:86:00:10:e3:b1:12:
         2b:13:55:da:31:3b:c6:d9:c3:8c:18:6e:c0:42:f0:1c:e7:ff:
         2c:4c:06:40:a8:0b:8d:00:97:6e:ff:f3:4f:12:07:9d:92:03:
         69:49:4b:06:50:5c:0e:6d:17:8f:f3:2d:e1:1e:66:c7:86:d5:
         9a:be:cc:08:63:65:c4:a8:d9:b4:1c:1b:aa:a2:d9:d5:8d:d7:
         9c:67:64:61:35:11:d8:22:fb:25:26:5a:53:1c:4a:4c:86:bb:
         db:7c:87:1c:e0:3e:c5:ac:d4:c0:fc:5e:c2:7b:a7:b4:ed:63:
         55:53:0b:35:f8:54:67:14:0e:3f:25:55:03:27:72:b8:12:d7:
         fa:d8:c8:b5
-----BEGIN CERTIFICATE-----
MIIEJjCCAw6gAwIBAgIEEAAAzTANBgkqhkiG9w0BAQUFADBEMQswCQYDVQQGEwJE
RTEPMA0GA1UECAwGSGVzc2VuMRQwEgYDVQQKDAtwcml2YWN5aWRlYTEOMAwGA1UE
AwwFQ0EwMDEwHhcNMTUwOTI2MTQyODE1WhcNMTYwOTI1MTQyODE1WjBUMQswCQYD
VQQGEwJERTEPMA0GA1UECAwGSGVzc2VuMRQwEgYDVQQKDAtwcml2YWN5aWRlYTEe
MBwGA1UEAwwVcmVxdWVzdGVyLmxvY2FsZG9tYWluMIIBIjANBgkqhkiG9w0BAQEF
AAOCAQ8AMIIBCgKCAQEAzb4UT/rOAT9CIhsdnK/dktJ/22y3PjlDQ2sTA/EF9Ad0
vHZpKAuvGY7X/OPNxljyyn8IbVP8BwJEJMa0NEyMBP4zDkDiILoCc1r39U9jbszG
tt9UHTc5fVE2Jl+93D+oi2uirrad1iHn30G4eigqaEjKqC3t4elGXlpybbSEOIeR
/ZQRCyiExsIvKvsB+TZ6CXXRM4g8c0FbyL+UiXCh8MC5LlBTHrEXZGn0LYHgqQ0O
Mum6VYqF8RtvSXm0f4jDDT5UiJs9HziMBPPuamMr9cbbtIOqxHhBOn1L4cg+ccob
YVnqxsTKMl7J6b8SKebGw2P+oFXaevFgmE0m7fpwLQIDAQABo4IBDjCCAQowCwYD
VR0PBAQDAgWgMAkGA1UdEwQCMAAwEQYJYIZIAYb4QgEBBAQDAgZAMDMGCWCGSAGG
+EIBDQQmFiRPcGVuU1NMIEdlbmVyYXRlZCBTZXJ2ZXIgQ2VydGlmaWNhdGUwHQYD
VR0OBBYEFFM/7V0JB7Nle6tFySRbCXeACpbtMHQGA1UdIwRtMGuAFPSnwMyRRq9k
85HyJ/jIsm+KhzJzoUikRjBEMQswCQYDVQQGEwJERTEPMA0GA1UECAwGSGVzc2Vu
MRQwEgYDVQQKDAtwcml2YWN5aWRlYTEOMAwGA1UEAwwFQ0EwMDGCCQD7yOusg80S
BzATBgNVHSUEDDAKBggrBgEFBQcDATANBgkqhkiG9w0BAQUFAAOCAQEAfNNvjzoy
TRvIbuOFLwM9AX2V35IrXGWDp6n84DIU1AijZMg7vyQrBZeWYR7+UTxbad8HPBTl
g0rPqihHBeEvceIMj7/PPDb6oeT+XDWhzjdf97UEyS7Eq+AHE+7YvqKCL5KoVhrn
UBMgT+QQzU0nXEmmKnVBgx5AhgAQ47ESKxNV2jE7xtnDjBhuwELwHOf/LEwGQKgL
jQCXbv/zTxIHnZIDaUlLBlBcDm0Xj/Mt4R5mx4bVmr7MCGNlxKjZtBwbqqLZ1Y3X
nGdkYTUR2CL7JSZaUxxKTIa723yHHOA+xazUwPxewnuntO1jVVMLNfhUZxQOPyVV
AydyuBLX+tjItQ==
-----END CERTIFICATE-----
