Certificate:
    Data:
        Version: 3 (0x2)
        Serial Number: 268435642 (0x100000ba)
    Signature Algorithm: sha1WithRSAEncryption
        Issuer: C=DE, ST=Hessen, O=privacyidea, CN=CA001
        Validity
            Not Before: Nov 16 09:55:46 2015 GMT
            Not After : Nov 15 09:55:46 2016 GMT
        Subject: C=DE, ST=Hessen, O=privacyidea, CN=requester.localdomain
        Subject Public Key Info:
            Public Key Algorithm: rsaEncryption
                Public-Key: (2048 bit)
                Modulus:
                    00:cd:be:14:4f:fa:ce:01:3f:42:22:1b:1d:9c:af:
                    dd:92:d2:7f:db:6c:b7:3e:39:43:43:6b:13:03:f1:
                    05:f4:07:74:bc:76:69:28:0b:af:19:8e:d7:fc:e3:
                    cd:c6:58:f2:ca:7f:08:6d:53:fc:07:02:44:24:c6:
                    b4:34:4c:8c:04:fe:33:0e:40:e2:20:ba:02:73:5a:
                    f7:f5:4f:63:6e:cc:c6:b6:df:54:1d:37:39:7d:51:
                    36:26:5f:bd:dc:3f:a8:8b:6b:a2:ae:b6:9d:d6:21:
                    e7:df:41:b8:7a:28:2a:68:48:ca:a8:2d:ed:e1:e9:
                    46:5e:5a:72:6d:b4:84:38:87:91:fd:94:11:0b:28:
                    84:c6:c2:2f:2a:fb:01:f9:36:7a:09:75:d1:33:88:
                    3c:73:41:5b:c8:bf:94:89:70:a1:f0:c0:b9:2e:50:
                    53:1e:b1:17:64:69:f4:2d:81:e0:a9:0d:0e:32:e9:
                    ba:55:8a:85:f1:1b:6f:49:79:b4:7f:88:c3:0d:3e:
                    54:88:9b:3d:1f:38:8c:04:f3:ee:6a:63:2b:f5:c6:
                    db:b4:83:aa:c4:78:41:3a:7d:4b:e1:c8:3e:71:ca:
                    1b:61:59:ea:c6:c4:ca:32:5e:c9:e9:bf:12:29:e6:
                    c6:c3:63:fe:a0:55:da:7a:f1:60:98:4d:26:ed:fa:
                    70:2d
                Exponent: 65537 (0x10001)
        X509v3 extensions:
            X509v3 Key Usage: 
                Digital Signature, Key Encipherment
            X509v3 Basic Constraints: 
                CA:FALSE
            Netscape Cert Type: 
                SSL Server
            Netscape Comment: 
                OpenSSL Generated Server Certificate
            X509v3 Subject Key Identifier: 
                53:3F:ED:5D:09:07:B3:65:7B:AB:45:C9:24:5B:09:77:80:0A:96:ED
            X509v3 Authority Key Identifier: 
                keyid:F4:A7:C0:CC:91:46:AF:64:F3:91:F2:27:F8:C8:B2:6F:8A:87:32:73
                DirName:/C=DE/ST=Hessen/O=privacyidea/CN=CA001
                serial:FB:C8:EB:AC:83:CD:12:07

            X509v3 Extended Key Usage: 
                TLS Web Server Authentication
    Signature Algorithm: sha1WithRSAEncryption
         80:fb:ac:19:16:87:48:4f:7e:16:af:67:18:c8:c9:52:6d:91:
         08:7f:67:7e:25:b6:39:32:c8:12:fc:5a:06:13:d1:30:70:d0:
         81:84:9a:b0:36:b3:4b:09:7a:5b:46:50:b8:a5:47:12:4e:b2:
         14:da:13:34:02:25:f8:5b:08:45:81:25:ec:ef:a6:6c:12:cc:
         d7:1b:34:d8:39:c6:e2:ed:b5:cc:c3:ac:0d:9e:20:05:70:a9:
         27:fe:f7:16:9e:9f:f0:a2:7a:ee:41:aa:77:6e:97:f2:1c:f3:
         fe:40:5c:13:40:7d:2a:b5:c3:da:6c:dc:86:6d:8a:ef:14:eb:
         54:4b:d2:f8:08:20:0d:ed:20:81:8c:3a:41:8f:24:42:7f:13:
         4e:68:94:82:5e:a6:ad:1c:7f:08:4e:5f:db:5e:0d:8e:ca:a7:
         e5:49:83:bb:40:37:b7:25:b8:bd:87:e6:b5:11:50:c4:f4:8d:
         2c:f1:e1:96:ba:81:e2:2f:8b:4a:b2:63:8e:0d:d7:13:aa:cc:
         d7:16:ec:4d:29:fb:18:fd:12:24:72:15:df:64:0a:38:bf:66:
         17:9c:94:4a:26:4a:54:40:ef:8c:c9:83:a3:5f:77:7b:99:9c:
         2d:82:29:20:b1:5c:05:1d:5a:67:48:16:22:57:12:8c:cc:9b:
         b9:ad:5d:88
-----BEGIN CERTIFICATE-----
MIIEJjCCAw6gAwIBAgIEEAAAujANBgkqhkiG9w0BAQUFADBEMQswCQYDVQQGEwJE
RTEPMA0GA1UECAwGSGVzc2VuMRQwEgYDVQQKDAtwcml2YWN5aWRlYTEOMAwGA1UE
AwwFQ0EwMDEwHhcNMTUxMTE2MDk1NTQ2WhcNMTYxMTE1MDk1NTQ2WjBUMQswCQYD
VQQGEwJERTEPMA0GA1UECAwGSGVzc2VuMRQwEgYDVQQKDAtwcml2YWN5aWRlYTEe
MBwGA1UEAwwVcmVxdWVzdGVyLmxvY2FsZG9tYWluMIIBIjANBgkqhkiG9w0BAQEF
AAOCAQ8AMIIBCgKCAQEAzb4UT/rOAT9CIhsdnK/dktJ/22y3PjlDQ2sTA/EF9Ad0
vHZpKAuvGY7X/OPNxljyyn8IbVP8BwJEJMa0NEyMBP4zDkDiILoCc1r39U9jbszG
tt9UHTc5fVE2Jl+93D+oi2uirrad1iHn30G4eigqaEjKqC3t4elGXlpybbSEOIeR
/ZQRCyiExsIvKvsB+TZ6CXXRM4g8c0FbyL+UiXCh8MC5LlBTHrEXZGn0LYHgqQ0O
Mum6VYqF8RtvSXm0f4jDDT5UiJs9HziMBPPuamMr9cbbtIOqxHhBOn1L4cg+ccob
YVnqxsTKMl7J6b8SKebGw2P+oFXaevFgmE0m7fpwLQIDAQABo4IBDjCCAQowCwYD
VR0PBAQDAgWgMAkGA1UdEwQCMAAwEQYJYIZIAYb4QgEBBAQDAgZAMDMGCWCGSAGG
+EIBDQQmFiRPcGVuU1NMIEdlbmVyYXRlZCBTZXJ2ZXIgQ2VydGlmaWNhdGUwHQYD
VR0OBBYEFFM/7V0JB7Nle6tFySRbCXeACpbtMHQGA1UdIwRtMGuAFPSnwMyRRq9k
85HyJ/jIsm+KhzJzoUikRjBEMQswCQYDVQQGEwJERTEPMA0GA1UECAwGSGVzc2Vu
MRQwEgYDVQQKDAtwcml2YWN5aWRlYTEOMAwGA1UEAwwFQ0EwMDGCCQD7yOusg80S
BzATBgNVHSUEDDAKBggrBgEFBQcDATANBgkqhkiG9w0BAQUFAAOCAQEAgPusGRaH
SE9+Fq9nGMjJUm2RCH9nfiW2OTLIEvxaBhPRMHDQgYSasDazSwl6W0ZQuKVHEk6y
FNoTNAIl+FsIRYEl7O+mbBLM1xs02DnG4u21zMOsDZ4gBXCpJ/73Fp6f8KJ67kGq
d26X8hzz/kBcE0B9KrXD2mzchm2K7xTrVEvS+AggDe0ggYw6QY8kQn8TTmiUgl6m
rRx/CE5f214Njsqn5UmDu0A3tyW4vYfmtRFQxPSNLPHhlrqB4i+LSrJjjg3XE6rM
1xbsTSn7GP0SJHIV32QKOL9mF5yUSiZKVEDvjMmDo193e5mcLYIpILFcBR1aZ0gW
IlcSjMybua1diA==
-----END CERTIFICATE-----
