Certificate:
    Data:
        Version: 3 (0x2)
        Serial Number: 268435640 (0x100000b8)
    Signature Algorithm: sha1WithRSAEncryption
        Issuer: C=DE, ST=Hessen, O=privacyidea, CN=CA001
        Validity
            Not Before: Nov 16 09:53:53 2015 GMT
            Not After : Nov 15 09:53:53 2016 GMT
        Subject: C=DE, ST=Hessen, O=privacyidea, CN=usercert
        Subject Public Key Info:
            Public Key Algorithm: rsaEncryption
                Public-Key: (2048 bit)
                Modulus:
                    00:dc:2f:d1:5f:29:97:d4:7c:c3:53:c8:30:bd:4b:
                    67:70:2c:24:6b:b8:5e:eb:21:7a:48:12:56:7c:81:
                    5c:48:75:b6:68:eb:f6:f2:98:4e:50:51:d1:7f:6c:
                    73:f3:0a:a7:ae:be:48:5e:e5:d6:e1:d9:2a:7c:32:
                    6e:4e:fd:08:f6:5a:54:49:23:73:c3:b9:07:18:d1:
                    ef:b3:ac:f8:8a:dc:94:96:a4:90:3a:8e:74:df:e6:
                    0d:37:1b:bd:5b:b7:25:1a:56:39:da:6f:91:aa:5e:
                    1c:74:f3:f9:7c:14:01:83:12:65:76:c7:bb:fe:36:
                    5b:95:e9:72:65:83:ed:3e:98:30:71:fa:87:dd:a3:
                    36:5a:30:03:2e:26:e0:61:d1:bf:02:3f:b6:06:1f:
                    4a:89:28:1c:5c:a2:ff:4e:be:94:e6:8c:e0:da:82:
                    f1:9d:29:32:48:30:73:b4:04:f6:42:1e:be:f7:e2:
                    32:32:27:3c:9d:89:2f:70:3e:85:9a:6f:5c:c5:09:
                    c0:8c:32:2f:72:22:c9:d2:95:1f:b6:ac:72:60:72:
                    b7:82:4d:6b:ce:5b:e3:00:d0:d2:2f:58:c6:e0:10:
                    e5:51:ca:4d:3b:2e:e6:7e:ab:84:d6:56:f1:93:35:
                    a0:93:64:26:81:75:2f:91:b5:16:06:38:0b:db:cc:
                    2d:07
                Exponent: 65537 (0x10001)
        X509v3 extensions:
            X509v3 Key Usage: 
                Digital Signature, Key Encipherment
            X509v3 Basic Constraints: 
                CA:FALSE
            Netscape Cert Type: 
                SSL Server
            Netscape Comment: 
                OpenSSL Generated Server Certificate
            X509v3 Subject Key Identifier: 
                FC:14:D1:F0:4B:8D:00:90:F2:F5:B8:71:9E:4E:97:C3:92:54:AD:0B
            X509v3 Authority Key Identifier: 
                keyid:F4:A7:C0:CC:91:46:AF:64:F3:91:F2:27:F8:C8:B2:6F:8A:87:32:73
                DirName:/C=DE/ST=Hessen/O=privacyidea/CN=CA001
                serial:FB:C8:EB:AC:83:CD:12:07

            X509v3 Extended Key Usage: 
                TLS Web Server Authentication
    Signature Algorithm: sha1WithRSAEncryption
         6e:19:ba:54:54:98:8e:8f:33:25:ac:34:89:cb:fe:2f:fe:cb:
         67:e1:e0:6d:3f:a7:a3:54:61:db:ce:e2:2a:b2:92:38:8d:14:
         53:6a:87:63:c3:04:0d:3d:c4:27:41:4f:07:d4:49:5a:b9:a8:
         76:99:50:6d:e2:05:5a:a8:83:41:94:7b:dd:66:28:ed:6c:57:
         b0:37:1c:84:2c:55:c0:9d:4a:8d:8b:68:51:bb:30:9f:5c:29:
         8a:e0:43:df:01:bc:37:bb:77:18:52:d6:af:91:f5:a0:5c:c7:
         38:ca:cc:42:48:22:9a:7c:03:01:3d:6d:86:ee:45:ef:22:79:
         98:d0:ac:30:80:05:55:7f:ae:4b:aa:23:18:52:cb:55:19:e3:
         3a:7e:ce:6c:a1:29:50:4f:de:89:16:21:94:82:ec:d3:45:68:
         69:94:d9:9a:bb:43:b3:98:10:1c:61:a6:c9:e0:71:65:37:dd:
         8d:9c:bc:33:03:c9:7f:1d:3d:89:4e:dd:98:49:55:ec:7c:57:
         6b:be:a1:16:ff:be:e9:b3:48:fd:71:b0:23:0e:7b:8c:14:6a:
         ea:1c:eb:51:50:a1:f2:04:dd:dc:05:14:7d:3f:56:f8:76:ba:
         d3:25:8f:7f:53:d4:8c:36:01:ef:39:b2:ac:1a:d9:0f:a9:29:
         43:84:e3:62
-----BEGIN CERTIFICATE-----
MIIEGTCCAwGgAwIBAgIEEAAAuDANBgkqhkiG9w0BAQUFADBEMQswCQYDVQQGEwJE
RTEPMA0GA1UECAwGSGVzc2VuMRQwEgYDVQQKDAtwcml2YWN5aWRlYTEOMAwGA1UE
AwwFQ0EwMDEwHhcNMTUxMTE2MDk1MzUzWhcNMTYxMTE1MDk1MzUzWjBHMQswCQYD
VQQGEwJERTEPMA0GA1UECAwGSGVzc2VuMRQwEgYDVQQKDAtwcml2YWN5aWRlYTER
MA8GA1UEAwwIdXNlcmNlcnQwggEiMA0GCSqGSIb3DQEBAQUAA4IBDwAwggEKAoIB
AQDcL9FfKZfUfMNTyDC9S2dwLCRruF7rIXpIElZ8gVxIdbZo6/bymE5QUdF/bHPz
Cqeuvkhe5dbh2Sp8Mm5O/Qj2WlRJI3PDuQcY0e+zrPiK3JSWpJA6jnTf5g03G71b
tyUaVjnab5GqXhx08/l8FAGDEmV2x7v+NluV6XJlg+0+mDBx+ofdozZaMAMuJuBh
0b8CP7YGH0qJKBxcov9OvpTmjODagvGdKTJIMHO0BPZCHr734jIyJzydiS9wPoWa
b1zFCcCMMi9yIsnSlR+2rHJgcreCTWvOW+MA0NIvWMbgEOVRyk07LuZ+q4TWVvGT
NaCTZCaBdS+RtRYGOAvbzC0HAgMBAAGjggEOMIIBCjALBgNVHQ8EBAMCBaAwCQYD
VR0TBAIwADARBglghkgBhvhCAQEEBAMCBkAwMwYJYIZIAYb4QgENBCYWJE9wZW5T
U0wgR2VuZXJhdGVkIFNlcnZlciBDZXJ0aWZpY2F0ZTAdBgNVHQ4EFgQU/BTR8EuN
AJDy9bhxnk6Xw5JUrQswdAYDVR0jBG0wa4AU9KfAzJFGr2TzkfIn+Miyb4qHMnOh
SKRGMEQxCzAJBgNVBAYTAkRFMQ8wDQYDVQQIDAZIZXNzZW4xFDASBgNVBAoMC3By
aXZhY3lpZGVhMQ4wDAYDVQQDDAVDQTAwMYIJAPvI66yDzRIHMBMGA1UdJQQMMAoG
CCsGAQUFBwMBMA0GCSqGSIb3DQEBBQUAA4IBAQBuGbpUVJiOjzMlrDSJy/4v/stn
4eBtP6ejVGHbzuIqspI4jRRTaodjwwQNPcQnQU8H1Elauah2mVBt4gVaqINBlHvd
ZijtbFewNxyELFXAnUqNi2hRuzCfXCmK4EPfAbw3u3cYUtavkfWgXMc4ysxCSCKa
fAMBPW2G7kXvInmY0KwwgAVVf65LqiMYUstVGeM6fs5soSlQT96JFiGUguzTRWhp
lNmau0OzmBAcYabJ4HFlN92NnLwzA8l/HT2JTt2YSVXsfFdrvqEW/77ps0j9cbAj
DnuMFGrqHOtRUKHyBN3cBRR9P1b4drrTJY9/U9SMNgHvObKsGtkPqSlDhONi
-----END CERTIFICATE-----
