Certificate:
    Data:
        Version: 3 (0x2)
        Serial Number: 268435648 (0x100000c0)
    Signature Algorithm: sha1WithRSAEncryption
        Issuer: C=DE, ST=Hessen, O=privacyidea, CN=CA001
        Validity
            Not Before: Nov 16 10:21:29 2015 GMT
            Not After : Nov 15 10:21:29 2016 GMT
        Subject: C=DE, ST=Hessen, O=privacyidea, CN=requester.localdomain
        Subject Public Key Info:
            Public Key Algorithm: rsaEncryption
                Public-Key: (2048 bit)
                Modulus:
                    00:cd:be:14:4f:fa:ce:01:3f:42:22:1b:1d:9c:af:
                    dd:92:d2:7f:db:6c:b7:3e:39:43:43:6b:13:03:f1:
                    05:f4:07:74:bc:76:69:28:0b:af:19:8e:d7:fc:e3:
                    cd:c6:58:f2:ca:7f:08:6d:53:fc:07:02:44:24:c6:
                    b4:34:4c:8c:04:fe:33:0e:40:e2:20:ba:02:73:5a:
                    f7:f5:4f:63:6e:cc:c6:b6:df:54:1d:37:39:7d:51:
                    36:26:5f:bd:dc:3f:a8:8b:6b:a2:ae:b6:9d:d6:21:
                    e7:df:41:b8:7a:28:2a:68:48:ca:a8:2d:ed:e1:e9:
                    46:5e:5a:72:6d:b4:84:38:87:91:fd:94:11:0b:28:
                    84:c6:c2:2f:2a:fb:01:f9:36:7a:09:75:d1:33:88:
                    3c:73:41:5b:c8:bf:94:89:70:a1:f0:c0:b9:2e:50:
                    53:1e:b1:17:64:69:f4:2d:81:e0:a9:0d:0e:32:e9:
                    ba:55:8a:85:f1:1b:6f:49:79:b4:7f:88:c3:0d:3e:
                    54:88:9b:3d:1f:38:8c:04:f3:ee:6a:63:2b:f5:c6:
                    db:b4:83:aa:c4:78:41:3a:7d:4b:e1:c8:3e:71:ca:
                    1b:61:59:ea:c6:c4:ca:32:5e:c9:e9:bf:12:29:e6:
                    c6:c3:63:fe:a0:55:da:7a:f1:60:98:4d:26:ed:fa:
                    70:2d
                Exponent: 65537 (0x10001)
        X509v3 extensions:
            X509v3 Key Usage: 
                Digital Signature, Key Encipherment
            X509v3 Basic Constraints: 
                CA:FALSE
            Netscape Cert Type: 
                SSL Server
            Netscape Comment: 
                OpenSSL Generated Server Certificate
            X509v3 Subject Key Identifier: 
                53:3F:ED:5D:09:07:B3:65:7B:AB:45:C9:24:5B:09:77:80:0A:96:ED
            X509v3 Authority Key Identifier: 
                keyid:F4:A7:C0:CC:91:46:AF:64:F3:91:F2:27:F8:C8:B2:6F:8A:87:32:73
                DirName:/C=DE/ST=Hessen/O=privacyidea/CN=CA001
                serial:FB:C8:EB:AC:83:CD:12:07

            X509v3 Extended Key Usage: 
                TLS Web Server Authentication
    Signature Algorithm: sha1WithRSAEncryption
         32:cf:0f:90:06:25:81:51:34:31:33:83:d3:0a:b7:56:38:4c:
         3e:85:00:b2:d3:51:e5:f6:66:2c:f9:56:df:65:d4:a8:12:21:
         08:b2:96:63:67:fa:64:78:62:1d:ac:ff:c1:f7:d8:18:b6:b5:
         38:ab:3c:db:eb:dc:f2:12:8a:2c:67:36:e0:05:85:3d:b6:81:
         1c:4c:c7:ac:c4:7b:d7:6a:ed:46:d2:0c:2a:d0:ac:1b:c6:1c:
         0f:a6:c5:ea:ed:90:a2:8d:c9:e3:24:c9:5c:61:f5:7c:08:2f:
         47:16:e2:3e:1c:85:4d:10:c8:f6:9c:1c:85:26:67:f0:c5:44:
         24:1c:e0:93:5e:95:a4:64:e8:8d:77:4e:35:c1:ed:7e:90:9d:
         7d:11:ac:0b:d6:38:5b:0b:97:9a:e1:11:70:c1:01:86:b1:bb:
         1a:2f:af:ce:7f:ec:1b:b4:4b:1b:49:dc:02:52:c8:32:a1:42:
         83:cd:81:2b:d5:76:d4:1c:0c:a1:22:59:40:3c:0a:4c:63:f7:
         d5:8b:d3:aa:26:f4:63:d7:be:79:77:a0:26:ab:93:2a:f5:4f:
         5b:c9:4f:da:2c:39:99:ad:1d:6e:7f:88:23:f1:90:a3:c1:f9:
         a5:c0:0e:7c:67:ca:76:d4:91:5a:c8:8f:9b:b3:59:ab:1f:ab:
         01:6d:2b:f9
-----BEGIN CERTIFICATE-----
MIIEJjCCAw6gAwIBAgIEEAAAwDANBgkqhkiG9w0BAQUFADBEMQswCQYDVQQGEwJE
RTEPMA0GA1UECAwGSGVzc2VuMRQwEgYDVQQKDAtwcml2YWN5aWRlYTEOMAwGA1UE
AwwFQ0EwMDEwHhcNMTUxMTE2MTAyMTI5WhcNMTYxMTE1MTAyMTI5WjBUMQswCQYD
VQQGEwJERTEPMA0GA1UECAwGSGVzc2VuMRQwEgYDVQQKDAtwcml2YWN5aWRlYTEe
MBwGA1UEAwwVcmVxdWVzdGVyLmxvY2FsZG9tYWluMIIBIjANBgkqhkiG9w0BAQEF
AAOCAQ8AMIIBCgKCAQEAzb4UT/rOAT9CIhsdnK/dktJ/22y3PjlDQ2sTA/EF9Ad0
vHZpKAuvGY7X/OPNxljyyn8IbVP8BwJEJMa0NEyMBP4zDkDiILoCc1r39U9jbszG
tt9UHTc5fVE2Jl+93D+oi2uirrad1iHn30G4eigqaEjKqC3t4elGXlpybbSEOIeR
/ZQRCyiExsIvKvsB+TZ6CXXRM4g8c0FbyL+UiXCh8MC5LlBTHrEXZGn0LYHgqQ0O
Mum6VYqF8RtvSXm0f4jDDT5UiJs9HziMBPPuamMr9cbbtIOqxHhBOn1L4cg+ccob
YVnqxsTKMl7J6b8SKebGw2P+oFXaevFgmE0m7fpwLQIDAQABo4IBDjCCAQowCwYD
VR0PBAQDAgWgMAkGA1UdEwQCMAAwEQYJYIZIAYb4QgEBBAQDAgZAMDMGCWCGSAGG
+EIBDQQmFiRPcGVuU1NMIEdlbmVyYXRlZCBTZXJ2ZXIgQ2VydGlmaWNhdGUwHQYD
VR0OBBYEFFM/7V0JB7Nle6tFySRbCXeACpbtMHQGA1UdIwRtMGuAFPSnwMyRRq9k
85HyJ/jIsm+KhzJzoUikRjBEMQswCQYDVQQGEwJERTEPMA0GA1UECAwGSGVzc2Vu
MRQwEgYDVQQKDAtwcml2YWN5aWRlYTEOMAwGA1UEAwwFQ0EwMDGCCQD7yOusg80S
BzATBgNVHSUEDDAKBggrBgEFBQcDATANBgkqhkiG9w0BAQUFAAOCAQEAMs8PkAYl
gVE0MTOD0wq3VjhMPoUAstNR5fZmLPlW32XUqBIhCLKWY2f6ZHhiHaz/wffYGLa1
OKs82+vc8hKKLGc24AWFPbaBHEzHrMR712rtRtIMKtCsG8YcD6bF6u2Qoo3J4yTJ
XGH1fAgvRxbiPhyFTRDI9pwchSZn8MVEJBzgk16VpGTojXdONcHtfpCdfRGsC9Y4
WwuXmuERcMEBhrG7Gi+vzn/sG7RLG0ncAlLIMqFCg82BK9V21BwMoSJZQDwKTGP3
1YvTqib0Y9e+eXegJquTKvVPW8lP2iw5ma0dbn+II/GQo8H5pcAOfGfKdtSRWsiP
m7NZqx+rAW0r+Q==
-----END CERTIFICATE-----
