Certificate:
    Data:
        Version: 3 (0x2)
        Serial Number: 268435655 (0x100000c7)
    Signature Algorithm: sha1WithRSAEncryption
        Issuer: C=DE, ST=Hessen, O=privacyidea, CN=CA001
        Validity
            Not Before: Sep 26 13:48:51 2015 GMT
            Not After : Sep 25 13:48:51 2016 GMT
        Subject: CN=selfservice,CN=user,O=realm1/emailAddress=meine
        Subject Public Key Info:
            Public Key Algorithm: rsaEncryption
                Public-Key: (2048 bit)
                Modulus:
                    00:cf:3c:d4:33:0e:12:c4:e6:da:cd:b6:56:a1:1c:
                    26:bb:26:1c:8a:4a:73:a8:58:8a:b6:1e:b3:8b:99:
                    d2:1d:07:c2:92:89:79:c0:69:d8:c8:df:28:61:98:
                    1e:b3:fe:ae:2b:bd:78:a9:f7:6e:47:dc:a3:a0:16:
                    8c:85:02:c1:4e:92:fd:72:6e:f0:c8:03:29:9b:b8:
                    00:6e:c0:83:95:c8:34:20:36:9c:b3:e5:e4:e6:76:
                    73:a3:1a:ad:40:96:e0:53:54:00:ec:76:79:9a:c6:
                    0d:7e:b6:bd:29:ec:83:f3:cb:89:a4:cb:6c:00:ba:
                    0c:c5:78:0f:ff:69:b8:94:f4:04:70:43:3f:d8:9e:
                    d7:a7:fb:5d:ce:75:8e:da:e7:c4:07:b1:9d:de:6f:
                    88:4b:b6:4d:9a:cf:f9:bc:fa:9f:cd:32:6d:f6:3a:
                    0b:0d:23:42:78:ec:97:42:bf:0e:4d:60:56:e1:d3:
                    02:f2:19:cb:84:57:90:e5:70:a1:a2:83:35:86:e2:
                    da:86:9f:f9:8a:c4:79:b3:52:28:da:cb:bb:34:ca:
                    d3:da:91:4a:cf:8d:76:a2:b2:6b:9b:f9:96:fd:09:
                    2a:da:11:23:4d:f0:cb:d6:b2:b1:0e:12:6c:9a:19:
                    65:98:87:ca:e4:ee:24:ce:44:ac:90:8f:9d:1b:c5:
                    2a:9d
                Exponent: 65537 (0x10001)
        X509v3 extensions:
            X509v3 Key Usage: 
                Digital Signature, Key Encipherment
            X509v3 Basic Constraints: 
                CA:FALSE
            Netscape Cert Type: 
                SSL Server
            Netscape Comment: 
                OpenSSL Generated Server Certificate
            X509v3 Subject Key Identifier: 
                4D:07:90:AD:FF:1D:0D:E7:1A:DD:D6:2E:FA:BA:34:CB:AA:1F:24:C6
            X509v3 Authority Key Identifier: 
                keyid:F4:A7:C0:CC:91:46:AF:64:F3:91:F2:27:F8:C8:B2:6F:8A:87:32:73
                DirName:/C=DE/ST=Hessen/O=privacyidea/CN=CA001
                serial:FB:C8:EB:AC:83:CD:12:07

            X509v3 Extended Key Usage: 
                TLS Web Server Authentication
    Signature Algorithm: sha1WithRSAEncryption
         21:a3:a0:d5:89:fc:34:95:9c:a3:4d:c7:57:53:4a:b2:22:51:
         b7:61:e9:d1:8a:26:41:95:81:f5:fe:c6:63:9f:b2:60:eb:c1:
         e8:be:56:43:31:fa:78:b5:00:b8:16:e3:82:45:18:a5:d0:a2:
         f2:92:df:bc:d4:7b:a3:fe:4d:bc:54:b7:62:1c:76:59:85:4a:
         cb:74:8a:b7:1c:a3:38:8d:34:15:01:d9:ea:93:a9:dc:30:6b:
         af:9e:d1:e3:75:59:53:79:60:43:bc:87:2c:58:6e:ca:1c:20:
         e2:9a:34:1c:41:fa:37:fc:b7:ca:d1:81:5e:9d:5d:a5:49:0a:
         35:42:18:b4:61:44:68:8a:d4:a7:65:eb:cf:46:b8:cd:a6:46:
         f9:3b:5d:4c:0e:10:57:e6:87:fd:6a:58:f1:15:66:f0:0c:ec:
         7a:30:55:60:6e:42:43:f4:53:83:35:e9:e6:dc:a7:9a:04:6b:
         ae:b3:ee:82:5d:35:ad:6f:b8:f0:d8:06:26:09:52:9a:1b:4a:
         4b:07:d8:77:3b:ca:1b:43:f3:e6:19:47:9e:a0:43:aa:e1:07:
         ee:27:d7:4b:f8:e0:02:67:4d:4e:6c:92:33:a4:df:a8:2b:b9:
         66:59:a3:65:31:1a:eb:4e:65:85:52:45:3a:31:30:e7:98:7b:
         b7:c3:15:09
-----BEGIN CERTIFICATE-----
MIIEDzCCAvegAwIBAgIEEAAAxzANBgkqhkiG9w0BAQUFADBEMQswCQYDVQQGEwJE
RTEPMA0GA1UECAwGSGVzc2VuMRQwEgYDVQQKDAtwcml2YWN5aWRlYTEOMAwGA1UE
AwwFQ0EwMDEwHhcNMTUwOTI2MTM0ODUxWhcNMTYwOTI1MTM0ODUxWjA9MSUwIwYD
VQQDExxzZWxmc2VydmljZSxDTj11c2VyLE89cmVhbG0xMRQwEgYJKoZIhvcNAQkB
FgVtZWluZTCCASIwDQYJKoZIhvcNAQEBBQADggEPADCCAQoCggEBAM881DMOEsTm
2s22VqEcJrsmHIpKc6hYirYes4uZ0h0HwpKJecBp2MjfKGGYHrP+riu9eKn3bkfc
o6AWjIUCwU6S/XJu8MgDKZu4AG7Ag5XINCA2nLPl5OZ2c6MarUCW4FNUAOx2eZrG
DX62vSnsg/PLiaTLbAC6DMV4D/9puJT0BHBDP9ie16f7Xc51jtrnxAexnd5viEu2
TZrP+bz6n80ybfY6Cw0jQnjsl0K/Dk1gVuHTAvIZy4RXkOVwoaKDNYbi2oaf+YrE
ebNSKNrLuzTK09qRSs+NdqKya5v5lv0JKtoRI03wy9aysQ4SbJoZZZiHyuTuJM5E
rJCPnRvFKp0CAwEAAaOCAQ4wggEKMAsGA1UdDwQEAwIFoDAJBgNVHRMEAjAAMBEG
CWCGSAGG+EIBAQQEAwIGQDAzBglghkgBhvhCAQ0EJhYkT3BlblNTTCBHZW5lcmF0
ZWQgU2VydmVyIENlcnRpZmljYXRlMB0GA1UdDgQWBBRNB5Ct/x0N5xrd1i76ujTL
qh8kxjB0BgNVHSMEbTBrgBT0p8DMkUavZPOR8if4yLJviocyc6FIpEYwRDELMAkG
A1UEBhMCREUxDzANBgNVBAgMBkhlc3NlbjEUMBIGA1UECgwLcHJpdmFjeWlkZWEx
DjAMBgNVBAMMBUNBMDAxggkA+8jrrIPNEgcwEwYDVR0lBAwwCgYIKwYBBQUHAwEw
DQYJKoZIhvcNAQEFBQADggEBACGjoNWJ/DSVnKNNx1dTSrIiUbdh6dGKJkGVgfX+
xmOfsmDrwei+VkMx+ni1ALgW44JFGKXQovKS37zUe6P+TbxUt2IcdlmFSst0ircc
oziNNBUB2eqTqdwwa6+e0eN1WVN5YEO8hyxYbsocIOKaNBxB+jf8t8rRgV6dXaVJ
CjVCGLRhRGiK1Kdl689GuM2mRvk7XUwOEFfmh/1qWPEVZvAM7HowVWBuQkP0U4M1
6ebcp5oEa66z7oJdNa1vuPDYBiYJUpobSksH2Hc7yhtD8+YZR56gQ6rhB+4n10v4
4AJnTU5skjOk36gruWZZo2UxGutOZYVSRToxMOeYe7fDFQk=
-----END CERTIFICATE-----
