Certificate:
    Data:
        Version: 3 (0x2)
        Serial Number: 268435644 (0x100000bc)
    Signature Algorithm: sha1WithRSAEncryption
        Issuer: C=DE, ST=Hessen, O=privacyidea, CN=CA001
        Validity
            Not Before: Oct 27 12:35:43 2015 GMT
            Not After : Oct 26 12:35:43 2016 GMT
        Subject: C=DE, ST=Hessen, O=privacyidea, CN=requester.localdomain
        Subject Public Key Info:
            Public Key Algorithm: rsaEncryption
                Public-Key: (2048 bit)
                Modulus:
                    00:cd:be:14:4f:fa:ce:01:3f:42:22:1b:1d:9c:af:
                    dd:92:d2:7f:db:6c:b7:3e:39:43:43:6b:13:03:f1:
                    05:f4:07:74:bc:76:69:28:0b:af:19:8e:d7:fc:e3:
                    cd:c6:58:f2:ca:7f:08:6d:53:fc:07:02:44:24:c6:
                    b4:34:4c:8c:04:fe:33:0e:40:e2:20:ba:02:73:5a:
                    f7:f5:4f:63:6e:cc:c6:b6:df:54:1d:37:39:7d:51:
                    36:26:5f:bd:dc:3f:a8:8b:6b:a2:ae:b6:9d:d6:21:
                    e7:df:41:b8:7a:28:2a:68:48:ca:a8:2d:ed:e1:e9:
                    46:5e:5a:72:6d:b4:84:38:87:91:fd:94:11:0b:28:
                    84:c6:c2:2f:2a:fb:01:f9:36:7a:09:75:d1:33:88:
                    3c:73:41:5b:c8:bf:94:89:70:a1:f0:c0:b9:2e:50:
                    53:1e:b1:17:64:69:f4:2d:81:e0:a9:0d:0e:32:e9:
                    ba:55:8a:85:f1:1b:6f:49:79:b4:7f:88:c3:0d:3e:
                    54:88:9b:3d:1f:38:8c:04:f3:ee:6a:63:2b:f5:c6:
                    db:b4:83:aa:c4:78:41:3a:7d:4b:e1:c8:3e:71:ca:
                    1b:61:59:ea:c6:c4:ca:32:5e:c9:e9:bf:12:29:e6:
                    c6:c3:63:fe:a0:55:da:7a:f1:60:98:4d:26:ed:fa:
                    70:2d
                Exponent: 65537 (0x10001)
        X509v3 extensions:
            X509v3 Key Usage: 
                Digital Signature, Key Encipherment
            X509v3 Basic Constraints: 
                CA:FALSE
            Netscape Cert Type: 
                SSL Server
            Netscape Comment: 
                OpenSSL Generated Server Certificate
            X509v3 Subject Key Identifier: 
                53:3F:ED:5D:09:07:B3:65:7B:AB:45:C9:24:5B:09:77:80:0A:96:ED
            X509v3 Authority Key Identifier: 
                keyid:F4:A7:C0:CC:91:46:AF:64:F3:91:F2:27:F8:C8:B2:6F:8A:87:32:73
                DirName:/C=DE/ST=Hessen/O=privacyidea/CN=CA001
                serial:FB:C8:EB:AC:83:CD:12:07

            X509v3 Extended Key Usage: 
                TLS Web Server Authentication
    Signature Algorithm: sha1WithRSAEncryption
         9b:f2:9c:18:a1:0e:92:0f:b6:93:31:ad:44:9e:a2:e9:02:4a:
         76:a8:fe:89:ce:89:c0:c0:1a:3c:f8:3d:b6:c7:b5:49:81:e4:
         99:d2:c7:25:a5:dd:71:b8:ae:b7:39:e1:0d:35:40:95:86:fe:
         c4:0b:e1:bb:d1:7c:dd:41:c7:a2:9b:ca:de:93:0d:57:c2:f9:
         66:59:0d:88:df:52:7b:ae:7b:12:d7:31:dd:70:98:c5:ad:12:
         58:3e:16:cd:30:ca:09:d5:51:c2:7c:d5:97:29:0a:c1:ae:ab:
         52:a5:7a:56:3f:14:21:28:ea:0d:a5:d8:c5:d8:0e:87:80:06:
         33:d1:43:86:f2:3d:ea:7e:52:fa:63:87:44:dd:bc:6c:a3:10:
         e2:ed:0a:00:c3:79:31:1c:26:73:70:3e:63:55:74:e2:e7:20:
         73:f9:39:f5:c4:1e:00:2f:4d:15:d2:cb:84:2d:3c:3f:c2:a3:
         94:3a:4f:8e:46:cf:f7:7f:7d:59:d6:7c:a0:b3:df:ee:18:b4:
         52:b4:11:42:0e:96:7f:1e:76:10:39:a2:cb:2f:0c:12:80:b4:
         ab:8e:73:fd:e1:cd:2a:36:7f:11:23:e8:e5:db:b4:92:40:8a:
         ee:c7:41:38:81:2c:9d:92:ad:ea:ab:16:90:cf:d1:51:64:1d:
         04:b2:c3:1b
-----BEGIN CERTIFICATE-----
MIIEJjCCAw6gAwIBAgIEEAAAvDANBgkqhkiG9w0BAQUFADBEMQswCQYDVQQGEwJE
RTEPMA0GA1UECAwGSGVzc2VuMRQwEgYDVQQKDAtwcml2YWN5aWRlYTEOMAwGA1UE
AwwFQ0EwMDEwHhcNMTUxMDI3MTIzNTQzWhcNMTYxMDI2MTIzNTQzWjBUMQswCQYD
VQQGEwJERTEPMA0GA1UECAwGSGVzc2VuMRQwEgYDVQQKDAtwcml2YWN5aWRlYTEe
MBwGA1UEAwwVcmVxdWVzdGVyLmxvY2FsZG9tYWluMIIBIjANBgkqhkiG9w0BAQEF
AAOCAQ8AMIIBCgKCAQEAzb4UT/rOAT9CIhsdnK/dktJ/22y3PjlDQ2sTA/EF9Ad0
vHZpKAuvGY7X/OPNxljyyn8IbVP8BwJEJMa0NEyMBP4zDkDiILoCc1r39U9jbszG
tt9UHTc5fVE2Jl+93D+oi2uirrad1iHn30G4eigqaEjKqC3t4elGXlpybbSEOIeR
/ZQRCyiExsIvKvsB+TZ6CXXRM4g8c0FbyL+UiXCh8MC5LlBTHrEXZGn0LYHgqQ0O
Mum6VYqF8RtvSXm0f4jDDT5UiJs9HziMBPPuamMr9cbbtIOqxHhBOn1L4cg+ccob
YVnqxsTKMl7J6b8SKebGw2P+oFXaevFgmE0m7fpwLQIDAQABo4IBDjCCAQowCwYD
VR0PBAQDAgWgMAkGA1UdEwQCMAAwEQYJYIZIAYb4QgEBBAQDAgZAMDMGCWCGSAGG
+EIBDQQmFiRPcGVuU1NMIEdlbmVyYXRlZCBTZXJ2ZXIgQ2VydGlmaWNhdGUwHQYD
VR0OBBYEFFM/7V0JB7Nle6tFySRbCXeACpbtMHQGA1UdIwRtMGuAFPSnwMyRRq9k
85HyJ/jIsm+KhzJzoUikRjBEMQswCQYDVQQGEwJERTEPMA0GA1UECAwGSGVzc2Vu
MRQwEgYDVQQKDAtwcml2YWN5aWRlYTEOMAwGA1UEAwwFQ0EwMDGCCQD7yOusg80S
BzATBgNVHSUEDDAKBggrBgEFBQcDATANBgkqhkiG9w0BAQUFAAOCAQEAm/KcGKEO
kg+2kzGtRJ6i6QJKdqj+ic6JwMAaPPg9tse1SYHkmdLHJaXdcbiutznhDTVAlYb+
xAvhu9F83UHHopvK3pMNV8L5ZlkNiN9Se657Etcx3XCYxa0SWD4WzTDKCdVRwnzV
lykKwa6rUqV6Vj8UISjqDaXYxdgOh4AGM9FDhvI96n5S+mOHRN28bKMQ4u0KAMN5
MRwmc3A+Y1V04ucgc/k59cQeAC9NFdLLhC08P8KjlDpPjkbP9399WdZ8oLPf7hi0
UrQRQg6Wfx52EDmiyy8MEoC0q45z/eHNKjZ/ESPo5du0kkCK7sdBOIEsnZKt6qsW
kM/RUWQdBLLDGw==
-----END CERTIFICATE-----
