Certificate:
    Data:
        Version: 3 (0x2)
        Serial Number: 268435654 (0x100000c6)
    Signature Algorithm: sha1WithRSAEncryption
        Issuer: C=DE, ST=Hessen, O=privacyidea, CN=CA001
        Validity
            Not Before: Oct 26 18:36:47 2015 GMT
            Not After : Oct 25 18:36:47 2016 GMT
        Subject: CN=selfservice,CN=user,O=realm1/emailAddress=meine
        Subject Public Key Info:
            Public Key Algorithm: rsaEncryption
                Public-Key: (2048 bit)
                Modulus:
                    00:cf:3c:d4:33:0e:12:c4:e6:da:cd:b6:56:a1:1c:
                    26:bb:26:1c:8a:4a:73:a8:58:8a:b6:1e:b3:8b:99:
                    d2:1d:07:c2:92:89:79:c0:69:d8:c8:df:28:61:98:
                    1e:b3:fe:ae:2b:bd:78:a9:f7:6e:47:dc:a3:a0:16:
                    8c:85:02:c1:4e:92:fd:72:6e:f0:c8:03:29:9b:b8:
                    00:6e:c0:83:95:c8:34:20:36:9c:b3:e5:e4:e6:76:
                    73:a3:1a:ad:40:96:e0:53:54:00:ec:76:79:9a:c6:
                    0d:7e:b6:bd:29:ec:83:f3:cb:89:a4:cb:6c:00:ba:
                    0c:c5:78:0f:ff:69:b8:94:f4:04:70:43:3f:d8:9e:
                    d7:a7:fb:5d:ce:75:8e:da:e7:c4:07:b1:9d:de:6f:
                    88:4b:b6:4d:9a:cf:f9:bc:fa:9f:cd:32:6d:f6:3a:
                    0b:0d:23:42:78:ec:97:42:bf:0e:4d:60:56:e1:d3:
                    02:f2:19:cb:84:57:90:e5:70:a1:a2:83:35:86:e2:
                    da:86:9f:f9:8a:c4:79:b3:52:28:da:cb:bb:34:ca:
                    d3:da:91:4a:cf:8d:76:a2:b2:6b:9b:f9:96:fd:09:
                    2a:da:11:23:4d:f0:cb:d6:b2:b1:0e:12:6c:9a:19:
                    65:98:87:ca:e4:ee:24:ce:44:ac:90:8f:9d:1b:c5:
                    2a:9d
                Exponent: 65537 (0x10001)
        X509v3 extensions:
            X509v3 Key Usage: 
                Digital Signature, Key Encipherment
            X509v3 Basic Constraints: 
                CA:FALSE
            Netscape Cert Type: 
                SSL Server
            Netscape Comment: 
                OpenSSL Generated Server Certificate
            X509v3 Subject Key Identifier: 
                4D:07:90:AD:FF:1D:0D:E7:1A:DD:D6:2E:FA:BA:34:CB:AA:1F:24:C6
            X509v3 Authority Key Identifier: 
                keyid:F4:A7:C0:CC:91:46:AF:64:F3:91:F2:27:F8:C8:B2:6F:8A:87:32:73
                DirName:/C=DE/ST=Hessen/O=privacyidea/CN=CA001
                serial:FB:C8:EB:AC:83:CD:12:07

            X509v3 Extended Key Usage: 
                TLS Web Server Authentication
    Signature Algorithm: sha1WithRSAEncryption
         10:55:fc:c5:c3:a3:f2:42:6e:49:64:2b:99:fe:a0:00:5b:61:
         28:8e:c5:62:fc:90:58:50:36:ca:3a:c8:77:24:c9:a8:fc:e6:
         ed:d7:05:9c:7a:40:60:a8:c2:c1:77:25:a6:da:35:3c:b7:e7:
         5a:f7:70:a7:be:0a:fa:6e:83:e7:c8:97:59:7b:49:c6:07:92:
         aa:12:2c:b4:9a:9d:65:77:e0:4a:34:bc:24:ad:c3:b8:04:33:
         92:00:b6:ca:2b:27:9f:5a:5c:92:aa:bd:46:f8:fe:f5:8f:0c:
         bf:65:3c:74:36:5d:4d:7e:62:48:38:8b:2b:7b:08:08:90:4d:
         aa:d5:c6:40:b4:da:23:b4:e5:fd:d0:02:db:64:5b:a4:d6:89:
         da:de:45:d1:20:6f:af:86:d9:0c:66:f4:a0:22:54:d1:4f:bc:
         e4:1e:a1:cd:37:18:6e:ad:6d:39:d9:75:3b:f0:ee:d4:74:15:
         fe:cd:b2:e9:f8:a8:61:bb:35:47:0c:01:ce:17:7d:22:9d:2b:
         5a:7f:b8:2f:98:35:0a:47:b5:94:b5:8c:e0:23:04:dd:7a:4b:
         77:6b:25:87:4c:74:5a:30:94:89:c8:6d:36:0b:87:c8:c9:49:
         a8:30:96:bc:1c:ba:d1:a9:e8:2e:43:ce:60:21:ed:c8:a4:51:
         a5:3a:13:2a
-----BEGIN CERTIFICATE-----
MIIEDzCCAvegAwIBAgIEEAAAxjANBgkqhkiG9w0BAQUFADBEMQswCQYDVQQGEwJE
RTEPMA0GA1UECAwGSGVzc2VuMRQwEgYDVQQKDAtwcml2YWN5aWRlYTEOMAwGA1UE
AwwFQ0EwMDEwHhcNMTUxMDI2MTgzNjQ3WhcNMTYxMDI1MTgzNjQ3WjA9MSUwIwYD
VQQDExxzZWxmc2VydmljZSxDTj11c2VyLE89cmVhbG0xMRQwEgYJKoZIhvcNAQkB
FgVtZWluZTCCASIwDQYJKoZIhvcNAQEBBQADggEPADCCAQoCggEBAM881DMOEsTm
2s22VqEcJrsmHIpKc6hYirYes4uZ0h0HwpKJecBp2MjfKGGYHrP+riu9eKn3bkfc
o6AWjIUCwU6S/XJu8MgDKZu4AG7Ag5XINCA2nLPl5OZ2c6MarUCW4FNUAOx2eZrG
DX62vSnsg/PLiaTLbAC6DMV4D/9puJT0BHBDP9ie16f7Xc51jtrnxAexnd5viEu2
TZrP+bz6n80ybfY6Cw0jQnjsl0K/Dk1gVuHTAvIZy4RXkOVwoaKDNYbi2oaf+YrE
ebNSKNrLuzTK09qRSs+NdqKya5v5lv0JKtoRI03wy9aysQ4SbJoZZZiHyuTuJM5E
rJCPnRvFKp0CAwEAAaOCAQ4wggEKMAsGA1UdDwQEAwIFoDAJBgNVHRMEAjAAMBEG
CWCGSAGG+EIBAQQEAwIGQDAzBglghkgBhvhCAQ0EJhYkT3BlblNTTCBHZW5lcmF0
ZWQgU2VydmVyIENlcnRpZmljYXRlMB0GA1UdDgQWBBRNB5Ct/x0N5xrd1i76ujTL
qh8kxjB0BgNVHSMEbTBrgBT0p8DMkUavZPOR8if4yLJviocyc6FIpEYwRDELMAkG
A1UEBhMCREUxDzANBgNVBAgMBkhlc3NlbjEUMBIGA1UECgwLcHJpdmFjeWlkZWEx
DjAMBgNVBAMMBUNBMDAxggkA+8jrrIPNEgcwEwYDVR0lBAwwCgYIKwYBBQUHAwEw
DQYJKoZIhvcNAQEFBQADggEBABBV/MXDo/JCbklkK5n+oABbYSiOxWL8kFhQNso6
yHckyaj85u3XBZx6QGCowsF3JabaNTy351r3cKe+Cvpug+fIl1l7ScYHkqoSLLSa
nWV34Eo0vCStw7gEM5IAtsorJ59aXJKqvUb4/vWPDL9lPHQ2XU1+Ykg4iyt7CAiQ
TarVxkC02iO05f3QAttkW6TWidreRdEgb6+G2Qxm9KAiVNFPvOQeoc03GG6tbTnZ
dTvw7tR0Ff7Nsun4qGG7NUcMAc4XfSKdK1p/uC+YNQpHtZS1jOAjBN16S3drJYdM
dFowlInIbTYLh8jJSagwlrwcutGp6C5DzmAh7cikUaU6Eyo=
-----END CERTIFICATE-----
