Certificate:
    Data:
        Version: 3 (0x2)
        Serial Number: 268435647 (0x100000bf)
    Signature Algorithm: sha1WithRSAEncryption
        Issuer: C=DE, ST=Hessen, O=privacyidea, CN=CA001
        Validity
            Not Before: Oct 27 12:37:09 2015 GMT
            Not After : Oct 26 12:37:09 2016 GMT
        Subject: CN=Steve Test/emailAddress=steve@openssl.org
        Subject Public Key Info:
            Public Key Algorithm: rsaEncryption
                Public-Key: (2048 bit)
                Modulus:
                    00:d2:81:89:20:51:48:0f:73:f4:11:32:24:d5:1f:
                    1c:fd:5c:f5:b6:e6:c5:f0:52:81:dc:d2:af:66:4a:
                    7c:93:31:61:5c:af:d1:6d:06:70:03:60:7c:72:0c:
                    88:dd:49:cd:9e:02:6c:d2:5a:d7:53:0f:f3:da:be:
                    69:64:b5:0f:0c:00:e3:b3:50:47:a3:b3:9b:ba:13:
                    50:d6:58:5a:4b:ab:39:e0:11:ca:0a:27:67:03:78:
                    22:66:6d:92:1e:1b:5c:49:ae:e6:6b:d1:8e:3b:9d:
                    06:d3:c6:ac:4d:53:43:10:ab:e8:96:c1:87:82:97:
                    99:8f:20:d3:99:12:37:31:84:e1:8a:ff:29:03:5f:
                    22:90:3e:7f:9b:e0:20:c1:ad:dc:ae:4c:39:1a:31:
                    96:17:02:8c:b2:d9:b4:0d:20:12:9b:7d:86:54:fd:
                    33:fd:c1:2a:62:46:f8:60:96:cf:6e:01:6f:22:df:
                    13:47:e7:97:ec:05:72:23:a3:62:f8:fa:ef:ac:9c:
                    72:f0:37:cb:2f:37:cf:90:a8:27:51:86:c6:d7:78:
                    08:8f:7e:25:a2:15:70:a2:fb:1c:b6:15:5e:a0:97:
                    8b:81:4c:09:28:8a:27:3b:94:bc:71:db:5b:71:37:
                    9a:2b:16:e0:6f:b5:c9:f5:4b:4f:20:ba:65:cf:af:
                    ad:ad
                Exponent: 65537 (0x10001)
        X509v3 extensions:
            X509v3 Key Usage: 
                Digital Signature, Key Encipherment
            X509v3 Basic Constraints: 
                CA:FALSE
            Netscape Cert Type: 
                SSL Server
            Netscape Comment: 
                OpenSSL Generated Server Certificate
            X509v3 Subject Key Identifier: 
                E5:25:6D:3E:AF:0D:DD:3F:4C:F2:45:19:39:D5:14:DB:7E:9C:C0:AD
            X509v3 Authority Key Identifier: 
                keyid:F4:A7:C0:CC:91:46:AF:64:F3:91:F2:27:F8:C8:B2:6F:8A:87:32:73
                DirName:/C=DE/ST=Hessen/O=privacyidea/CN=CA001
                serial:FB:C8:EB:AC:83:CD:12:07

            X509v3 Extended Key Usage: 
                TLS Web Server Authentication
    Signature Algorithm: sha1WithRSAEncryption
         9c:73:93:52:0a:f8:5f:ce:34:5d:ca:73:87:5a:7b:dd:bc:52:
         97:4a:e6:36:4d:16:65:68:4b:3b:99:8b:d9:de:48:d8:96:cf:
         c2:62:07:ef:52:8a:13:4f:95:f0:20:77:0f:11:ba:3d:ce:7b:
         5c:eb:96:9e:ce:72:53:d2:7d:19:f3:60:02:49:9d:ac:93:e6:
         30:f8:6c:40:f0:55:cf:33:06:5b:f0:dd:09:f7:05:da:cf:4a:
         11:80:4c:b4:13:da:71:e4:8f:44:21:95:d1:d6:1a:3e:df:cd:
         70:d7:02:21:66:dd:b4:d6:2c:dd:8e:17:29:51:2c:b4:5d:2d:
         62:d5:9f:3b:ef:06:2c:f7:4b:ba:c9:9b:70:4f:ca:64:f8:d0:
         0f:63:96:a6:4e:9f:a6:d7:72:aa:7e:41:09:a9:e5:b7:ac:05:
         be:4f:d1:b6:33:ef:d7:da:3b:cf:1f:d6:5c:51:90:a9:dc:19:
         c2:ae:d8:d7:a5:92:2e:88:f3:88:80:78:fc:13:d3:b4:4b:43:
         13:f7:8d:85:6f:af:f9:34:2e:0d:e9:68:1e:d3:e3:9a:5c:d7:
         05:03:76:4b:28:f1:dd:d5:fc:1e:81:78:c3:5d:1f:e7:b7:9b:
         11:f4:d8:a8:4c:9e:dc:78:44:ad:6f:62:30:a1:97:f1:4e:03:
         41:08:34:6c
-----BEGIN CERTIFICATE-----
MIIECTCCAvGgAwIBAgIEEAAAvzANBgkqhkiG9w0BAQUFADBEMQswCQYDVQQGEwJE
RTEPMA0GA1UECAwGSGVzc2VuMRQwEgYDVQQKDAtwcml2YWN5aWRlYTEOMAwGA1UE
AwwFQ0EwMDEwHhcNMTUxMDI3MTIzNzA5WhcNMTYxMDI2MTIzNzA5WjA3MRMwEQYD
VQQDEwpTdGV2ZSBUZXN0MSAwHgYJKoZIhvcNAQkBFhFzdGV2ZUBvcGVuc3NsLm9y
ZzCCASIwDQYJKoZIhvcNAQEBBQADggEPADCCAQoCggEBANKBiSBRSA9z9BEyJNUf
HP1c9bbmxfBSgdzSr2ZKfJMxYVyv0W0GcANgfHIMiN1JzZ4CbNJa11MP89q+aWS1
DwwA47NQR6Ozm7oTUNZYWkurOeARygonZwN4ImZtkh4bXEmu5mvRjjudBtPGrE1T
QxCr6JbBh4KXmY8g05kSNzGE4Yr/KQNfIpA+f5vgIMGt3K5MORoxlhcCjLLZtA0g
Ept9hlT9M/3BKmJG+GCWz24BbyLfE0fnl+wFciOjYvj676yccvA3yy83z5CoJ1GG
xtd4CI9+JaIVcKL7HLYVXqCXi4FMCSiKJzuUvHHbW3E3misW4G+1yfVLTyC6Zc+v
ra0CAwEAAaOCAQ4wggEKMAsGA1UdDwQEAwIFoDAJBgNVHRMEAjAAMBEGCWCGSAGG
+EIBAQQEAwIGQDAzBglghkgBhvhCAQ0EJhYkT3BlblNTTCBHZW5lcmF0ZWQgU2Vy
dmVyIENlcnRpZmljYXRlMB0GA1UdDgQWBBTlJW0+rw3dP0zyRRk51RTbfpzArTB0
BgNVHSMEbTBrgBT0p8DMkUavZPOR8if4yLJviocyc6FIpEYwRDELMAkGA1UEBhMC
REUxDzANBgNVBAgMBkhlc3NlbjEUMBIGA1UECgwLcHJpdmFjeWlkZWExDjAMBgNV
BAMMBUNBMDAxggkA+8jrrIPNEgcwEwYDVR0lBAwwCgYIKwYBBQUHAwEwDQYJKoZI
hvcNAQEFBQADggEBAJxzk1IK+F/ONF3Kc4dae928UpdK5jZNFmVoSzuZi9neSNiW
z8JiB+9SihNPlfAgdw8Ruj3Oe1zrlp7OclPSfRnzYAJJnayT5jD4bEDwVc8zBlvw
3Qn3BdrPShGATLQT2nHkj0QhldHWGj7fzXDXAiFm3bTWLN2OFylRLLRdLWLVnzvv
Biz3S7rJm3BPymT40A9jlqZOn6bXcqp+QQmp5besBb5P0bYz79faO88f1lxRkKnc
GcKu2Nelki6I84iAePwT07RLQxP3jYVvr/k0Lg3paB7T45pc1wUDdkso8d3V/B6B
eMNdH+e3mxH02KhMntx4RK1vYjChl/FOA0EINGw=
-----END CERTIFICATE-----
