Certificate:
    Data:
        Version: 3 (0x2)
        Serial Number: 268435651 (0x100000c3)
    Signature Algorithm: sha1WithRSAEncryption
        Issuer: C=DE, ST=Hessen, O=privacyidea, CN=CA001
        Validity
            Not Before: Oct 26 18:27:33 2015 GMT
            Not After : Oct 25 18:27:33 2016 GMT
        Subject: C=DE, ST=Hessen, O=privacyidea, CN=usercert
        Subject Public Key Info:
            Public Key Algorithm: rsaEncryption
                Public-Key: (2048 bit)
                Modulus:
                    00:dc:2f:d1:5f:29:97:d4:7c:c3:53:c8:30:bd:4b:
                    67:70:2c:24:6b:b8:5e:eb:21:7a:48:12:56:7c:81:
                    5c:48:75:b6:68:eb:f6:f2:98:4e:50:51:d1:7f:6c:
                    73:f3:0a:a7:ae:be:48:5e:e5:d6:e1:d9:2a:7c:32:
                    6e:4e:fd:08:f6:5a:54:49:23:73:c3:b9:07:18:d1:
                    ef:b3:ac:f8:8a:dc:94:96:a4:90:3a:8e:74:df:e6:
                    0d:37:1b:bd:5b:b7:25:1a:56:39:da:6f:91:aa:5e:
                    1c:74:f3:f9:7c:14:01:83:12:65:76:c7:bb:fe:36:
                    5b:95:e9:72:65:83:ed:3e:98:30:71:fa:87:dd:a3:
                    36:5a:30:03:2e:26:e0:61:d1:bf:02:3f:b6:06:1f:
                    4a:89:28:1c:5c:a2:ff:4e:be:94:e6:8c:e0:da:82:
                    f1:9d:29:32:48:30:73:b4:04:f6:42:1e:be:f7:e2:
                    32:32:27:3c:9d:89:2f:70:3e:85:9a:6f:5c:c5:09:
                    c0:8c:32:2f:72:22:c9:d2:95:1f:b6:ac:72:60:72:
                    b7:82:4d:6b:ce:5b:e3:00:d0:d2:2f:58:c6:e0:10:
                    e5:51:ca:4d:3b:2e:e6:7e:ab:84:d6:56:f1:93:35:
                    a0:93:64:26:81:75:2f:91:b5:16:06:38:0b:db:cc:
                    2d:07
                Exponent: 65537 (0x10001)
        X509v3 extensions:
            X509v3 Key Usage: 
                Digital Signature, Key Encipherment
            X509v3 Basic Constraints: 
                CA:FALSE
            Netscape Cert Type: 
                SSL Server
            Netscape Comment: 
                OpenSSL Generated Server Certificate
            X509v3 Subject Key Identifier: 
                FC:14:D1:F0:4B:8D:00:90:F2:F5:B8:71:9E:4E:97:C3:92:54:AD:0B
            X509v3 Authority Key Identifier: 
                keyid:F4:A7:C0:CC:91:46:AF:64:F3:91:F2:27:F8:C8:B2:6F:8A:87:32:73
                DirName:/C=DE/ST=Hessen/O=privacyidea/CN=CA001
                serial:FB:C8:EB:AC:83:CD:12:07

            X509v3 Extended Key Usage: 
                TLS Web Server Authentication
    Signature Algorithm: sha1WithRSAEncryption
         84:18:11:f1:f9:7d:8a:fd:ce:4c:b7:c3:23:d2:ea:58:4f:b0:
         bd:f1:d3:29:1b:c9:c2:21:4c:3d:15:e7:ed:e1:28:b7:66:27:
         5e:a5:d3:8e:05:03:ca:51:f2:19:5c:d5:91:05:8a:d0:73:5d:
         6d:94:56:ba:13:15:28:ac:14:e3:b6:de:93:45:35:6d:d8:df:
         70:13:c6:5e:9b:e0:0e:d2:11:6f:38:a0:7d:b0:12:b2:a7:dc:
         33:f4:74:f2:4a:2c:e7:2b:3b:05:91:55:4e:70:44:eb:7d:5b:
         4e:e3:1c:73:82:d1:4e:8e:da:64:59:34:a7:b1:86:59:b4:ac:
         db:ca:f8:d2:af:b2:8b:03:68:69:fd:93:59:e6:5f:f9:28:0a:
         ff:cf:6c:ca:d1:95:0c:a3:80:e1:00:15:f2:2a:69:0d:3d:cd:
         7a:eb:29:47:2c:95:1f:2f:9f:0d:90:f1:a5:4f:94:e3:86:6e:
         c0:47:9f:6e:d1:2e:46:7c:5f:1e:08:0b:9f:ac:fa:e3:dd:85:
         33:7e:2f:c5:41:16:6a:26:81:38:8b:d2:91:3e:c8:1a:19:f9:
         5e:9f:c2:17:bd:8d:0b:f6:f4:06:4b:e1:30:fa:df:a7:15:b9:
         2e:9e:3b:d6:92:0b:10:fa:86:91:d0:e1:1d:75:06:cd:81:1f:
         25:27:28:44
-----BEGIN CERTIFICATE-----
MIIEGTCCAwGgAwIBAgIEEAAAwzANBgkqhkiG9w0BAQUFADBEMQswCQYDVQQGEwJE
RTEPMA0GA1UECAwGSGVzc2VuMRQwEgYDVQQKDAtwcml2YWN5aWRlYTEOMAwGA1UE
AwwFQ0EwMDEwHhcNMTUxMDI2MTgyNzMzWhcNMTYxMDI1MTgyNzMzWjBHMQswCQYD
VQQGEwJERTEPMA0GA1UECAwGSGVzc2VuMRQwEgYDVQQKDAtwcml2YWN5aWRlYTER
MA8GA1UEAwwIdXNlcmNlcnQwggEiMA0GCSqGSIb3DQEBAQUAA4IBDwAwggEKAoIB
AQDcL9FfKZfUfMNTyDC9S2dwLCRruF7rIXpIElZ8gVxIdbZo6/bymE5QUdF/bHPz
Cqeuvkhe5dbh2Sp8Mm5O/Qj2WlRJI3PDuQcY0e+zrPiK3JSWpJA6jnTf5g03G71b
tyUaVjnab5GqXhx08/l8FAGDEmV2x7v+NluV6XJlg+0+mDBx+ofdozZaMAMuJuBh
0b8CP7YGH0qJKBxcov9OvpTmjODagvGdKTJIMHO0BPZCHr734jIyJzydiS9wPoWa
b1zFCcCMMi9yIsnSlR+2rHJgcreCTWvOW+MA0NIvWMbgEOVRyk07LuZ+q4TWVvGT
NaCTZCaBdS+RtRYGOAvbzC0HAgMBAAGjggEOMIIBCjALBgNVHQ8EBAMCBaAwCQYD
VR0TBAIwADARBglghkgBhvhCAQEEBAMCBkAwMwYJYIZIAYb4QgENBCYWJE9wZW5T
U0wgR2VuZXJhdGVkIFNlcnZlciBDZXJ0aWZpY2F0ZTAdBgNVHQ4EFgQU/BTR8EuN
AJDy9bhxnk6Xw5JUrQswdAYDVR0jBG0wa4AU9KfAzJFGr2TzkfIn+Miyb4qHMnOh
SKRGMEQxCzAJBgNVBAYTAkRFMQ8wDQYDVQQIDAZIZXNzZW4xFDASBgNVBAoMC3By
aXZhY3lpZGVhMQ4wDAYDVQQDDAVDQTAwMYIJAPvI66yDzRIHMBMGA1UdJQQMMAoG
CCsGAQUFBwMBMA0GCSqGSIb3DQEBBQUAA4IBAQCEGBHx+X2K/c5Mt8Mj0upYT7C9
8dMpG8nCIUw9Feft4Si3ZidepdOOBQPKUfIZXNWRBYrQc11tlFa6ExUorBTjtt6T
RTVt2N9wE8Zem+AO0hFvOKB9sBKyp9wz9HTySiznKzsFkVVOcETrfVtO4xxzgtFO
jtpkWTSnsYZZtKzbyvjSr7KLA2hp/ZNZ5l/5KAr/z2zK0ZUMo4DhABXyKmkNPc16
6ylHLJUfL58NkPGlT5Tjhm7AR59u0S5GfF8eCAufrPrj3YUzfi/FQRZqJoE4i9KR
PsgaGflen8IXvY0L9vQGS+Ew+t+nFbkunjvWkgsQ+oaR0OEddQbNgR8lJyhE
-----END CERTIFICATE-----
