Certificate:
    Data:
        Version: 3 (0x2)
        Serial Number: 268435638 (0x100000b6)
    Signature Algorithm: sha1WithRSAEncryption
        Issuer: C=DE, ST=Hessen, O=privacyidea, CN=CA001
        Validity
            Not Before: Oct 27 12:21:53 2015 GMT
            Not After : Oct 26 12:21:53 2016 GMT
        Subject: C=DE, ST=Hessen, O=privacyidea, CN=requester.localdomain
        Subject Public Key Info:
            Public Key Algorithm: rsaEncryption
                Public-Key: (2048 bit)
                Modulus:
                    00:cd:be:14:4f:fa:ce:01:3f:42:22:1b:1d:9c:af:
                    dd:92:d2:7f:db:6c:b7:3e:39:43:43:6b:13:03:f1:
                    05:f4:07:74:bc:76:69:28:0b:af:19:8e:d7:fc:e3:
                    cd:c6:58:f2:ca:7f:08:6d:53:fc:07:02:44:24:c6:
                    b4:34:4c:8c:04:fe:33:0e:40:e2:20:ba:02:73:5a:
                    f7:f5:4f:63:6e:cc:c6:b6:df:54:1d:37:39:7d:51:
                    36:26:5f:bd:dc:3f:a8:8b:6b:a2:ae:b6:9d:d6:21:
                    e7:df:41:b8:7a:28:2a:68:48:ca:a8:2d:ed:e1:e9:
                    46:5e:5a:72:6d:b4:84:38:87:91:fd:94:11:0b:28:
                    84:c6:c2:2f:2a:fb:01:f9:36:7a:09:75:d1:33:88:
                    3c:73:41:5b:c8:bf:94:89:70:a1:f0:c0:b9:2e:50:
                    53:1e:b1:17:64:69:f4:2d:81:e0:a9:0d:0e:32:e9:
                    ba:55:8a:85:f1:1b:6f:49:79:b4:7f:88:c3:0d:3e:
                    54:88:9b:3d:1f:38:8c:04:f3:ee:6a:63:2b:f5:c6:
                    db:b4:83:aa:c4:78:41:3a:7d:4b:e1:c8:3e:71:ca:
                    1b:61:59:ea:c6:c4:ca:32:5e:c9:e9:bf:12:29:e6:
                    c6:c3:63:fe:a0:55:da:7a:f1:60:98:4d:26:ed:fa:
                    70:2d
                Exponent: 65537 (0x10001)
        X509v3 extensions:
            X509v3 Key Usage: 
                Digital Signature, Key Encipherment
            X509v3 Basic Constraints: 
                CA:FALSE
            Netscape Cert Type: 
                SSL Server
            Netscape Comment: 
                OpenSSL Generated Server Certificate
            X509v3 Subject Key Identifier: 
                53:3F:ED:5D:09:07:B3:65:7B:AB:45:C9:24:5B:09:77:80:0A:96:ED
            X509v3 Authority Key Identifier: 
                keyid:F4:A7:C0:CC:91:46:AF:64:F3:91:F2:27:F8:C8:B2:6F:8A:87:32:73
                DirName:/C=DE/ST=Hessen/O=privacyidea/CN=CA001
                serial:FB:C8:EB:AC:83:CD:12:07

            X509v3 Extended Key Usage: 
                TLS Web Server Authentication
    Signature Algorithm: sha1WithRSAEncryption
         48:33:d8:eb:7f:95:0f:ae:20:33:fb:55:1f:50:63:68:94:11:
         4f:e5:d9:52:b3:95:e7:40:2d:3e:19:25:3c:b0:38:f7:8d:cd:
         ab:de:6d:0e:65:90:bf:ce:fd:91:ac:16:12:8b:5d:ef:26:6e:
         8c:19:09:57:86:8e:ba:19:65:08:ff:6f:ff:c7:ad:86:de:4a:
         04:c7:70:c5:a3:82:66:68:d6:da:e0:7c:a5:a8:94:d6:1e:7f:
         fa:7a:fb:c0:47:ea:79:cc:13:41:45:d7:41:ad:8b:50:0c:7f:
         bf:0d:58:5d:db:df:22:4d:7a:81:85:eb:ce:ae:58:e2:23:4c:
         ac:b4:16:9c:11:96:f6:76:36:b1:01:72:a3:c1:e8:ec:1b:45:
         8e:3d:83:67:01:05:3a:08:ae:1b:8f:81:4b:15:0d:ba:9f:7b:
         cf:72:89:97:d0:ca:a0:95:c3:d3:8c:fb:39:42:d6:9f:89:20:
         92:b4:3e:aa:9f:35:2a:86:88:9e:6a:02:28:02:6c:de:b0:b3:
         0a:e1:d4:6e:0a:13:9e:7c:90:4c:76:bd:46:a5:19:00:7a:9f:
         71:2a:b0:96:7b:ae:6b:0e:31:a2:a9:66:20:c0:5f:a2:f7:93:
         b6:8b:d8:10:00:c5:8f:88:68:b7:b7:b9:e4:f4:ea:e8:4d:44:
         6a:6f:83:fc
-----BEGIN CERTIFICATE-----
MIIEJjCCAw6gAwIBAgIEEAAAtjANBgkqhkiG9w0BAQUFADBEMQswCQYDVQQGEwJE
RTEPMA0GA1UECAwGSGVzc2VuMRQwEgYDVQQKDAtwcml2YWN5aWRlYTEOMAwGA1UE
AwwFQ0EwMDEwHhcNMTUxMDI3MTIyMTUzWhcNMTYxMDI2MTIyMTUzWjBUMQswCQYD
VQQGEwJERTEPMA0GA1UECAwGSGVzc2VuMRQwEgYDVQQKDAtwcml2YWN5aWRlYTEe
MBwGA1UEAwwVcmVxdWVzdGVyLmxvY2FsZG9tYWluMIIBIjANBgkqhkiG9w0BAQEF
AAOCAQ8AMIIBCgKCAQEAzb4UT/rOAT9CIhsdnK/dktJ/22y3PjlDQ2sTA/EF9Ad0
vHZpKAuvGY7X/OPNxljyyn8IbVP8BwJEJMa0NEyMBP4zDkDiILoCc1r39U9jbszG
tt9UHTc5fVE2Jl+93D+oi2uirrad1iHn30G4eigqaEjKqC3t4elGXlpybbSEOIeR
/ZQRCyiExsIvKvsB+TZ6CXXRM4g8c0FbyL+UiXCh8MC5LlBTHrEXZGn0LYHgqQ0O
Mum6VYqF8RtvSXm0f4jDDT5UiJs9HziMBPPuamMr9cbbtIOqxHhBOn1L4cg+ccob
YVnqxsTKMl7J6b8SKebGw2P+oFXaevFgmE0m7fpwLQIDAQABo4IBDjCCAQowCwYD
VR0PBAQDAgWgMAkGA1UdEwQCMAAwEQYJYIZIAYb4QgEBBAQDAgZAMDMGCWCGSAGG
+EIBDQQmFiRPcGVuU1NMIEdlbmVyYXRlZCBTZXJ2ZXIgQ2VydGlmaWNhdGUwHQYD
VR0OBBYEFFM/7V0JB7Nle6tFySRbCXeACpbtMHQGA1UdIwRtMGuAFPSnwMyRRq9k
85HyJ/jIsm+KhzJzoUikRjBEMQswCQYDVQQGEwJERTEPMA0GA1UECAwGSGVzc2Vu
MRQwEgYDVQQKDAtwcml2YWN5aWRlYTEOMAwGA1UEAwwFQ0EwMDGCCQD7yOusg80S
BzATBgNVHSUEDDAKBggrBgEFBQcDATANBgkqhkiG9w0BAQUFAAOCAQEASDPY63+V
D64gM/tVH1BjaJQRT+XZUrOV50AtPhklPLA4943Nq95tDmWQv879kawWEotd7yZu
jBkJV4aOuhllCP9v/8etht5KBMdwxaOCZmjW2uB8paiU1h5/+nr7wEfqecwTQUXX
Qa2LUAx/vw1YXdvfIk16gYXrzq5Y4iNMrLQWnBGW9nY2sQFyo8Ho7BtFjj2DZwEF
OgiuG4+BSxUNup97z3KJl9DKoJXD04z7OULWn4kgkrQ+qp81KoaInmoCKAJs3rCz
CuHUbgoTnnyQTHa9RqUZAHqfcSqwlnuuaw4xoqlmIMBfoveTtovYEADFj4hot7e5
5PTq6E1Eam+D/A==
-----END CERTIFICATE-----
