Certificate:
    Data:
        Version: 3 (0x2)
        Serial Number: 268435653 (0x100000c5)
    Signature Algorithm: sha1WithRSAEncryption
        Issuer: C=DE, ST=Hessen, O=privacyidea, CN=CA001
        Validity
            Not Before: Oct 26 18:29:38 2015 GMT
            Not After : Oct 25 18:29:38 2016 GMT
        Subject: C=DE, ST=Hessen, O=privacyidea, CN=requester.localdomain
        Subject Public Key Info:
            Public Key Algorithm: rsaEncryption
                Public-Key: (2048 bit)
                Modulus:
                    00:cd:be:14:4f:fa:ce:01:3f:42:22:1b:1d:9c:af:
                    dd:92:d2:7f:db:6c:b7:3e:39:43:43:6b:13:03:f1:
                    05:f4:07:74:bc:76:69:28:0b:af:19:8e:d7:fc:e3:
                    cd:c6:58:f2:ca:7f:08:6d:53:fc:07:02:44:24:c6:
                    b4:34:4c:8c:04:fe:33:0e:40:e2:20:ba:02:73:5a:
                    f7:f5:4f:63:6e:cc:c6:b6:df:54:1d:37:39:7d:51:
                    36:26:5f:bd:dc:3f:a8:8b:6b:a2:ae:b6:9d:d6:21:
                    e7:df:41:b8:7a:28:2a:68:48:ca:a8:2d:ed:e1:e9:
                    46:5e:5a:72:6d:b4:84:38:87:91:fd:94:11:0b:28:
                    84:c6:c2:2f:2a:fb:01:f9:36:7a:09:75:d1:33:88:
                    3c:73:41:5b:c8:bf:94:89:70:a1:f0:c0:b9:2e:50:
                    53:1e:b1:17:64:69:f4:2d:81:e0:a9:0d:0e:32:e9:
                    ba:55:8a:85:f1:1b:6f:49:79:b4:7f:88:c3:0d:3e:
                    54:88:9b:3d:1f:38:8c:04:f3:ee:6a:63:2b:f5:c6:
                    db:b4:83:aa:c4:78:41:3a:7d:4b:e1:c8:3e:71:ca:
                    1b:61:59:ea:c6:c4:ca:32:5e:c9:e9:bf:12:29:e6:
                    c6:c3:63:fe:a0:55:da:7a:f1:60:98:4d:26:ed:fa:
                    70:2d
                Exponent: 65537 (0x10001)
        X509v3 extensions:
            X509v3 Key Usage: 
                Digital Signature, Key Encipherment
            X509v3 Basic Constraints: 
                CA:FALSE
            Netscape Cert Type: 
                SSL Server
            Netscape Comment: 
                OpenSSL Generated Server Certificate
            X509v3 Subject Key Identifier: 
                53:3F:ED:5D:09:07:B3:65:7B:AB:45:C9:24:5B:09:77:80:0A:96:ED
            X509v3 Authority Key Identifier: 
                keyid:F4:A7:C0:CC:91:46:AF:64:F3:91:F2:27:F8:C8:B2:6F:8A:87:32:73
                DirName:/C=DE/ST=Hessen/O=privacyidea/CN=CA001
                serial:FB:C8:EB:AC:83:CD:12:07

            X509v3 Extended Key Usage: 
                TLS Web Server Authentication
    Signature Algorithm: sha1WithRSAEncryption
         89:40:7a:2c:7b:ca:9b:81:f1:58:20:0a:56:61:e1:8e:87:48:
         2b:ac:eb:7f:f1:55:09:27:3f:f3:70:b3:da:0e:bf:ea:e9:41:
         c9:a4:05:c6:e2:0e:29:c4:e5:df:e3:56:e1:e4:e3:2b:0f:fe:
         cb:2f:25:a2:e9:b6:30:9a:a4:ed:48:a5:e4:ea:0c:69:32:d7:
         6e:0c:0a:dc:84:0d:90:cb:55:b8:a1:3f:b8:1c:21:4d:0d:a8:
         6f:e9:18:60:57:d0:3e:cb:08:48:3d:3b:22:09:1f:da:95:7f:
         c0:e8:41:f6:25:6b:7e:cd:2a:82:70:ae:23:5b:1f:7e:ef:96:
         5e:b8:3f:34:2b:fa:ee:43:a2:f4:6d:f1:e8:69:95:64:eb:c6:
         32:84:b8:cf:2f:6d:40:73:b1:82:10:ea:a9:7c:01:bb:c1:34:
         9d:ad:d7:c1:b9:3e:58:02:60:87:fb:bb:d2:5c:53:a6:d4:e1:
         be:7a:40:56:b7:36:cf:1a:b1:1a:97:72:2f:33:4b:e5:f3:4d:
         9b:28:54:27:57:9e:b4:cd:f9:c7:ad:a1:17:55:49:80:ea:b7:
         30:16:2a:f6:29:29:0a:29:32:27:31:55:10:1b:83:ca:cf:8d:
         be:71:19:ee:69:2e:b8:7b:07:0b:b5:6b:b9:1c:fd:9b:b5:cf:
         9f:e6:1e:9b
-----BEGIN CERTIFICATE-----
MIIEJjCCAw6gAwIBAgIEEAAAxTANBgkqhkiG9w0BAQUFADBEMQswCQYDVQQGEwJE
RTEPMA0GA1UECAwGSGVzc2VuMRQwEgYDVQQKDAtwcml2YWN5aWRlYTEOMAwGA1UE
AwwFQ0EwMDEwHhcNMTUxMDI2MTgyOTM4WhcNMTYxMDI1MTgyOTM4WjBUMQswCQYD
VQQGEwJERTEPMA0GA1UECAwGSGVzc2VuMRQwEgYDVQQKDAtwcml2YWN5aWRlYTEe
MBwGA1UEAwwVcmVxdWVzdGVyLmxvY2FsZG9tYWluMIIBIjANBgkqhkiG9w0BAQEF
AAOCAQ8AMIIBCgKCAQEAzb4UT/rOAT9CIhsdnK/dktJ/22y3PjlDQ2sTA/EF9Ad0
vHZpKAuvGY7X/OPNxljyyn8IbVP8BwJEJMa0NEyMBP4zDkDiILoCc1r39U9jbszG
tt9UHTc5fVE2Jl+93D+oi2uirrad1iHn30G4eigqaEjKqC3t4elGXlpybbSEOIeR
/ZQRCyiExsIvKvsB+TZ6CXXRM4g8c0FbyL+UiXCh8MC5LlBTHrEXZGn0LYHgqQ0O
Mum6VYqF8RtvSXm0f4jDDT5UiJs9HziMBPPuamMr9cbbtIOqxHhBOn1L4cg+ccob
YVnqxsTKMl7J6b8SKebGw2P+oFXaevFgmE0m7fpwLQIDAQABo4IBDjCCAQowCwYD
VR0PBAQDAgWgMAkGA1UdEwQCMAAwEQYJYIZIAYb4QgEBBAQDAgZAMDMGCWCGSAGG
+EIBDQQmFiRPcGVuU1NMIEdlbmVyYXRlZCBTZXJ2ZXIgQ2VydGlmaWNhdGUwHQYD
VR0OBBYEFFM/7V0JB7Nle6tFySRbCXeACpbtMHQGA1UdIwRtMGuAFPSnwMyRRq9k
85HyJ/jIsm+KhzJzoUikRjBEMQswCQYDVQQGEwJERTEPMA0GA1UECAwGSGVzc2Vu
MRQwEgYDVQQKDAtwcml2YWN5aWRlYTEOMAwGA1UEAwwFQ0EwMDGCCQD7yOusg80S
BzATBgNVHSUEDDAKBggrBgEFBQcDATANBgkqhkiG9w0BAQUFAAOCAQEAiUB6LHvK
m4HxWCAKVmHhjodIK6zrf/FVCSc/83Cz2g6/6ulByaQFxuIOKcTl3+NW4eTjKw/+
yy8loum2MJqk7Uil5OoMaTLXbgwK3IQNkMtVuKE/uBwhTQ2ob+kYYFfQPssISD07
Igkf2pV/wOhB9iVrfs0qgnCuI1sffu+WXrg/NCv67kOi9G3x6GmVZOvGMoS4zy9t
QHOxghDqqXwBu8E0na3Xwbk+WAJgh/u70lxTptThvnpAVrc2zxqxGpdyLzNL5fNN
myhUJ1eetM35x62hF1VJgOq3MBYq9ikpCikyJzFVEBuDys+NvnEZ7mkuuHsHC7Vr
uRz9m7XPn+Yemw==
-----END CERTIFICATE-----
