Certificate:
    Data:
        Version: 3 (0x2)
        Serial Number: 268435640 (0x100000b8)
    Signature Algorithm: sha1WithRSAEncryption
        Issuer: C=DE, ST=Hessen, O=privacyidea, CN=CA001
        Validity
            Not Before: Oct 27 12:23:13 2015 GMT
            Not After : Oct 26 12:23:13 2016 GMT
        Subject: C=DE, ST=Hessen, O=privacyidea, CN=usercert
        Subject Public Key Info:
            Public Key Algorithm: rsaEncryption
                Public-Key: (2048 bit)
                Modulus:
                    00:dc:2f:d1:5f:29:97:d4:7c:c3:53:c8:30:bd:4b:
                    67:70:2c:24:6b:b8:5e:eb:21:7a:48:12:56:7c:81:
                    5c:48:75:b6:68:eb:f6:f2:98:4e:50:51:d1:7f:6c:
                    73:f3:0a:a7:ae:be:48:5e:e5:d6:e1:d9:2a:7c:32:
                    6e:4e:fd:08:f6:5a:54:49:23:73:c3:b9:07:18:d1:
                    ef:b3:ac:f8:8a:dc:94:96:a4:90:3a:8e:74:df:e6:
                    0d:37:1b:bd:5b:b7:25:1a:56:39:da:6f:91:aa:5e:
                    1c:74:f3:f9:7c:14:01:83:12:65:76:c7:bb:fe:36:
                    5b:95:e9:72:65:83:ed:3e:98:30:71:fa:87:dd:a3:
                    36:5a:30:03:2e:26:e0:61:d1:bf:02:3f:b6:06:1f:
                    4a:89:28:1c:5c:a2:ff:4e:be:94:e6:8c:e0:da:82:
                    f1:9d:29:32:48:30:73:b4:04:f6:42:1e:be:f7:e2:
                    32:32:27:3c:9d:89:2f:70:3e:85:9a:6f:5c:c5:09:
                    c0:8c:32:2f:72:22:c9:d2:95:1f:b6:ac:72:60:72:
                    b7:82:4d:6b:ce:5b:e3:00:d0:d2:2f:58:c6:e0:10:
                    e5:51:ca:4d:3b:2e:e6:7e:ab:84:d6:56:f1:93:35:
                    a0:93:64:26:81:75:2f:91:b5:16:06:38:0b:db:cc:
                    2d:07
                Exponent: 65537 (0x10001)
        X509v3 extensions:
            X509v3 Key Usage: 
                Digital Signature, Key Encipherment
            X509v3 Basic Constraints: 
                CA:FALSE
            Netscape Cert Type: 
                SSL Server
            Netscape Comment: 
                OpenSSL Generated Server Certificate
            X509v3 Subject Key Identifier: 
                FC:14:D1:F0:4B:8D:00:90:F2:F5:B8:71:9E:4E:97:C3:92:54:AD:0B
            X509v3 Authority Key Identifier: 
                keyid:F4:A7:C0:CC:91:46:AF:64:F3:91:F2:27:F8:C8:B2:6F:8A:87:32:73
                DirName:/C=DE/ST=Hessen/O=privacyidea/CN=CA001
                serial:FB:C8:EB:AC:83:CD:12:07

            X509v3 Extended Key Usage: 
                TLS Web Server Authentication
    Signature Algorithm: sha1WithRSAEncryption
         03:10:77:21:3a:d2:ba:69:a7:23:90:75:be:d8:98:2b:67:04:
         f9:f7:fe:b0:00:6f:37:74:19:07:ed:d3:09:20:e8:aa:ac:cb:
         4a:da:a7:e8:4e:57:65:37:5e:ee:80:87:27:4f:c2:33:b7:46:
         54:66:86:ac:c3:51:0a:ac:96:11:97:c3:7c:cd:03:87:7b:70:
         91:33:8c:b4:51:2c:4e:61:a1:bb:e4:2d:1c:39:d8:4a:30:eb:
         a1:9a:5f:da:d7:40:19:77:b4:d5:a2:17:be:57:b9:10:2c:59:
         a6:b3:70:d5:2d:a9:3b:3f:47:e6:29:d7:16:af:d8:e9:32:9b:
         fe:5e:db:32:99:a3:2d:74:69:00:dd:ca:12:39:95:51:ce:e6:
         1b:30:88:cc:6b:cb:0b:c0:0d:27:81:02:15:9f:ce:fb:d8:95:
         b3:aa:67:97:0a:fd:01:21:9e:ce:15:4b:19:15:be:03:9b:8b:
         df:99:f2:10:b8:46:e3:4e:c0:fc:d9:2a:a7:71:3e:7e:b3:52:
         b6:de:87:fb:8b:b0:fa:cd:5b:c3:e5:2e:21:c5:6f:40:f8:5c:
         84:14:f1:20:47:c8:ac:cd:df:da:1a:8c:34:ed:dc:57:af:a0:
         04:6a:52:c9:a4:49:63:e3:ab:0a:97:60:c6:97:06:12:08:a7:
         d3:37:b4:70
-----BEGIN CERTIFICATE-----
MIIEGTCCAwGgAwIBAgIEEAAAuDANBgkqhkiG9w0BAQUFADBEMQswCQYDVQQGEwJE
RTEPMA0GA1UECAwGSGVzc2VuMRQwEgYDVQQKDAtwcml2YWN5aWRlYTEOMAwGA1UE
AwwFQ0EwMDEwHhcNMTUxMDI3MTIyMzEzWhcNMTYxMDI2MTIyMzEzWjBHMQswCQYD
VQQGEwJERTEPMA0GA1UECAwGSGVzc2VuMRQwEgYDVQQKDAtwcml2YWN5aWRlYTER
MA8GA1UEAwwIdXNlcmNlcnQwggEiMA0GCSqGSIb3DQEBAQUAA4IBDwAwggEKAoIB
AQDcL9FfKZfUfMNTyDC9S2dwLCRruF7rIXpIElZ8gVxIdbZo6/bymE5QUdF/bHPz
Cqeuvkhe5dbh2Sp8Mm5O/Qj2WlRJI3PDuQcY0e+zrPiK3JSWpJA6jnTf5g03G71b
tyUaVjnab5GqXhx08/l8FAGDEmV2x7v+NluV6XJlg+0+mDBx+ofdozZaMAMuJuBh
0b8CP7YGH0qJKBxcov9OvpTmjODagvGdKTJIMHO0BPZCHr734jIyJzydiS9wPoWa
b1zFCcCMMi9yIsnSlR+2rHJgcreCTWvOW+MA0NIvWMbgEOVRyk07LuZ+q4TWVvGT
NaCTZCaBdS+RtRYGOAvbzC0HAgMBAAGjggEOMIIBCjALBgNVHQ8EBAMCBaAwCQYD
VR0TBAIwADARBglghkgBhvhCAQEEBAMCBkAwMwYJYIZIAYb4QgENBCYWJE9wZW5T
U0wgR2VuZXJhdGVkIFNlcnZlciBDZXJ0aWZpY2F0ZTAdBgNVHQ4EFgQU/BTR8EuN
AJDy9bhxnk6Xw5JUrQswdAYDVR0jBG0wa4AU9KfAzJFGr2TzkfIn+Miyb4qHMnOh
SKRGMEQxCzAJBgNVBAYTAkRFMQ8wDQYDVQQIDAZIZXNzZW4xFDASBgNVBAoMC3By
aXZhY3lpZGVhMQ4wDAYDVQQDDAVDQTAwMYIJAPvI66yDzRIHMBMGA1UdJQQMMAoG
CCsGAQUFBwMBMA0GCSqGSIb3DQEBBQUAA4IBAQADEHchOtK6aacjkHW+2JgrZwT5
9/6wAG83dBkH7dMJIOiqrMtK2qfoTldlN17ugIcnT8Izt0ZUZoasw1EKrJYRl8N8
zQOHe3CRM4y0USxOYaG75C0cOdhKMOuhml/a10AZd7TVohe+V7kQLFmms3DVLak7
P0fmKdcWr9jpMpv+XtsymaMtdGkA3coSOZVRzuYbMIjMa8sLwA0ngQIVn8772JWz
qmeXCv0BIZ7OFUsZFb4Dm4vfmfIQuEbjTsD82SqncT5+s1K23of7i7D6zVvD5S4h
xW9A+FyEFPEgR8iszd/aGow07dxXr6AEalLJpElj46sKl2DGlwYSCKfTN7Rw
-----END CERTIFICATE-----
