Certificate:
    Data:
        Version: 3 (0x2)
        Serial Number: 268435643 (0x100000bb)
    Signature Algorithm: sha1WithRSAEncryption
        Issuer: C=DE, ST=Hessen, O=privacyidea, CN=CA001
        Validity
            Not Before: Oct 27 12:32:20 2015 GMT
            Not After : Oct 26 12:32:20 2016 GMT
        Subject: CN=selfservice,CN=user,O=realm1/emailAddress=meine
        Subject Public Key Info:
            Public Key Algorithm: rsaEncryption
                Public-Key: (2048 bit)
                Modulus:
                    00:cf:3c:d4:33:0e:12:c4:e6:da:cd:b6:56:a1:1c:
                    26:bb:26:1c:8a:4a:73:a8:58:8a:b6:1e:b3:8b:99:
                    d2:1d:07:c2:92:89:79:c0:69:d8:c8:df:28:61:98:
                    1e:b3:fe:ae:2b:bd:78:a9:f7:6e:47:dc:a3:a0:16:
                    8c:85:02:c1:4e:92:fd:72:6e:f0:c8:03:29:9b:b8:
                    00:6e:c0:83:95:c8:34:20:36:9c:b3:e5:e4:e6:76:
                    73:a3:1a:ad:40:96:e0:53:54:00:ec:76:79:9a:c6:
                    0d:7e:b6:bd:29:ec:83:f3:cb:89:a4:cb:6c:00:ba:
                    0c:c5:78:0f:ff:69:b8:94:f4:04:70:43:3f:d8:9e:
                    d7:a7:fb:5d:ce:75:8e:da:e7:c4:07:b1:9d:de:6f:
                    88:4b:b6:4d:9a:cf:f9:bc:fa:9f:cd:32:6d:f6:3a:
                    0b:0d:23:42:78:ec:97:42:bf:0e:4d:60:56:e1:d3:
                    02:f2:19:cb:84:57:90:e5:70:a1:a2:83:35:86:e2:
                    da:86:9f:f9:8a:c4:79:b3:52:28:da:cb:bb:34:ca:
                    d3:da:91:4a:cf:8d:76:a2:b2:6b:9b:f9:96:fd:09:
                    2a:da:11:23:4d:f0:cb:d6:b2:b1:0e:12:6c:9a:19:
                    65:98:87:ca:e4:ee:24:ce:44:ac:90:8f:9d:1b:c5:
                    2a:9d
                Exponent: 65537 (0x10001)
        X509v3 extensions:
            X509v3 Key Usage: 
                Digital Signature, Key Encipherment
            X509v3 Basic Constraints: 
                CA:FALSE
            Netscape Cert Type: 
                SSL Server
            Netscape Comment: 
                OpenSSL Generated Server Certificate
            X509v3 Subject Key Identifier: 
                4D:07:90:AD:FF:1D:0D:E7:1A:DD:D6:2E:FA:BA:34:CB:AA:1F:24:C6
            X509v3 Authority Key Identifier: 
                keyid:F4:A7:C0:CC:91:46:AF:64:F3:91:F2:27:F8:C8:B2:6F:8A:87:32:73
                DirName:/C=DE/ST=Hessen/O=privacyidea/CN=CA001
                serial:FB:C8:EB:AC:83:CD:12:07

            X509v3 Extended Key Usage: 
                TLS Web Server Authentication
    Signature Algorithm: sha1WithRSAEncryption
         3e:9e:ed:be:b5:0a:a7:37:28:9e:d2:a5:bd:17:81:ef:21:71:
         6d:3a:8e:7b:c6:c2:60:77:58:30:2f:76:f4:bf:64:df:46:1e:
         40:fe:d5:57:9d:cb:aa:d3:28:55:09:95:30:2a:b8:b9:7a:0a:
         df:29:98:fc:a8:ec:34:e9:14:8a:ce:77:9a:34:46:50:e4:bd:
         70:3c:c9:46:eb:8d:47:0c:4b:be:22:9b:f5:b4:bb:90:3a:37:
         ed:4f:b1:7c:c9:16:fb:89:ca:4d:96:b1:cf:15:ca:aa:47:82:
         0f:cd:7d:02:1d:a1:ed:71:c7:ff:5d:15:0d:aa:f9:cb:89:93:
         94:84:44:4d:97:1a:60:26:5e:2a:ca:16:97:f7:26:73:c4:6e:
         35:69:c9:55:67:bf:57:91:74:fb:68:43:88:28:01:f8:41:1e:
         0f:48:50:72:12:a7:03:d4:23:b3:d9:54:cc:e8:00:65:9d:4e:
         7a:e0:e1:a2:4c:7d:70:93:40:23:d7:0b:62:46:cf:3e:bd:aa:
         58:51:30:e9:89:20:ff:05:68:d4:f6:3f:0b:ab:ac:c7:fe:1c:
         5c:75:cb:27:73:3f:a9:2c:76:ca:60:4e:01:9f:3a:aa:83:45:
         66:1c:4a:d8:9b:c5:7c:31:fe:90:a0:10:9a:f2:6b:7f:0e:74:
         78:96:c3:86
-----BEGIN CERTIFICATE-----
MIIEDzCCAvegAwIBAgIEEAAAuzANBgkqhkiG9w0BAQUFADBEMQswCQYDVQQGEwJE
RTEPMA0GA1UECAwGSGVzc2VuMRQwEgYDVQQKDAtwcml2YWN5aWRlYTEOMAwGA1UE
AwwFQ0EwMDEwHhcNMTUxMDI3MTIzMjIwWhcNMTYxMDI2MTIzMjIwWjA9MSUwIwYD
VQQDExxzZWxmc2VydmljZSxDTj11c2VyLE89cmVhbG0xMRQwEgYJKoZIhvcNAQkB
FgVtZWluZTCCASIwDQYJKoZIhvcNAQEBBQADggEPADCCAQoCggEBAM881DMOEsTm
2s22VqEcJrsmHIpKc6hYirYes4uZ0h0HwpKJecBp2MjfKGGYHrP+riu9eKn3bkfc
o6AWjIUCwU6S/XJu8MgDKZu4AG7Ag5XINCA2nLPl5OZ2c6MarUCW4FNUAOx2eZrG
DX62vSnsg/PLiaTLbAC6DMV4D/9puJT0BHBDP9ie16f7Xc51jtrnxAexnd5viEu2
TZrP+bz6n80ybfY6Cw0jQnjsl0K/Dk1gVuHTAvIZy4RXkOVwoaKDNYbi2oaf+YrE
ebNSKNrLuzTK09qRSs+NdqKya5v5lv0JKtoRI03wy9aysQ4SbJoZZZiHyuTuJM5E
rJCPnRvFKp0CAwEAAaOCAQ4wggEKMAsGA1UdDwQEAwIFoDAJBgNVHRMEAjAAMBEG
CWCGSAGG+EIBAQQEAwIGQDAzBglghkgBhvhCAQ0EJhYkT3BlblNTTCBHZW5lcmF0
ZWQgU2VydmVyIENlcnRpZmljYXRlMB0GA1UdDgQWBBRNB5Ct/x0N5xrd1i76ujTL
qh8kxjB0BgNVHSMEbTBrgBT0p8DMkUavZPOR8if4yLJviocyc6FIpEYwRDELMAkG
A1UEBhMCREUxDzANBgNVBAgMBkhlc3NlbjEUMBIGA1UECgwLcHJpdmFjeWlkZWEx
DjAMBgNVBAMMBUNBMDAxggkA+8jrrIPNEgcwEwYDVR0lBAwwCgYIKwYBBQUHAwEw
DQYJKoZIhvcNAQEFBQADggEBAD6e7b61Cqc3KJ7Spb0Xge8hcW06jnvGwmB3WDAv
dvS/ZN9GHkD+1Vedy6rTKFUJlTAquLl6Ct8pmPyo7DTpFIrOd5o0RlDkvXA8yUbr
jUcMS74im/W0u5A6N+1PsXzJFvuJyk2Wsc8VyqpHgg/NfQIdoe1xx/9dFQ2q+cuJ
k5SERE2XGmAmXirKFpf3JnPEbjVpyVVnv1eRdPtoQ4goAfhBHg9IUHISpwPUI7PZ
VMzoAGWdTnrg4aJMfXCTQCPXC2JGzz69qlhRMOmJIP8FaNT2PwurrMf+HFx1yydz
P6ksdspgTgGfOqqDRWYcStibxXwx/pCgEJrya38OdHiWw4Y=
-----END CERTIFICATE-----
