Certificate:
    Data:
        Version: 3 (0x2)
        Serial Number: 268435665 (0x100000d1)
    Signature Algorithm: sha1WithRSAEncryption
        Issuer: C=DE, ST=Hessen, O=privacyidea, CN=CA001
        Validity
            Not Before: Sep 26 14:29:32 2015 GMT
            Not After : Sep 25 14:29:32 2016 GMT
        Subject: C=DE, ST=Hessen, O=privacyidea, CN=requester.localdomain
        Subject Public Key Info:
            Public Key Algorithm: rsaEncryption
                Public-Key: (2048 bit)
                Modulus:
                    00:cd:be:14:4f:fa:ce:01:3f:42:22:1b:1d:9c:af:
                    dd:92:d2:7f:db:6c:b7:3e:39:43:43:6b:13:03:f1:
                    05:f4:07:74:bc:76:69:28:0b:af:19:8e:d7:fc:e3:
                    cd:c6:58:f2:ca:7f:08:6d:53:fc:07:02:44:24:c6:
                    b4:34:4c:8c:04:fe:33:0e:40:e2:20:ba:02:73:5a:
                    f7:f5:4f:63:6e:cc:c6:b6:df:54:1d:37:39:7d:51:
                    36:26:5f:bd:dc:3f:a8:8b:6b:a2:ae:b6:9d:d6:21:
                    e7:df:41:b8:7a:28:2a:68:48:ca:a8:2d:ed:e1:e9:
                    46:5e:5a:72:6d:b4:84:38:87:91:fd:94:11:0b:28:
                    84:c6:c2:2f:2a:fb:01:f9:36:7a:09:75:d1:33:88:
                    3c:73:41:5b:c8:bf:94:89:70:a1:f0:c0:b9:2e:50:
                    53:1e:b1:17:64:69:f4:2d:81:e0:a9:0d:0e:32:e9:
                    ba:55:8a:85:f1:1b:6f:49:79:b4:7f:88:c3:0d:3e:
                    54:88:9b:3d:1f:38:8c:04:f3:ee:6a:63:2b:f5:c6:
                    db:b4:83:aa:c4:78:41:3a:7d:4b:e1:c8:3e:71:ca:
                    1b:61:59:ea:c6:c4:ca:32:5e:c9:e9:bf:12:29:e6:
                    c6:c3:63:fe:a0:55:da:7a:f1:60:98:4d:26:ed:fa:
                    70:2d
                Exponent: 65537 (0x10001)
        X509v3 extensions:
            X509v3 Key Usage: 
                Digital Signature, Key Encipherment
            X509v3 Basic Constraints: 
                CA:FALSE
            Netscape Cert Type: 
                SSL Server
            Netscape Comment: 
                OpenSSL Generated Server Certificate
            X509v3 Subject Key Identifier: 
                53:3F:ED:5D:09:07:B3:65:7B:AB:45:C9:24:5B:09:77:80:0A:96:ED
            X509v3 Authority Key Identifier: 
                keyid:F4:A7:C0:CC:91:46:AF:64:F3:91:F2:27:F8:C8:B2:6F:8A:87:32:73
                DirName:/C=DE/ST=Hessen/O=privacyidea/CN=CA001
                serial:FB:C8:EB:AC:83:CD:12:07

            X509v3 Extended Key Usage: 
                TLS Web Server Authentication
    Signature Algorithm: sha1WithRSAEncryption
         50:00:6f:0b:ad:2f:13:37:72:61:d2:ec:41:fa:d5:3a:3a:39:
         d0:50:09:84:bd:1e:31:f9:1d:8f:e6:ff:f4:10:19:95:19:14:
         85:5d:f8:83:42:97:91:98:f7:34:78:45:f9:d9:dc:39:e2:f5:
         1a:bb:cf:d0:30:4c:3d:f9:a1:c9:70:3d:07:aa:d0:c8:f7:54:
         a2:d5:c1:e5:3f:cc:2f:cb:32:33:9c:61:46:85:8e:a3:69:57:
         b8:cc:0e:6d:ca:f1:18:73:f6:3a:e0:97:6d:cc:32:b2:63:45:
         23:4b:94:3a:7c:ac:30:c7:e0:55:f3:33:58:8a:f8:89:12:4f:
         8d:a5:4e:ac:2a:5b:5d:d2:17:87:a5:c2:d5:4b:09:63:ae:da:
         6a:5c:71:c3:be:b7:a6:91:e9:96:8a:4a:e4:77:6b:16:78:46:
         d4:a1:67:6d:fe:e3:6a:83:f6:56:72:dd:b9:40:34:3d:a1:17:
         6f:4d:0d:e8:fc:b1:8e:9d:64:87:74:36:43:f5:0c:ec:ea:9a:
         59:73:c7:80:f4:aa:15:dd:5f:98:49:41:e3:33:86:20:2d:0e:
         34:a7:49:2c:4a:55:5a:0d:80:68:5e:8d:15:51:c0:d7:ba:ec:
         94:5d:9e:1b:23:a0:f7:d1:22:a0:da:a9:4f:78:5c:db:dd:d6:
         4e:3f:f2:95
-----BEGIN CERTIFICATE-----
MIIEJjCCAw6gAwIBAgIEEAAA0TANBgkqhkiG9w0BAQUFADBEMQswCQYDVQQGEwJE
RTEPMA0GA1UECAwGSGVzc2VuMRQwEgYDVQQKDAtwcml2YWN5aWRlYTEOMAwGA1UE
AwwFQ0EwMDEwHhcNMTUwOTI2MTQyOTMyWhcNMTYwOTI1MTQyOTMyWjBUMQswCQYD
VQQGEwJERTEPMA0GA1UECAwGSGVzc2VuMRQwEgYDVQQKDAtwcml2YWN5aWRlYTEe
MBwGA1UEAwwVcmVxdWVzdGVyLmxvY2FsZG9tYWluMIIBIjANBgkqhkiG9w0BAQEF
AAOCAQ8AMIIBCgKCAQEAzb4UT/rOAT9CIhsdnK/dktJ/22y3PjlDQ2sTA/EF9Ad0
vHZpKAuvGY7X/OPNxljyyn8IbVP8BwJEJMa0NEyMBP4zDkDiILoCc1r39U9jbszG
tt9UHTc5fVE2Jl+93D+oi2uirrad1iHn30G4eigqaEjKqC3t4elGXlpybbSEOIeR
/ZQRCyiExsIvKvsB+TZ6CXXRM4g8c0FbyL+UiXCh8MC5LlBTHrEXZGn0LYHgqQ0O
Mum6VYqF8RtvSXm0f4jDDT5UiJs9HziMBPPuamMr9cbbtIOqxHhBOn1L4cg+ccob
YVnqxsTKMl7J6b8SKebGw2P+oFXaevFgmE0m7fpwLQIDAQABo4IBDjCCAQowCwYD
VR0PBAQDAgWgMAkGA1UdEwQCMAAwEQYJYIZIAYb4QgEBBAQDAgZAMDMGCWCGSAGG
+EIBDQQmFiRPcGVuU1NMIEdlbmVyYXRlZCBTZXJ2ZXIgQ2VydGlmaWNhdGUwHQYD
VR0OBBYEFFM/7V0JB7Nle6tFySRbCXeACpbtMHQGA1UdIwRtMGuAFPSnwMyRRq9k
85HyJ/jIsm+KhzJzoUikRjBEMQswCQYDVQQGEwJERTEPMA0GA1UECAwGSGVzc2Vu
MRQwEgYDVQQKDAtwcml2YWN5aWRlYTEOMAwGA1UEAwwFQ0EwMDGCCQD7yOusg80S
BzATBgNVHSUEDDAKBggrBgEFBQcDATANBgkqhkiG9w0BAQUFAAOCAQEAUABvC60v
EzdyYdLsQfrVOjo50FAJhL0eMfkdj+b/9BAZlRkUhV34g0KXkZj3NHhF+dncOeL1
GrvP0DBMPfmhyXA9B6rQyPdUotXB5T/ML8syM5xhRoWOo2lXuMwObcrxGHP2OuCX
bcwysmNFI0uUOnysMMfgVfMzWIr4iRJPjaVOrCpbXdIXh6XC1UsJY67aalxxw763
ppHplopK5HdrFnhG1KFnbf7jaoP2VnLduUA0PaEXb00N6Pyxjp1kh3Q2Q/UM7Oqa
WXPHgPSqFd1fmElB4zOGIC0ONKdJLEpVWg2AaF6NFVHA17rslF2eGyOg99EioNqp
T3hc293WTj/ylQ==
-----END CERTIFICATE-----
