Certificate:
    Data:
        Version: 3 (0x2)
        Serial Number: 268435639 (0x100000b7)
    Signature Algorithm: sha1WithRSAEncryption
        Issuer: C=DE, ST=Hessen, O=privacyidea, CN=CA001
        Validity
            Not Before: Oct 27 12:23:13 2015 GMT
            Not After : Oct 26 12:23:13 2016 GMT
        Subject: C=DE, ST=Hessen, O=privacyidea, CN=requester.localdomain
        Subject Public Key Info:
            Public Key Algorithm: rsaEncryption
                Public-Key: (2048 bit)
                Modulus:
                    00:cd:be:14:4f:fa:ce:01:3f:42:22:1b:1d:9c:af:
                    dd:92:d2:7f:db:6c:b7:3e:39:43:43:6b:13:03:f1:
                    05:f4:07:74:bc:76:69:28:0b:af:19:8e:d7:fc:e3:
                    cd:c6:58:f2:ca:7f:08:6d:53:fc:07:02:44:24:c6:
                    b4:34:4c:8c:04:fe:33:0e:40:e2:20:ba:02:73:5a:
                    f7:f5:4f:63:6e:cc:c6:b6:df:54:1d:37:39:7d:51:
                    36:26:5f:bd:dc:3f:a8:8b:6b:a2:ae:b6:9d:d6:21:
                    e7:df:41:b8:7a:28:2a:68:48:ca:a8:2d:ed:e1:e9:
                    46:5e:5a:72:6d:b4:84:38:87:91:fd:94:11:0b:28:
                    84:c6:c2:2f:2a:fb:01:f9:36:7a:09:75:d1:33:88:
                    3c:73:41:5b:c8:bf:94:89:70:a1:f0:c0:b9:2e:50:
                    53:1e:b1:17:64:69:f4:2d:81:e0:a9:0d:0e:32:e9:
                    ba:55:8a:85:f1:1b:6f:49:79:b4:7f:88:c3:0d:3e:
                    54:88:9b:3d:1f:38:8c:04:f3:ee:6a:63:2b:f5:c6:
                    db:b4:83:aa:c4:78:41:3a:7d:4b:e1:c8:3e:71:ca:
                    1b:61:59:ea:c6:c4:ca:32:5e:c9:e9:bf:12:29:e6:
                    c6:c3:63:fe:a0:55:da:7a:f1:60:98:4d:26:ed:fa:
                    70:2d
                Exponent: 65537 (0x10001)
        X509v3 extensions:
            X509v3 Key Usage: 
                Digital Signature, Key Encipherment
            X509v3 Basic Constraints: 
                CA:FALSE
            Netscape Cert Type: 
                SSL Server
            Netscape Comment: 
                OpenSSL Generated Server Certificate
            X509v3 Subject Key Identifier: 
                53:3F:ED:5D:09:07:B3:65:7B:AB:45:C9:24:5B:09:77:80:0A:96:ED
            X509v3 Authority Key Identifier: 
                keyid:F4:A7:C0:CC:91:46:AF:64:F3:91:F2:27:F8:C8:B2:6F:8A:87:32:73
                DirName:/C=DE/ST=Hessen/O=privacyidea/CN=CA001
                serial:FB:C8:EB:AC:83:CD:12:07

            X509v3 Extended Key Usage: 
                TLS Web Server Authentication
    Signature Algorithm: sha1WithRSAEncryption
         9c:70:4f:2b:96:76:df:f1:7d:39:35:fb:99:83:64:5e:16:15:
         e9:b0:cd:5e:b7:17:9c:bd:81:33:7f:0c:9c:98:f6:76:92:3b:
         b6:91:1e:62:39:df:62:4d:62:45:d0:ce:76:94:9c:b1:46:30:
         1f:fe:cd:40:7e:e9:e6:ae:10:55:49:98:9b:95:20:61:9e:ca:
         28:65:63:4b:27:a4:6d:5b:28:82:39:af:54:4b:fe:de:41:2a:
         64:db:4c:f8:9b:7e:f9:7c:63:67:1e:78:fa:c6:0c:1d:0a:d3:
         65:c5:35:2b:9f:3e:69:c7:c5:55:eb:8f:4c:7a:fe:07:02:a7:
         51:41:cb:c6:85:66:3f:72:58:4c:34:ea:90:e7:f6:06:5e:e4:
         21:e3:3f:35:de:4d:1e:fd:ef:7e:bf:27:1d:1d:9e:84:e7:9b:
         79:2f:0d:d8:0c:17:b2:25:a8:53:a1:fb:39:48:6f:22:96:64:
         9d:18:46:c1:80:da:b4:a4:56:ca:13:5a:84:d7:a5:7f:7c:31:
         33:19:97:39:1f:4b:73:89:d7:c5:51:c5:b7:c7:a2:f4:7c:fa:
         f0:43:7e:a8:46:64:80:5f:37:f2:08:26:87:fc:5e:3b:b1:64:
         aa:59:29:71:64:3f:d7:7e:6a:79:2f:0f:0b:f5:46:d3:09:3a:
         bf:6d:fc:1d
-----BEGIN CERTIFICATE-----
MIIEJjCCAw6gAwIBAgIEEAAAtzANBgkqhkiG9w0BAQUFADBEMQswCQYDVQQGEwJE
RTEPMA0GA1UECAwGSGVzc2VuMRQwEgYDVQQKDAtwcml2YWN5aWRlYTEOMAwGA1UE
AwwFQ0EwMDEwHhcNMTUxMDI3MTIyMzEzWhcNMTYxMDI2MTIyMzEzWjBUMQswCQYD
VQQGEwJERTEPMA0GA1UECAwGSGVzc2VuMRQwEgYDVQQKDAtwcml2YWN5aWRlYTEe
MBwGA1UEAwwVcmVxdWVzdGVyLmxvY2FsZG9tYWluMIIBIjANBgkqhkiG9w0BAQEF
AAOCAQ8AMIIBCgKCAQEAzb4UT/rOAT9CIhsdnK/dktJ/22y3PjlDQ2sTA/EF9Ad0
vHZpKAuvGY7X/OPNxljyyn8IbVP8BwJEJMa0NEyMBP4zDkDiILoCc1r39U9jbszG
tt9UHTc5fVE2Jl+93D+oi2uirrad1iHn30G4eigqaEjKqC3t4elGXlpybbSEOIeR
/ZQRCyiExsIvKvsB+TZ6CXXRM4g8c0FbyL+UiXCh8MC5LlBTHrEXZGn0LYHgqQ0O
Mum6VYqF8RtvSXm0f4jDDT5UiJs9HziMBPPuamMr9cbbtIOqxHhBOn1L4cg+ccob
YVnqxsTKMl7J6b8SKebGw2P+oFXaevFgmE0m7fpwLQIDAQABo4IBDjCCAQowCwYD
VR0PBAQDAgWgMAkGA1UdEwQCMAAwEQYJYIZIAYb4QgEBBAQDAgZAMDMGCWCGSAGG
+EIBDQQmFiRPcGVuU1NMIEdlbmVyYXRlZCBTZXJ2ZXIgQ2VydGlmaWNhdGUwHQYD
VR0OBBYEFFM/7V0JB7Nle6tFySRbCXeACpbtMHQGA1UdIwRtMGuAFPSnwMyRRq9k
85HyJ/jIsm+KhzJzoUikRjBEMQswCQYDVQQGEwJERTEPMA0GA1UECAwGSGVzc2Vu
MRQwEgYDVQQKDAtwcml2YWN5aWRlYTEOMAwGA1UEAwwFQ0EwMDGCCQD7yOusg80S
BzATBgNVHSUEDDAKBggrBgEFBQcDATANBgkqhkiG9w0BAQUFAAOCAQEAnHBPK5Z2
3/F9OTX7mYNkXhYV6bDNXrcXnL2BM38MnJj2dpI7tpEeYjnfYk1iRdDOdpScsUYw
H/7NQH7p5q4QVUmYm5UgYZ7KKGVjSyekbVsogjmvVEv+3kEqZNtM+Jt++XxjZx54
+sYMHQrTZcU1K58+acfFVeuPTHr+BwKnUUHLxoVmP3JYTDTqkOf2Bl7kIeM/Nd5N
Hv3vfr8nHR2ehOebeS8N2AwXsiWoU6H7OUhvIpZknRhGwYDatKRWyhNahNelf3wx
MxmXOR9Lc4nXxVHFt8ei9Hz68EN+qEZkgF838ggmh/xeO7FkqlkpcWQ/135qeS8P
C/VG0wk6v238HQ==
-----END CERTIFICATE-----
