Certificate:
    Data:
        Version: 3 (0x2)
        Serial Number: 268435658 (0x100000ca)
    Signature Algorithm: sha1WithRSAEncryption
        Issuer: C=DE, ST=Hessen, O=privacyidea, CN=CA001
        Validity
            Not Before: Sep 26 14:22:56 2015 GMT
            Not After : Sep 25 14:22:56 2016 GMT
        Subject: C=DE, ST=Hessen, O=privacyidea, CN=usercert
        Subject Public Key Info:
            Public Key Algorithm: rsaEncryption
                Public-Key: (2048 bit)
                Modulus:
                    00:dc:2f:d1:5f:29:97:d4:7c:c3:53:c8:30:bd:4b:
                    67:70:2c:24:6b:b8:5e:eb:21:7a:48:12:56:7c:81:
                    5c:48:75:b6:68:eb:f6:f2:98:4e:50:51:d1:7f:6c:
                    73:f3:0a:a7:ae:be:48:5e:e5:d6:e1:d9:2a:7c:32:
                    6e:4e:fd:08:f6:5a:54:49:23:73:c3:b9:07:18:d1:
                    ef:b3:ac:f8:8a:dc:94:96:a4:90:3a:8e:74:df:e6:
                    0d:37:1b:bd:5b:b7:25:1a:56:39:da:6f:91:aa:5e:
                    1c:74:f3:f9:7c:14:01:83:12:65:76:c7:bb:fe:36:
                    5b:95:e9:72:65:83:ed:3e:98:30:71:fa:87:dd:a3:
                    36:5a:30:03:2e:26:e0:61:d1:bf:02:3f:b6:06:1f:
                    4a:89:28:1c:5c:a2:ff:4e:be:94:e6:8c:e0:da:82:
                    f1:9d:29:32:48:30:73:b4:04:f6:42:1e:be:f7:e2:
                    32:32:27:3c:9d:89:2f:70:3e:85:9a:6f:5c:c5:09:
                    c0:8c:32:2f:72:22:c9:d2:95:1f:b6:ac:72:60:72:
                    b7:82:4d:6b:ce:5b:e3:00:d0:d2:2f:58:c6:e0:10:
                    e5:51:ca:4d:3b:2e:e6:7e:ab:84:d6:56:f1:93:35:
                    a0:93:64:26:81:75:2f:91:b5:16:06:38:0b:db:cc:
                    2d:07
                Exponent: 65537 (0x10001)
        X509v3 extensions:
            X509v3 Key Usage: 
                Digital Signature, Key Encipherment
            X509v3 Basic Constraints: 
                CA:FALSE
            Netscape Cert Type: 
                SSL Server
            Netscape Comment: 
                OpenSSL Generated Server Certificate
            X509v3 Subject Key Identifier: 
                FC:14:D1:F0:4B:8D:00:90:F2:F5:B8:71:9E:4E:97:C3:92:54:AD:0B
            X509v3 Authority Key Identifier: 
                keyid:F4:A7:C0:CC:91:46:AF:64:F3:91:F2:27:F8:C8:B2:6F:8A:87:32:73
                DirName:/C=DE/ST=Hessen/O=privacyidea/CN=CA001
                serial:FB:C8:EB:AC:83:CD:12:07

            X509v3 Extended Key Usage: 
                TLS Web Server Authentication
    Signature Algorithm: sha1WithRSAEncryption
         9b:29:2d:1e:a9:63:4e:08:fe:78:21:86:53:64:03:59:41:45:
         ed:a6:0d:0f:c0:84:be:40:23:42:0a:47:9c:e1:54:8c:9b:e8:
         32:25:6b:95:4e:a8:ca:f8:f9:37:e7:b4:41:27:4c:1c:bf:a4:
         c3:5d:01:f1:00:65:6b:81:f4:b6:4c:15:b7:5c:3c:1b:b8:e6:
         d4:86:ef:1b:b4:4e:d2:e1:28:39:f2:40:2b:89:74:1f:4a:24:
         02:c3:aa:f6:c7:4a:54:7c:c6:08:da:8b:dc:7a:95:73:a3:f7:
         19:c4:90:e3:e2:18:45:6c:66:80:6f:28:82:52:3e:bf:99:33:
         7f:69:7d:c8:f5:a2:f7:99:0c:68:9b:aa:05:d5:c9:44:c7:57:
         ea:44:45:a1:28:27:cb:05:fb:29:7c:20:e4:28:d3:d3:82:c2:
         f1:8d:2f:6f:09:a6:8b:ce:7b:95:32:98:11:9f:c1:25:4e:ab:
         f3:e2:1a:b2:1d:65:07:7f:e2:45:e7:71:19:38:4f:2f:73:4f:
         37:a3:03:38:a2:3c:bc:95:06:ba:4f:d0:f2:8f:f4:bf:69:57:
         0f:13:b4:8f:20:68:d9:35:3e:77:42:87:95:ff:09:a1:9a:5e:
         45:63:01:cd:b6:c5:84:44:ba:45:98:16:ae:f9:7d:15:73:ee:
         8c:de:83:6d
-----BEGIN CERTIFICATE-----
MIIEGTCCAwGgAwIBAgIEEAAAyjANBgkqhkiG9w0BAQUFADBEMQswCQYDVQQGEwJE
RTEPMA0GA1UECAwGSGVzc2VuMRQwEgYDVQQKDAtwcml2YWN5aWRlYTEOMAwGA1UE
AwwFQ0EwMDEwHhcNMTUwOTI2MTQyMjU2WhcNMTYwOTI1MTQyMjU2WjBHMQswCQYD
VQQGEwJERTEPMA0GA1UECAwGSGVzc2VuMRQwEgYDVQQKDAtwcml2YWN5aWRlYTER
MA8GA1UEAwwIdXNlcmNlcnQwggEiMA0GCSqGSIb3DQEBAQUAA4IBDwAwggEKAoIB
AQDcL9FfKZfUfMNTyDC9S2dwLCRruF7rIXpIElZ8gVxIdbZo6/bymE5QUdF/bHPz
Cqeuvkhe5dbh2Sp8Mm5O/Qj2WlRJI3PDuQcY0e+zrPiK3JSWpJA6jnTf5g03G71b
tyUaVjnab5GqXhx08/l8FAGDEmV2x7v+NluV6XJlg+0+mDBx+ofdozZaMAMuJuBh
0b8CP7YGH0qJKBxcov9OvpTmjODagvGdKTJIMHO0BPZCHr734jIyJzydiS9wPoWa
b1zFCcCMMi9yIsnSlR+2rHJgcreCTWvOW+MA0NIvWMbgEOVRyk07LuZ+q4TWVvGT
NaCTZCaBdS+RtRYGOAvbzC0HAgMBAAGjggEOMIIBCjALBgNVHQ8EBAMCBaAwCQYD
VR0TBAIwADARBglghkgBhvhCAQEEBAMCBkAwMwYJYIZIAYb4QgENBCYWJE9wZW5T
U0wgR2VuZXJhdGVkIFNlcnZlciBDZXJ0aWZpY2F0ZTAdBgNVHQ4EFgQU/BTR8EuN
AJDy9bhxnk6Xw5JUrQswdAYDVR0jBG0wa4AU9KfAzJFGr2TzkfIn+Miyb4qHMnOh
SKRGMEQxCzAJBgNVBAYTAkRFMQ8wDQYDVQQIDAZIZXNzZW4xFDASBgNVBAoMC3By
aXZhY3lpZGVhMQ4wDAYDVQQDDAVDQTAwMYIJAPvI66yDzRIHMBMGA1UdJQQMMAoG
CCsGAQUFBwMBMA0GCSqGSIb3DQEBBQUAA4IBAQCbKS0eqWNOCP54IYZTZANZQUXt
pg0PwIS+QCNCCkec4VSMm+gyJWuVTqjK+Pk357RBJ0wcv6TDXQHxAGVrgfS2TBW3
XDwbuObUhu8btE7S4Sg58kAriXQfSiQCw6r2x0pUfMYI2ovcepVzo/cZxJDj4hhF
bGaAbyiCUj6/mTN/aX3I9aL3mQxom6oF1clEx1fqREWhKCfLBfspfCDkKNPTgsLx
jS9vCaaLznuVMpgRn8ElTqvz4hqyHWUHf+JF53EZOE8vc083owM4ojy8lQa6T9Dy
j/S/aVcPE7SPIGjZNT53QoeV/wmhml5FYwHNtsWERLpFmBau+X0Vc+6M3oNt
-----END CERTIFICATE-----
