Certificate:
    Data:
        Version: 3 (0x2)
        Serial Number: 268435663 (0x100000cf)
    Signature Algorithm: sha1WithRSAEncryption
        Issuer: C=DE, ST=Hessen, O=privacyidea, CN=CA001
        Validity
            Not Before: Sep 26 14:28:45 2015 GMT
            Not After : Sep 25 14:28:45 2016 GMT
        Subject: C=DE, ST=Hessen, O=privacyidea, CN=usercert
        Subject Public Key Info:
            Public Key Algorithm: rsaEncryption
                Public-Key: (2048 bit)
                Modulus:
                    00:dc:2f:d1:5f:29:97:d4:7c:c3:53:c8:30:bd:4b:
                    67:70:2c:24:6b:b8:5e:eb:21:7a:48:12:56:7c:81:
                    5c:48:75:b6:68:eb:f6:f2:98:4e:50:51:d1:7f:6c:
                    73:f3:0a:a7:ae:be:48:5e:e5:d6:e1:d9:2a:7c:32:
                    6e:4e:fd:08:f6:5a:54:49:23:73:c3:b9:07:18:d1:
                    ef:b3:ac:f8:8a:dc:94:96:a4:90:3a:8e:74:df:e6:
                    0d:37:1b:bd:5b:b7:25:1a:56:39:da:6f:91:aa:5e:
                    1c:74:f3:f9:7c:14:01:83:12:65:76:c7:bb:fe:36:
                    5b:95:e9:72:65:83:ed:3e:98:30:71:fa:87:dd:a3:
                    36:5a:30:03:2e:26:e0:61:d1:bf:02:3f:b6:06:1f:
                    4a:89:28:1c:5c:a2:ff:4e:be:94:e6:8c:e0:da:82:
                    f1:9d:29:32:48:30:73:b4:04:f6:42:1e:be:f7:e2:
                    32:32:27:3c:9d:89:2f:70:3e:85:9a:6f:5c:c5:09:
                    c0:8c:32:2f:72:22:c9:d2:95:1f:b6:ac:72:60:72:
                    b7:82:4d:6b:ce:5b:e3:00:d0:d2:2f:58:c6:e0:10:
                    e5:51:ca:4d:3b:2e:e6:7e:ab:84:d6:56:f1:93:35:
                    a0:93:64:26:81:75:2f:91:b5:16:06:38:0b:db:cc:
                    2d:07
                Exponent: 65537 (0x10001)
        X509v3 extensions:
            X509v3 Key Usage: 
                Digital Signature, Key Encipherment
            X509v3 Basic Constraints: 
                CA:FALSE
            Netscape Cert Type: 
                SSL Server
            Netscape Comment: 
                OpenSSL Generated Server Certificate
            X509v3 Subject Key Identifier: 
                FC:14:D1:F0:4B:8D:00:90:F2:F5:B8:71:9E:4E:97:C3:92:54:AD:0B
            X509v3 Authority Key Identifier: 
                keyid:F4:A7:C0:CC:91:46:AF:64:F3:91:F2:27:F8:C8:B2:6F:8A:87:32:73
                DirName:/C=DE/ST=Hessen/O=privacyidea/CN=CA001
                serial:FB:C8:EB:AC:83:CD:12:07

            X509v3 Extended Key Usage: 
                TLS Web Server Authentication
    Signature Algorithm: sha1WithRSAEncryption
         b2:bc:3b:33:ed:8c:a7:81:17:ba:fe:d0:10:52:85:79:43:66:
         2d:84:e2:87:c0:46:9f:ff:88:c6:e9:5f:f8:e1:92:08:d2:91:
         64:24:79:49:9b:f0:cb:b8:f3:95:bd:02:c3:85:04:e0:a9:5a:
         6a:dc:13:e3:2a:c7:6f:29:93:66:d5:0e:b3:76:a1:78:52:ce:
         3c:68:2c:00:da:51:83:b3:82:e1:b9:4b:25:f9:03:39:ba:1f:
         59:9f:9e:e4:b8:fd:19:45:61:b5:c6:aa:4f:1e:75:8f:65:db:
         cc:3a:14:05:b9:aa:61:c0:66:7e:2e:8a:77:0e:92:29:a0:f3:
         79:16:af:69:50:1a:eb:b8:f1:5e:b3:df:c4:f7:d3:48:9e:0c:
         5a:0d:c0:ed:79:63:a5:d4:20:22:aa:88:9d:f0:d6:65:79:ff:
         71:a1:0d:22:49:0b:6d:8c:68:e0:43:f5:5a:ef:fd:12:d4:6e:
         6e:63:b2:dd:a9:5b:79:8c:a5:3d:e9:e7:d0:b5:d5:bd:17:7e:
         1d:4b:8b:f0:31:5b:39:81:4a:77:3e:1e:bd:81:6d:4d:a0:c0:
         be:92:40:f6:8a:1e:1d:da:7d:37:ec:1a:57:1f:1d:43:64:b4:
         1c:09:a5:e4:91:49:19:29:39:cf:5e:ba:f8:23:6e:f2:8e:32:
         42:45:60:97
-----BEGIN CERTIFICATE-----
MIIEGTCCAwGgAwIBAgIEEAAAzzANBgkqhkiG9w0BAQUFADBEMQswCQYDVQQGEwJE
RTEPMA0GA1UECAwGSGVzc2VuMRQwEgYDVQQKDAtwcml2YWN5aWRlYTEOMAwGA1UE
AwwFQ0EwMDEwHhcNMTUwOTI2MTQyODQ1WhcNMTYwOTI1MTQyODQ1WjBHMQswCQYD
VQQGEwJERTEPMA0GA1UECAwGSGVzc2VuMRQwEgYDVQQKDAtwcml2YWN5aWRlYTER
MA8GA1UEAwwIdXNlcmNlcnQwggEiMA0GCSqGSIb3DQEBAQUAA4IBDwAwggEKAoIB
AQDcL9FfKZfUfMNTyDC9S2dwLCRruF7rIXpIElZ8gVxIdbZo6/bymE5QUdF/bHPz
Cqeuvkhe5dbh2Sp8Mm5O/Qj2WlRJI3PDuQcY0e+zrPiK3JSWpJA6jnTf5g03G71b
tyUaVjnab5GqXhx08/l8FAGDEmV2x7v+NluV6XJlg+0+mDBx+ofdozZaMAMuJuBh
0b8CP7YGH0qJKBxcov9OvpTmjODagvGdKTJIMHO0BPZCHr734jIyJzydiS9wPoWa
b1zFCcCMMi9yIsnSlR+2rHJgcreCTWvOW+MA0NIvWMbgEOVRyk07LuZ+q4TWVvGT
NaCTZCaBdS+RtRYGOAvbzC0HAgMBAAGjggEOMIIBCjALBgNVHQ8EBAMCBaAwCQYD
VR0TBAIwADARBglghkgBhvhCAQEEBAMCBkAwMwYJYIZIAYb4QgENBCYWJE9wZW5T
U0wgR2VuZXJhdGVkIFNlcnZlciBDZXJ0aWZpY2F0ZTAdBgNVHQ4EFgQU/BTR8EuN
AJDy9bhxnk6Xw5JUrQswdAYDVR0jBG0wa4AU9KfAzJFGr2TzkfIn+Miyb4qHMnOh
SKRGMEQxCzAJBgNVBAYTAkRFMQ8wDQYDVQQIDAZIZXNzZW4xFDASBgNVBAoMC3By
aXZhY3lpZGVhMQ4wDAYDVQQDDAVDQTAwMYIJAPvI66yDzRIHMBMGA1UdJQQMMAoG
CCsGAQUFBwMBMA0GCSqGSIb3DQEBBQUAA4IBAQCyvDsz7YyngRe6/tAQUoV5Q2Yt
hOKHwEaf/4jG6V/44ZII0pFkJHlJm/DLuPOVvQLDhQTgqVpq3BPjKsdvKZNm1Q6z
dqF4Us48aCwA2lGDs4LhuUsl+QM5uh9Zn57kuP0ZRWG1xqpPHnWPZdvMOhQFuaph
wGZ+Lop3DpIpoPN5Fq9pUBrruPFes9/E99NIngxaDcDteWOl1CAiqoid8NZlef9x
oQ0iSQttjGjgQ/Va7/0S1G5uY7LdqVt5jKU96efQtdW9F34dS4vwMVs5gUp3Ph69
gW1NoMC+kkD2ih4d2n037BpXHx1DZLQcCaXkkUkZKTnPXrr4I27yjjJCRWCX
-----END CERTIFICATE-----
