Certificate:
    Data:
        Version: 3 (0x2)
        Serial Number: 268435652 (0x100000c4)
    Signature Algorithm: sha1WithRSAEncryption
        Issuer: C=DE, ST=Hessen, O=privacyidea, CN=CA001
        Validity
            Not Before: Oct 26 18:27:33 2015 GMT
            Not After : Oct 25 18:27:33 2016 GMT
        Subject: CN=Steve Test/emailAddress=steve@openssl.org
        Subject Public Key Info:
            Public Key Algorithm: rsaEncryption
                Public-Key: (2048 bit)
                Modulus:
                    00:d2:81:89:20:51:48:0f:73:f4:11:32:24:d5:1f:
                    1c:fd:5c:f5:b6:e6:c5:f0:52:81:dc:d2:af:66:4a:
                    7c:93:31:61:5c:af:d1:6d:06:70:03:60:7c:72:0c:
                    88:dd:49:cd:9e:02:6c:d2:5a:d7:53:0f:f3:da:be:
                    69:64:b5:0f:0c:00:e3:b3:50:47:a3:b3:9b:ba:13:
                    50:d6:58:5a:4b:ab:39:e0:11:ca:0a:27:67:03:78:
                    22:66:6d:92:1e:1b:5c:49:ae:e6:6b:d1:8e:3b:9d:
                    06:d3:c6:ac:4d:53:43:10:ab:e8:96:c1:87:82:97:
                    99:8f:20:d3:99:12:37:31:84:e1:8a:ff:29:03:5f:
                    22:90:3e:7f:9b:e0:20:c1:ad:dc:ae:4c:39:1a:31:
                    96:17:02:8c:b2:d9:b4:0d:20:12:9b:7d:86:54:fd:
                    33:fd:c1:2a:62:46:f8:60:96:cf:6e:01:6f:22:df:
                    13:47:e7:97:ec:05:72:23:a3:62:f8:fa:ef:ac:9c:
                    72:f0:37:cb:2f:37:cf:90:a8:27:51:86:c6:d7:78:
                    08:8f:7e:25:a2:15:70:a2:fb:1c:b6:15:5e:a0:97:
                    8b:81:4c:09:28:8a:27:3b:94:bc:71:db:5b:71:37:
                    9a:2b:16:e0:6f:b5:c9:f5:4b:4f:20:ba:65:cf:af:
                    ad:ad
                Exponent: 65537 (0x10001)
        X509v3 extensions:
            X509v3 Key Usage: 
                Digital Signature, Key Encipherment
            X509v3 Basic Constraints: 
                CA:FALSE
            Netscape Cert Type: 
                SSL Server
            Netscape Comment: 
                OpenSSL Generated Server Certificate
            X509v3 Subject Key Identifier: 
                E5:25:6D:3E:AF:0D:DD:3F:4C:F2:45:19:39:D5:14:DB:7E:9C:C0:AD
            X509v3 Authority Key Identifier: 
                keyid:F4:A7:C0:CC:91:46:AF:64:F3:91:F2:27:F8:C8:B2:6F:8A:87:32:73
                DirName:/C=DE/ST=Hessen/O=privacyidea/CN=CA001
                serial:FB:C8:EB:AC:83:CD:12:07

            X509v3 Extended Key Usage: 
                TLS Web Server Authentication
    Signature Algorithm: sha1WithRSAEncryption
         22:1c:4c:60:20:a7:02:83:5d:a0:d5:30:aa:5a:d5:8f:02:28:
         a6:82:0b:e5:f9:e0:12:f7:09:dd:e3:16:eb:1a:23:3f:5c:af:
         96:36:b3:74:00:ce:62:33:9f:65:7d:f9:e9:8f:93:93:23:5d:
         66:de:0c:b5:db:79:56:01:c9:50:61:a1:7e:3f:3a:51:42:ca:
         de:d4:e1:e8:87:ce:fa:9d:ab:07:46:5d:5a:ad:8b:26:fd:f7:
         5f:1f:12:27:cf:19:d0:0d:a3:f6:97:ea:62:0e:4b:45:9f:94:
         98:b3:69:02:a1:7a:f8:39:ee:16:c5:e9:2f:ac:e5:fe:8b:1f:
         3c:f6:e5:ff:64:27:91:1f:d4:18:83:19:63:60:b4:fa:7c:91:
         fc:a8:ec:86:01:ac:20:3f:71:db:0a:36:c7:b7:9c:d0:24:52:
         36:20:ea:c3:14:20:38:8c:cc:86:c9:5b:a1:6b:92:fc:38:72:
         4e:02:6f:f5:a1:2d:09:82:28:bd:01:82:fb:81:4b:31:84:2e:
         95:7b:b8:a3:77:94:28:14:fd:3f:c0:30:f4:38:81:f8:fb:10:
         63:ab:33:4e:ad:d3:92:24:f9:0e:8f:74:cd:7e:63:02:cd:ab:
         e4:c7:32:ee:34:fd:d0:ae:3e:13:2d:ca:fe:a2:3f:ed:9c:98:
         70:cb:9c:24
-----BEGIN CERTIFICATE-----
MIIECTCCAvGgAwIBAgIEEAAAxDANBgkqhkiG9w0BAQUFADBEMQswCQYDVQQGEwJE
RTEPMA0GA1UECAwGSGVzc2VuMRQwEgYDVQQKDAtwcml2YWN5aWRlYTEOMAwGA1UE
AwwFQ0EwMDEwHhcNMTUxMDI2MTgyNzMzWhcNMTYxMDI1MTgyNzMzWjA3MRMwEQYD
VQQDEwpTdGV2ZSBUZXN0MSAwHgYJKoZIhvcNAQkBFhFzdGV2ZUBvcGVuc3NsLm9y
ZzCCASIwDQYJKoZIhvcNAQEBBQADggEPADCCAQoCggEBANKBiSBRSA9z9BEyJNUf
HP1c9bbmxfBSgdzSr2ZKfJMxYVyv0W0GcANgfHIMiN1JzZ4CbNJa11MP89q+aWS1
DwwA47NQR6Ozm7oTUNZYWkurOeARygonZwN4ImZtkh4bXEmu5mvRjjudBtPGrE1T
QxCr6JbBh4KXmY8g05kSNzGE4Yr/KQNfIpA+f5vgIMGt3K5MORoxlhcCjLLZtA0g
Ept9hlT9M/3BKmJG+GCWz24BbyLfE0fnl+wFciOjYvj676yccvA3yy83z5CoJ1GG
xtd4CI9+JaIVcKL7HLYVXqCXi4FMCSiKJzuUvHHbW3E3misW4G+1yfVLTyC6Zc+v
ra0CAwEAAaOCAQ4wggEKMAsGA1UdDwQEAwIFoDAJBgNVHRMEAjAAMBEGCWCGSAGG
+EIBAQQEAwIGQDAzBglghkgBhvhCAQ0EJhYkT3BlblNTTCBHZW5lcmF0ZWQgU2Vy
dmVyIENlcnRpZmljYXRlMB0GA1UdDgQWBBTlJW0+rw3dP0zyRRk51RTbfpzArTB0
BgNVHSMEbTBrgBT0p8DMkUavZPOR8if4yLJviocyc6FIpEYwRDELMAkGA1UEBhMC
REUxDzANBgNVBAgMBkhlc3NlbjEUMBIGA1UECgwLcHJpdmFjeWlkZWExDjAMBgNV
BAMMBUNBMDAxggkA+8jrrIPNEgcwEwYDVR0lBAwwCgYIKwYBBQUHAwEwDQYJKoZI
hvcNAQEFBQADggEBACIcTGAgpwKDXaDVMKpa1Y8CKKaCC+X54BL3Cd3jFusaIz9c
r5Y2s3QAzmIzn2V9+emPk5MjXWbeDLXbeVYByVBhoX4/OlFCyt7U4eiHzvqdqwdG
XVqtiyb9918fEifPGdANo/aX6mIOS0WflJizaQKhevg57hbF6S+s5f6LHzz25f9k
J5Ef1BiDGWNgtPp8kfyo7IYBrCA/cdsKNse3nNAkUjYg6sMUIDiMzIbJW6Frkvw4
ck4Cb/WhLQmCKL0BgvuBSzGELpV7uKN3lCgU/T/AMPQ4gfj7EGOrM06t05Ik+Q6P
dM1+YwLNq+THMu40/dCuPhMtyv6iP+2cmHDLnCQ=
-----END CERTIFICATE-----
