Certificate:
    Data:
        Version: 3 (0x2)
        Serial Number: 268435649 (0x100000c1)
    Signature Algorithm: sha1WithRSAEncryption
        Issuer: C=DE, ST=Hessen, O=privacyidea, CN=CA001
        Validity
            Not Before: Oct 27 12:46:33 2015 GMT
            Not After : Oct 26 12:46:33 2016 GMT
        Subject: CN=selfservice,CN=user,O=realm1/emailAddress=meine
        Subject Public Key Info:
            Public Key Algorithm: rsaEncryption
                Public-Key: (2048 bit)
                Modulus:
                    00:cf:3c:d4:33:0e:12:c4:e6:da:cd:b6:56:a1:1c:
                    26:bb:26:1c:8a:4a:73:a8:58:8a:b6:1e:b3:8b:99:
                    d2:1d:07:c2:92:89:79:c0:69:d8:c8:df:28:61:98:
                    1e:b3:fe:ae:2b:bd:78:a9:f7:6e:47:dc:a3:a0:16:
                    8c:85:02:c1:4e:92:fd:72:6e:f0:c8:03:29:9b:b8:
                    00:6e:c0:83:95:c8:34:20:36:9c:b3:e5:e4:e6:76:
                    73:a3:1a:ad:40:96:e0:53:54:00:ec:76:79:9a:c6:
                    0d:7e:b6:bd:29:ec:83:f3:cb:89:a4:cb:6c:00:ba:
                    0c:c5:78:0f:ff:69:b8:94:f4:04:70:43:3f:d8:9e:
                    d7:a7:fb:5d:ce:75:8e:da:e7:c4:07:b1:9d:de:6f:
                    88:4b:b6:4d:9a:cf:f9:bc:fa:9f:cd:32:6d:f6:3a:
                    0b:0d:23:42:78:ec:97:42:bf:0e:4d:60:56:e1:d3:
                    02:f2:19:cb:84:57:90:e5:70:a1:a2:83:35:86:e2:
                    da:86:9f:f9:8a:c4:79:b3:52:28:da:cb:bb:34:ca:
                    d3:da:91:4a:cf:8d:76:a2:b2:6b:9b:f9:96:fd:09:
                    2a:da:11:23:4d:f0:cb:d6:b2:b1:0e:12:6c:9a:19:
                    65:98:87:ca:e4:ee:24:ce:44:ac:90:8f:9d:1b:c5:
                    2a:9d
                Exponent: 65537 (0x10001)
        X509v3 extensions:
            X509v3 Key Usage: 
                Digital Signature, Key Encipherment
            X509v3 Basic Constraints: 
                CA:FALSE
            Netscape Cert Type: 
                SSL Server
            Netscape Comment: 
                OpenSSL Generated Server Certificate
            X509v3 Subject Key Identifier: 
                4D:07:90:AD:FF:1D:0D:E7:1A:DD:D6:2E:FA:BA:34:CB:AA:1F:24:C6
            X509v3 Authority Key Identifier: 
                keyid:F4:A7:C0:CC:91:46:AF:64:F3:91:F2:27:F8:C8:B2:6F:8A:87:32:73
                DirName:/C=DE/ST=Hessen/O=privacyidea/CN=CA001
                serial:FB:C8:EB:AC:83:CD:12:07

            X509v3 Extended Key Usage: 
                TLS Web Server Authentication
    Signature Algorithm: sha1WithRSAEncryption
         16:ee:3f:e1:de:76:de:e9:11:3f:f4:6f:36:f6:6f:df:fb:f2:
         53:5b:da:21:32:c6:14:cc:c9:2a:13:e3:ba:25:10:cf:bb:1a:
         20:ec:f5:7d:4e:e9:ea:03:ec:37:16:67:5e:dc:18:1a:4d:4c:
         31:a3:22:e6:5c:fc:7e:65:d9:23:b5:85:d8:98:9c:ed:87:62:
         cc:2f:23:45:80:ad:1b:0c:f1:92:b1:2b:5a:2b:07:0f:14:27:
         dd:ef:d2:f2:e9:c8:49:02:3e:c4:83:29:0d:3b:d7:aa:71:5a:
         b1:bf:ec:3a:15:eb:b8:5a:8e:0f:bf:3d:2c:4a:0a:8b:32:82:
         ce:c6:24:70:30:f9:7a:f0:14:25:9e:0c:d3:d7:ac:81:51:60:
         67:eb:49:82:3a:1f:b9:a2:a6:de:2d:f5:a5:c1:1b:11:b0:ae:
         83:dd:7c:37:f1:fb:da:d4:88:46:37:0f:e8:82:12:61:6b:e7:
         2e:a2:cc:82:8e:93:29:95:61:ff:99:e8:c0:10:90:d9:9c:6b:
         6e:d3:6e:89:27:28:37:e6:88:4e:5c:eb:c5:ed:77:a9:ca:83:
         8f:6c:2d:70:ca:79:bd:5c:08:2f:cd:b8:25:74:ac:ce:33:3f:
         9f:a5:15:9b:c1:86:46:c4:2d:a0:f1:eb:f4:36:e6:9b:b2:42:
         64:e3:97:c0
-----BEGIN CERTIFICATE-----
MIIEDzCCAvegAwIBAgIEEAAAwTANBgkqhkiG9w0BAQUFADBEMQswCQYDVQQGEwJE
RTEPMA0GA1UECAwGSGVzc2VuMRQwEgYDVQQKDAtwcml2YWN5aWRlYTEOMAwGA1UE
AwwFQ0EwMDEwHhcNMTUxMDI3MTI0NjMzWhcNMTYxMDI2MTI0NjMzWjA9MSUwIwYD
VQQDExxzZWxmc2VydmljZSxDTj11c2VyLE89cmVhbG0xMRQwEgYJKoZIhvcNAQkB
FgVtZWluZTCCASIwDQYJKoZIhvcNAQEBBQADggEPADCCAQoCggEBAM881DMOEsTm
2s22VqEcJrsmHIpKc6hYirYes4uZ0h0HwpKJecBp2MjfKGGYHrP+riu9eKn3bkfc
o6AWjIUCwU6S/XJu8MgDKZu4AG7Ag5XINCA2nLPl5OZ2c6MarUCW4FNUAOx2eZrG
DX62vSnsg/PLiaTLbAC6DMV4D/9puJT0BHBDP9ie16f7Xc51jtrnxAexnd5viEu2
TZrP+bz6n80ybfY6Cw0jQnjsl0K/Dk1gVuHTAvIZy4RXkOVwoaKDNYbi2oaf+YrE
ebNSKNrLuzTK09qRSs+NdqKya5v5lv0JKtoRI03wy9aysQ4SbJoZZZiHyuTuJM5E
rJCPnRvFKp0CAwEAAaOCAQ4wggEKMAsGA1UdDwQEAwIFoDAJBgNVHRMEAjAAMBEG
CWCGSAGG+EIBAQQEAwIGQDAzBglghkgBhvhCAQ0EJhYkT3BlblNTTCBHZW5lcmF0
ZWQgU2VydmVyIENlcnRpZmljYXRlMB0GA1UdDgQWBBRNB5Ct/x0N5xrd1i76ujTL
qh8kxjB0BgNVHSMEbTBrgBT0p8DMkUavZPOR8if4yLJviocyc6FIpEYwRDELMAkG
A1UEBhMCREUxDzANBgNVBAgMBkhlc3NlbjEUMBIGA1UECgwLcHJpdmFjeWlkZWEx
DjAMBgNVBAMMBUNBMDAxggkA+8jrrIPNEgcwEwYDVR0lBAwwCgYIKwYBBQUHAwEw
DQYJKoZIhvcNAQEFBQADggEBABbuP+Hedt7pET/0bzb2b9/78lNb2iEyxhTMySoT
47olEM+7GiDs9X1O6eoD7DcWZ17cGBpNTDGjIuZc/H5l2SO1hdiYnO2HYswvI0WA
rRsM8ZKxK1orBw8UJ93v0vLpyEkCPsSDKQ0716pxWrG/7DoV67hajg+/PSxKCosy
gs7GJHAw+XrwFCWeDNPXrIFRYGfrSYI6H7mipt4t9aXBGxGwroPdfDfx+9rUiEY3
D+iCEmFr5y6izIKOkymVYf+Z6MAQkNmca27TboknKDfmiE5c68Xtd6nKg49sLXDK
eb1cCC/NuCV0rM4zP5+lFZvBhkbELaDx6/Q25puyQmTjl8A=
-----END CERTIFICATE-----
