Certificate:
    Data:
        Version: 3 (0x2)
        Serial Number: 268435646 (0x100000be)
    Signature Algorithm: sha1WithRSAEncryption
        Issuer: C=DE, ST=Hessen, O=privacyidea, CN=CA001
        Validity
            Not Before: Oct 27 12:37:09 2015 GMT
            Not After : Oct 26 12:37:09 2016 GMT
        Subject: C=DE, ST=Hessen, O=privacyidea, CN=usercert
        Subject Public Key Info:
            Public Key Algorithm: rsaEncryption
                Public-Key: (2048 bit)
                Modulus:
                    00:dc:2f:d1:5f:29:97:d4:7c:c3:53:c8:30:bd:4b:
                    67:70:2c:24:6b:b8:5e:eb:21:7a:48:12:56:7c:81:
                    5c:48:75:b6:68:eb:f6:f2:98:4e:50:51:d1:7f:6c:
                    73:f3:0a:a7:ae:be:48:5e:e5:d6:e1:d9:2a:7c:32:
                    6e:4e:fd:08:f6:5a:54:49:23:73:c3:b9:07:18:d1:
                    ef:b3:ac:f8:8a:dc:94:96:a4:90:3a:8e:74:df:e6:
                    0d:37:1b:bd:5b:b7:25:1a:56:39:da:6f:91:aa:5e:
                    1c:74:f3:f9:7c:14:01:83:12:65:76:c7:bb:fe:36:
                    5b:95:e9:72:65:83:ed:3e:98:30:71:fa:87:dd:a3:
                    36:5a:30:03:2e:26:e0:61:d1:bf:02:3f:b6:06:1f:
                    4a:89:28:1c:5c:a2:ff:4e:be:94:e6:8c:e0:da:82:
                    f1:9d:29:32:48:30:73:b4:04:f6:42:1e:be:f7:e2:
                    32:32:27:3c:9d:89:2f:70:3e:85:9a:6f:5c:c5:09:
                    c0:8c:32:2f:72:22:c9:d2:95:1f:b6:ac:72:60:72:
                    b7:82:4d:6b:ce:5b:e3:00:d0:d2:2f:58:c6:e0:10:
                    e5:51:ca:4d:3b:2e:e6:7e:ab:84:d6:56:f1:93:35:
                    a0:93:64:26:81:75:2f:91:b5:16:06:38:0b:db:cc:
                    2d:07
                Exponent: 65537 (0x10001)
        X509v3 extensions:
            X509v3 Key Usage: 
                Digital Signature, Key Encipherment
            X509v3 Basic Constraints: 
                CA:FALSE
            Netscape Cert Type: 
                SSL Server
            Netscape Comment: 
                OpenSSL Generated Server Certificate
            X509v3 Subject Key Identifier: 
                FC:14:D1:F0:4B:8D:00:90:F2:F5:B8:71:9E:4E:97:C3:92:54:AD:0B
            X509v3 Authority Key Identifier: 
                keyid:F4:A7:C0:CC:91:46:AF:64:F3:91:F2:27:F8:C8:B2:6F:8A:87:32:73
                DirName:/C=DE/ST=Hessen/O=privacyidea/CN=CA001
                serial:FB:C8:EB:AC:83:CD:12:07

            X509v3 Extended Key Usage: 
                TLS Web Server Authentication
    Signature Algorithm: sha1WithRSAEncryption
         76:9d:46:ec:e3:2c:e1:a6:96:fc:dd:4c:37:74:6c:81:3b:be:
         78:9a:ba:b2:0f:d1:3a:8e:01:2d:95:47:3e:7f:da:c8:f1:c6:
         ab:62:10:8d:08:0e:26:37:1f:8d:d7:fc:15:3c:8a:13:1f:36:
         57:92:37:ae:52:43:51:7a:36:80:49:5b:ad:29:4a:64:2f:83:
         d0:1a:c8:42:c8:7e:4a:7e:97:3c:27:85:4e:1c:85:29:96:20:
         03:89:a8:44:7f:65:71:12:84:70:35:9b:08:f6:54:06:f5:98:
         c6:2d:6f:85:3c:2f:b7:0c:37:d0:29:54:57:32:b6:6f:a7:e9:
         46:0a:26:23:46:fa:ca:40:10:dc:0e:93:b1:8b:15:06:f9:86:
         8e:ee:b8:20:af:d5:0b:09:2b:3b:1a:0e:e1:b3:a0:0c:15:ec:
         e1:cf:1e:3d:77:e4:cf:eb:4c:35:fb:a4:17:5b:38:c0:a9:33:
         03:f8:45:19:59:65:79:bf:42:02:bc:c3:ef:86:fb:88:95:83:
         8d:5e:8c:67:33:dc:e3:62:23:51:d1:be:61:a0:f5:17:55:68:
         f3:35:3b:df:2c:a3:c8:43:cb:ab:11:15:0a:68:86:7c:cb:0b:
         13:f8:4f:48:3a:d6:9c:da:8b:58:34:f1:14:14:b2:32:d2:d0:
         50:8e:65:32
-----BEGIN CERTIFICATE-----
MIIEGTCCAwGgAwIBAgIEEAAAvjANBgkqhkiG9w0BAQUFADBEMQswCQYDVQQGEwJE
RTEPMA0GA1UECAwGSGVzc2VuMRQwEgYDVQQKDAtwcml2YWN5aWRlYTEOMAwGA1UE
AwwFQ0EwMDEwHhcNMTUxMDI3MTIzNzA5WhcNMTYxMDI2MTIzNzA5WjBHMQswCQYD
VQQGEwJERTEPMA0GA1UECAwGSGVzc2VuMRQwEgYDVQQKDAtwcml2YWN5aWRlYTER
MA8GA1UEAwwIdXNlcmNlcnQwggEiMA0GCSqGSIb3DQEBAQUAA4IBDwAwggEKAoIB
AQDcL9FfKZfUfMNTyDC9S2dwLCRruF7rIXpIElZ8gVxIdbZo6/bymE5QUdF/bHPz
Cqeuvkhe5dbh2Sp8Mm5O/Qj2WlRJI3PDuQcY0e+zrPiK3JSWpJA6jnTf5g03G71b
tyUaVjnab5GqXhx08/l8FAGDEmV2x7v+NluV6XJlg+0+mDBx+ofdozZaMAMuJuBh
0b8CP7YGH0qJKBxcov9OvpTmjODagvGdKTJIMHO0BPZCHr734jIyJzydiS9wPoWa
b1zFCcCMMi9yIsnSlR+2rHJgcreCTWvOW+MA0NIvWMbgEOVRyk07LuZ+q4TWVvGT
NaCTZCaBdS+RtRYGOAvbzC0HAgMBAAGjggEOMIIBCjALBgNVHQ8EBAMCBaAwCQYD
VR0TBAIwADARBglghkgBhvhCAQEEBAMCBkAwMwYJYIZIAYb4QgENBCYWJE9wZW5T
U0wgR2VuZXJhdGVkIFNlcnZlciBDZXJ0aWZpY2F0ZTAdBgNVHQ4EFgQU/BTR8EuN
AJDy9bhxnk6Xw5JUrQswdAYDVR0jBG0wa4AU9KfAzJFGr2TzkfIn+Miyb4qHMnOh
SKRGMEQxCzAJBgNVBAYTAkRFMQ8wDQYDVQQIDAZIZXNzZW4xFDASBgNVBAoMC3By
aXZhY3lpZGVhMQ4wDAYDVQQDDAVDQTAwMYIJAPvI66yDzRIHMBMGA1UdJQQMMAoG
CCsGAQUFBwMBMA0GCSqGSIb3DQEBBQUAA4IBAQB2nUbs4yzhppb83Uw3dGyBO754
mrqyD9E6jgEtlUc+f9rI8carYhCNCA4mNx+N1/wVPIoTHzZXkjeuUkNRejaASVut
KUpkL4PQGshCyH5Kfpc8J4VOHIUpliADiahEf2VxEoRwNZsI9lQG9ZjGLW+FPC+3
DDfQKVRXMrZvp+lGCiYjRvrKQBDcDpOxixUG+YaO7rggr9ULCSs7Gg7hs6AMFezh
zx49d+TP60w1+6QXWzjAqTMD+EUZWWV5v0ICvMPvhvuIlYONXoxnM9zjYiNR0b5h
oPUXVWjzNTvfLKPIQ8urERUKaIZ8ywsT+E9IOtac2otYNPEUFLIy0tBQjmUy
-----END CERTIFICATE-----
