Certificate:
    Data:
        Version: 3 (0x2)
        Serial Number: 268435648 (0x100000c0)
    Signature Algorithm: sha1WithRSAEncryption
        Issuer: C=DE, ST=Hessen, O=privacyidea, CN=CA001
        Validity
            Not Before: Oct 27 12:39:16 2015 GMT
            Not After : Oct 26 12:39:16 2016 GMT
        Subject: C=DE, ST=Hessen, O=privacyidea, CN=requester.localdomain
        Subject Public Key Info:
            Public Key Algorithm: rsaEncryption
                Public-Key: (2048 bit)
                Modulus:
                    00:cd:be:14:4f:fa:ce:01:3f:42:22:1b:1d:9c:af:
                    dd:92:d2:7f:db:6c:b7:3e:39:43:43:6b:13:03:f1:
                    05:f4:07:74:bc:76:69:28:0b:af:19:8e:d7:fc:e3:
                    cd:c6:58:f2:ca:7f:08:6d:53:fc:07:02:44:24:c6:
                    b4:34:4c:8c:04:fe:33:0e:40:e2:20:ba:02:73:5a:
                    f7:f5:4f:63:6e:cc:c6:b6:df:54:1d:37:39:7d:51:
                    36:26:5f:bd:dc:3f:a8:8b:6b:a2:ae:b6:9d:d6:21:
                    e7:df:41:b8:7a:28:2a:68:48:ca:a8:2d:ed:e1:e9:
                    46:5e:5a:72:6d:b4:84:38:87:91:fd:94:11:0b:28:
                    84:c6:c2:2f:2a:fb:01:f9:36:7a:09:75:d1:33:88:
                    3c:73:41:5b:c8:bf:94:89:70:a1:f0:c0:b9:2e:50:
                    53:1e:b1:17:64:69:f4:2d:81:e0:a9:0d:0e:32:e9:
                    ba:55:8a:85:f1:1b:6f:49:79:b4:7f:88:c3:0d:3e:
                    54:88:9b:3d:1f:38:8c:04:f3:ee:6a:63:2b:f5:c6:
                    db:b4:83:aa:c4:78:41:3a:7d:4b:e1:c8:3e:71:ca:
                    1b:61:59:ea:c6:c4:ca:32:5e:c9:e9:bf:12:29:e6:
                    c6:c3:63:fe:a0:55:da:7a:f1:60:98:4d:26:ed:fa:
                    70:2d
                Exponent: 65537 (0x10001)
        X509v3 extensions:
            X509v3 Key Usage: 
                Digital Signature, Key Encipherment
            X509v3 Basic Constraints: 
                CA:FALSE
            Netscape Cert Type: 
                SSL Server
            Netscape Comment: 
                OpenSSL Generated Server Certificate
            X509v3 Subject Key Identifier: 
                53:3F:ED:5D:09:07:B3:65:7B:AB:45:C9:24:5B:09:77:80:0A:96:ED
            X509v3 Authority Key Identifier: 
                keyid:F4:A7:C0:CC:91:46:AF:64:F3:91:F2:27:F8:C8:B2:6F:8A:87:32:73
                DirName:/C=DE/ST=Hessen/O=privacyidea/CN=CA001
                serial:FB:C8:EB:AC:83:CD:12:07

            X509v3 Extended Key Usage: 
                TLS Web Server Authentication
    Signature Algorithm: sha1WithRSAEncryption
         9a:41:94:47:0e:9c:b1:55:04:40:3f:fc:3a:fe:84:24:6e:43:
         af:aa:15:fc:68:c5:d5:16:b1:1b:60:09:ab:9a:a2:dc:13:27:
         b5:5d:75:79:6f:c4:5d:f3:2a:f1:83:24:b7:51:7a:fb:ed:a5:
         97:5d:a2:1e:6d:98:0e:77:14:26:d9:d5:92:5a:c1:cd:83:86:
         6d:de:56:00:0b:ad:90:6c:3c:77:1f:d3:77:fa:51:28:80:90:
         7e:0d:3a:1d:39:6c:1f:c4:3f:3f:3d:c8:e5:75:87:dd:6f:c9:
         ce:4b:3c:3e:a3:73:a9:ff:d9:70:9a:69:c7:0d:da:08:f0:b5:
         db:ed:89:3b:c7:11:3b:9d:ee:b9:a0:73:ab:df:ad:88:fd:e7:
         b4:c9:8b:a4:b3:41:c8:98:8d:9e:ce:ce:0b:c4:40:2f:6d:a4:
         79:c1:d6:d0:be:46:69:52:93:99:47:84:a4:1d:60:ad:ab:91:
         5d:ca:be:af:0a:b8:60:c2:98:f8:0e:2a:a3:f7:04:48:37:c3:
         b0:f8:bc:fc:f9:e2:b0:65:17:77:c0:13:62:96:82:d4:01:20:
         32:f6:93:9c:eb:2d:f4:9c:7f:73:02:95:91:7e:24:d9:00:17:
         4a:6e:33:61:ab:6b:9d:a5:59:6c:90:c6:ea:0f:90:1a:f6:0e:
         86:72:07:44
-----BEGIN CERTIFICATE-----
MIIEJjCCAw6gAwIBAgIEEAAAwDANBgkqhkiG9w0BAQUFADBEMQswCQYDVQQGEwJE
RTEPMA0GA1UECAwGSGVzc2VuMRQwEgYDVQQKDAtwcml2YWN5aWRlYTEOMAwGA1UE
AwwFQ0EwMDEwHhcNMTUxMDI3MTIzOTE2WhcNMTYxMDI2MTIzOTE2WjBUMQswCQYD
VQQGEwJERTEPMA0GA1UECAwGSGVzc2VuMRQwEgYDVQQKDAtwcml2YWN5aWRlYTEe
MBwGA1UEAwwVcmVxdWVzdGVyLmxvY2FsZG9tYWluMIIBIjANBgkqhkiG9w0BAQEF
AAOCAQ8AMIIBCgKCAQEAzb4UT/rOAT9CIhsdnK/dktJ/22y3PjlDQ2sTA/EF9Ad0
vHZpKAuvGY7X/OPNxljyyn8IbVP8BwJEJMa0NEyMBP4zDkDiILoCc1r39U9jbszG
tt9UHTc5fVE2Jl+93D+oi2uirrad1iHn30G4eigqaEjKqC3t4elGXlpybbSEOIeR
/ZQRCyiExsIvKvsB+TZ6CXXRM4g8c0FbyL+UiXCh8MC5LlBTHrEXZGn0LYHgqQ0O
Mum6VYqF8RtvSXm0f4jDDT5UiJs9HziMBPPuamMr9cbbtIOqxHhBOn1L4cg+ccob
YVnqxsTKMl7J6b8SKebGw2P+oFXaevFgmE0m7fpwLQIDAQABo4IBDjCCAQowCwYD
VR0PBAQDAgWgMAkGA1UdEwQCMAAwEQYJYIZIAYb4QgEBBAQDAgZAMDMGCWCGSAGG
+EIBDQQmFiRPcGVuU1NMIEdlbmVyYXRlZCBTZXJ2ZXIgQ2VydGlmaWNhdGUwHQYD
VR0OBBYEFFM/7V0JB7Nle6tFySRbCXeACpbtMHQGA1UdIwRtMGuAFPSnwMyRRq9k
85HyJ/jIsm+KhzJzoUikRjBEMQswCQYDVQQGEwJERTEPMA0GA1UECAwGSGVzc2Vu
MRQwEgYDVQQKDAtwcml2YWN5aWRlYTEOMAwGA1UEAwwFQ0EwMDGCCQD7yOusg80S
BzATBgNVHSUEDDAKBggrBgEFBQcDATANBgkqhkiG9w0BAQUFAAOCAQEAmkGURw6c
sVUEQD/8Ov6EJG5Dr6oV/GjF1RaxG2AJq5qi3BMntV11eW/EXfMq8YMkt1F6++2l
l12iHm2YDncUJtnVklrBzYOGbd5WAAutkGw8dx/Td/pRKICQfg06HTlsH8Q/Pz3I
5XWH3W/Jzks8PqNzqf/ZcJppxw3aCPC12+2JO8cRO53uuaBzq9+tiP3ntMmLpLNB
yJiNns7OC8RAL22kecHW0L5GaVKTmUeEpB1grauRXcq+rwq4YMKY+A4qo/cESDfD
sPi8/PnisGUXd8ATYpaC1AEgMvaTnOst9Jx/cwKVkX4k2QAXSm4zYatrnaVZbJDG
6g+QGvYOhnIHRA==
-----END CERTIFICATE-----
